
WRAP_RX_H7.elf:     file format elf32-littlearm

Sections:
Idx Name          Size      VMA       LMA       File off  Algn
  0 .isr_vector   000002ac  08000000  08000000  00001000  2**0
                  CONTENTS, ALLOC, LOAD, READONLY, DATA
  1 .text         0000b434  080002ac  080002ac  000012ac  2**2
                  CONTENTS, ALLOC, LOAD, READONLY, CODE
  2 .rodata       00000040  0800b6e0  0800b6e0  0000c6e0  2**2
                  CONTENTS, ALLOC, LOAD, READONLY, DATA
  3 .ARM          00000008  0800b720  0800b720  0000c720  2**2
                  CONTENTS, ALLOC, LOAD, READONLY, DATA
  4 .init_array   00000004  0800b728  0800b728  0000c728  2**2
                  CONTENTS, ALLOC, LOAD, READONLY, DATA
  5 .fini_array   00000004  0800b72c  0800b72c  0000c72c  2**2
                  CONTENTS, ALLOC, LOAD, READONLY, DATA
  6 .data         00000010  24000000  0800b730  0000d000  2**2
                  CONTENTS, ALLOC, LOAD, DATA
  7 .bss          000002fc  24000010  0800b740  0000d010  2**2
                  ALLOC
  8 ._user_heap_stack 00000604  2400030c  0800b740  0000d30c  2**0
                  ALLOC
  9 .ARM.attributes 0000002e  00000000  00000000  0000d010  2**0
                  CONTENTS, READONLY
 10 .debug_info   00016070  00000000  00000000  0000d03e  2**0
                  CONTENTS, READONLY, DEBUGGING, OCTETS
 11 .debug_abbrev 00002813  00000000  00000000  000230ae  2**0
                  CONTENTS, READONLY, DEBUGGING, OCTETS
 12 .debug_aranges 00000fd8  00000000  00000000  000258c8  2**3
                  CONTENTS, READONLY, DEBUGGING, OCTETS
 13 .debug_rnglists 00000c37  00000000  00000000  000268a0  2**0
                  CONTENTS, READONLY, DEBUGGING, OCTETS
 14 .debug_macro  0003121f  00000000  00000000  000274d7  2**0
                  CONTENTS, READONLY, DEBUGGING, OCTETS
 15 .debug_line   000159ad  00000000  00000000  000586f6  2**0
                  CONTENTS, READONLY, DEBUGGING, OCTETS
 16 .debug_str    001471e8  00000000  00000000  0006e0a3  2**0
                  CONTENTS, READONLY, DEBUGGING, OCTETS
 17 .comment      00000043  00000000  00000000  001b528b  2**0
                  CONTENTS, READONLY
 18 .debug_frame  00004324  00000000  00000000  001b52d0  2**2
                  CONTENTS, READONLY, DEBUGGING, OCTETS
 19 .debug_line_str 0000006f  00000000  00000000  001b95f4  2**0
                  CONTENTS, READONLY, DEBUGGING, OCTETS

Disassembly of section .text:

080002ac <__do_global_dtors_aux>:
 80002ac:	b510      	push	{r4, lr}
 80002ae:	4c05      	ldr	r4, [pc, #20]	@ (80002c4 <__do_global_dtors_aux+0x18>)
 80002b0:	7823      	ldrb	r3, [r4, #0]
 80002b2:	b933      	cbnz	r3, 80002c2 <__do_global_dtors_aux+0x16>
 80002b4:	4b04      	ldr	r3, [pc, #16]	@ (80002c8 <__do_global_dtors_aux+0x1c>)
 80002b6:	b113      	cbz	r3, 80002be <__do_global_dtors_aux+0x12>
 80002b8:	4804      	ldr	r0, [pc, #16]	@ (80002cc <__do_global_dtors_aux+0x20>)
 80002ba:	f3af 8000 	nop.w
 80002be:	2301      	movs	r3, #1
 80002c0:	7023      	strb	r3, [r4, #0]
 80002c2:	bd10      	pop	{r4, pc}
 80002c4:	24000010 	.word	0x24000010
 80002c8:	00000000 	.word	0x00000000
 80002cc:	0800b6c8 	.word	0x0800b6c8

080002d0 <frame_dummy>:
 80002d0:	b508      	push	{r3, lr}
 80002d2:	4b03      	ldr	r3, [pc, #12]	@ (80002e0 <frame_dummy+0x10>)
 80002d4:	b11b      	cbz	r3, 80002de <frame_dummy+0xe>
 80002d6:	4903      	ldr	r1, [pc, #12]	@ (80002e4 <frame_dummy+0x14>)
 80002d8:	4803      	ldr	r0, [pc, #12]	@ (80002e8 <frame_dummy+0x18>)
 80002da:	f3af 8000 	nop.w
 80002de:	bd08      	pop	{r3, pc}
 80002e0:	00000000 	.word	0x00000000
 80002e4:	24000014 	.word	0x24000014
 80002e8:	0800b6c8 	.word	0x0800b6c8

080002ec <__aeabi_uldivmod>:
 80002ec:	b953      	cbnz	r3, 8000304 <__aeabi_uldivmod+0x18>
 80002ee:	b94a      	cbnz	r2, 8000304 <__aeabi_uldivmod+0x18>
 80002f0:	2900      	cmp	r1, #0
 80002f2:	bf08      	it	eq
 80002f4:	2800      	cmpeq	r0, #0
 80002f6:	bf1c      	itt	ne
 80002f8:	f04f 31ff 	movne.w	r1, #4294967295
 80002fc:	f04f 30ff 	movne.w	r0, #4294967295
 8000300:	f000 b96a 	b.w	80005d8 <__aeabi_idiv0>
 8000304:	f1ad 0c08 	sub.w	ip, sp, #8
 8000308:	e96d ce04 	strd	ip, lr, [sp, #-16]!
 800030c:	f000 f806 	bl	800031c <__udivmoddi4>
 8000310:	f8dd e004 	ldr.w	lr, [sp, #4]
 8000314:	e9dd 2302 	ldrd	r2, r3, [sp, #8]
 8000318:	b004      	add	sp, #16
 800031a:	4770      	bx	lr

0800031c <__udivmoddi4>:
 800031c:	e92d 47f0 	stmdb	sp!, {r4, r5, r6, r7, r8, r9, sl, lr}
 8000320:	9d08      	ldr	r5, [sp, #32]
 8000322:	460c      	mov	r4, r1
 8000324:	2b00      	cmp	r3, #0
 8000326:	d14e      	bne.n	80003c6 <__udivmoddi4+0xaa>
 8000328:	4694      	mov	ip, r2
 800032a:	458c      	cmp	ip, r1
 800032c:	4686      	mov	lr, r0
 800032e:	fab2 f282 	clz	r2, r2
 8000332:	d962      	bls.n	80003fa <__udivmoddi4+0xde>
 8000334:	b14a      	cbz	r2, 800034a <__udivmoddi4+0x2e>
 8000336:	f1c2 0320 	rsb	r3, r2, #32
 800033a:	4091      	lsls	r1, r2
 800033c:	fa20 f303 	lsr.w	r3, r0, r3
 8000340:	fa0c fc02 	lsl.w	ip, ip, r2
 8000344:	4319      	orrs	r1, r3
 8000346:	fa00 fe02 	lsl.w	lr, r0, r2
 800034a:	ea4f 471c 	mov.w	r7, ip, lsr #16
 800034e:	fa1f f68c 	uxth.w	r6, ip
 8000352:	fbb1 f4f7 	udiv	r4, r1, r7
 8000356:	ea4f 431e 	mov.w	r3, lr, lsr #16
 800035a:	fb07 1114 	mls	r1, r7, r4, r1
 800035e:	ea43 4301 	orr.w	r3, r3, r1, lsl #16
 8000362:	fb04 f106 	mul.w	r1, r4, r6
 8000366:	4299      	cmp	r1, r3
 8000368:	d90a      	bls.n	8000380 <__udivmoddi4+0x64>
 800036a:	eb1c 0303 	adds.w	r3, ip, r3
 800036e:	f104 30ff 	add.w	r0, r4, #4294967295
 8000372:	f080 8112 	bcs.w	800059a <__udivmoddi4+0x27e>
 8000376:	4299      	cmp	r1, r3
 8000378:	f240 810f 	bls.w	800059a <__udivmoddi4+0x27e>
 800037c:	3c02      	subs	r4, #2
 800037e:	4463      	add	r3, ip
 8000380:	1a59      	subs	r1, r3, r1
 8000382:	fa1f f38e 	uxth.w	r3, lr
 8000386:	fbb1 f0f7 	udiv	r0, r1, r7
 800038a:	fb07 1110 	mls	r1, r7, r0, r1
 800038e:	ea43 4301 	orr.w	r3, r3, r1, lsl #16
 8000392:	fb00 f606 	mul.w	r6, r0, r6
 8000396:	429e      	cmp	r6, r3
 8000398:	d90a      	bls.n	80003b0 <__udivmoddi4+0x94>
 800039a:	eb1c 0303 	adds.w	r3, ip, r3
 800039e:	f100 31ff 	add.w	r1, r0, #4294967295
 80003a2:	f080 80fc 	bcs.w	800059e <__udivmoddi4+0x282>
 80003a6:	429e      	cmp	r6, r3
 80003a8:	f240 80f9 	bls.w	800059e <__udivmoddi4+0x282>
 80003ac:	4463      	add	r3, ip
 80003ae:	3802      	subs	r0, #2
 80003b0:	1b9b      	subs	r3, r3, r6
 80003b2:	ea40 4004 	orr.w	r0, r0, r4, lsl #16
 80003b6:	2100      	movs	r1, #0
 80003b8:	b11d      	cbz	r5, 80003c2 <__udivmoddi4+0xa6>
 80003ba:	40d3      	lsrs	r3, r2
 80003bc:	2200      	movs	r2, #0
 80003be:	e9c5 3200 	strd	r3, r2, [r5]
 80003c2:	e8bd 87f0 	ldmia.w	sp!, {r4, r5, r6, r7, r8, r9, sl, pc}
 80003c6:	428b      	cmp	r3, r1
 80003c8:	d905      	bls.n	80003d6 <__udivmoddi4+0xba>
 80003ca:	b10d      	cbz	r5, 80003d0 <__udivmoddi4+0xb4>
 80003cc:	e9c5 0100 	strd	r0, r1, [r5]
 80003d0:	2100      	movs	r1, #0
 80003d2:	4608      	mov	r0, r1
 80003d4:	e7f5      	b.n	80003c2 <__udivmoddi4+0xa6>
 80003d6:	fab3 f183 	clz	r1, r3
 80003da:	2900      	cmp	r1, #0
 80003dc:	d146      	bne.n	800046c <__udivmoddi4+0x150>
 80003de:	42a3      	cmp	r3, r4
 80003e0:	d302      	bcc.n	80003e8 <__udivmoddi4+0xcc>
 80003e2:	4290      	cmp	r0, r2
 80003e4:	f0c0 80f0 	bcc.w	80005c8 <__udivmoddi4+0x2ac>
 80003e8:	1a86      	subs	r6, r0, r2
 80003ea:	eb64 0303 	sbc.w	r3, r4, r3
 80003ee:	2001      	movs	r0, #1
 80003f0:	2d00      	cmp	r5, #0
 80003f2:	d0e6      	beq.n	80003c2 <__udivmoddi4+0xa6>
 80003f4:	e9c5 6300 	strd	r6, r3, [r5]
 80003f8:	e7e3      	b.n	80003c2 <__udivmoddi4+0xa6>
 80003fa:	2a00      	cmp	r2, #0
 80003fc:	f040 8090 	bne.w	8000520 <__udivmoddi4+0x204>
 8000400:	eba1 040c 	sub.w	r4, r1, ip
 8000404:	ea4f 481c 	mov.w	r8, ip, lsr #16
 8000408:	fa1f f78c 	uxth.w	r7, ip
 800040c:	2101      	movs	r1, #1
 800040e:	fbb4 f6f8 	udiv	r6, r4, r8
 8000412:	ea4f 431e 	mov.w	r3, lr, lsr #16
 8000416:	fb08 4416 	mls	r4, r8, r6, r4
 800041a:	ea43 4304 	orr.w	r3, r3, r4, lsl #16
 800041e:	fb07 f006 	mul.w	r0, r7, r6
 8000422:	4298      	cmp	r0, r3
 8000424:	d908      	bls.n	8000438 <__udivmoddi4+0x11c>
 8000426:	eb1c 0303 	adds.w	r3, ip, r3
 800042a:	f106 34ff 	add.w	r4, r6, #4294967295
 800042e:	d202      	bcs.n	8000436 <__udivmoddi4+0x11a>
 8000430:	4298      	cmp	r0, r3
 8000432:	f200 80cd 	bhi.w	80005d0 <__udivmoddi4+0x2b4>
 8000436:	4626      	mov	r6, r4
 8000438:	1a1c      	subs	r4, r3, r0
 800043a:	fa1f f38e 	uxth.w	r3, lr
 800043e:	fbb4 f0f8 	udiv	r0, r4, r8
 8000442:	fb08 4410 	mls	r4, r8, r0, r4
 8000446:	ea43 4304 	orr.w	r3, r3, r4, lsl #16
 800044a:	fb00 f707 	mul.w	r7, r0, r7
 800044e:	429f      	cmp	r7, r3
 8000450:	d908      	bls.n	8000464 <__udivmoddi4+0x148>
 8000452:	eb1c 0303 	adds.w	r3, ip, r3
 8000456:	f100 34ff 	add.w	r4, r0, #4294967295
 800045a:	d202      	bcs.n	8000462 <__udivmoddi4+0x146>
 800045c:	429f      	cmp	r7, r3
 800045e:	f200 80b0 	bhi.w	80005c2 <__udivmoddi4+0x2a6>
 8000462:	4620      	mov	r0, r4
 8000464:	1bdb      	subs	r3, r3, r7
 8000466:	ea40 4006 	orr.w	r0, r0, r6, lsl #16
 800046a:	e7a5      	b.n	80003b8 <__udivmoddi4+0x9c>
 800046c:	f1c1 0620 	rsb	r6, r1, #32
 8000470:	408b      	lsls	r3, r1
 8000472:	fa22 f706 	lsr.w	r7, r2, r6
 8000476:	431f      	orrs	r7, r3
 8000478:	fa20 fc06 	lsr.w	ip, r0, r6
 800047c:	fa04 f301 	lsl.w	r3, r4, r1
 8000480:	ea43 030c 	orr.w	r3, r3, ip
 8000484:	40f4      	lsrs	r4, r6
 8000486:	fa00 f801 	lsl.w	r8, r0, r1
 800048a:	0c38      	lsrs	r0, r7, #16
 800048c:	ea4f 4913 	mov.w	r9, r3, lsr #16
 8000490:	fbb4 fef0 	udiv	lr, r4, r0
 8000494:	fa1f fc87 	uxth.w	ip, r7
 8000498:	fb00 441e 	mls	r4, r0, lr, r4
 800049c:	ea49 4404 	orr.w	r4, r9, r4, lsl #16
 80004a0:	fb0e f90c 	mul.w	r9, lr, ip
 80004a4:	45a1      	cmp	r9, r4
 80004a6:	fa02 f201 	lsl.w	r2, r2, r1
 80004aa:	d90a      	bls.n	80004c2 <__udivmoddi4+0x1a6>
 80004ac:	193c      	adds	r4, r7, r4
 80004ae:	f10e 3aff 	add.w	sl, lr, #4294967295
 80004b2:	f080 8084 	bcs.w	80005be <__udivmoddi4+0x2a2>
 80004b6:	45a1      	cmp	r9, r4
 80004b8:	f240 8081 	bls.w	80005be <__udivmoddi4+0x2a2>
 80004bc:	f1ae 0e02 	sub.w	lr, lr, #2
 80004c0:	443c      	add	r4, r7
 80004c2:	eba4 0409 	sub.w	r4, r4, r9
 80004c6:	fa1f f983 	uxth.w	r9, r3
 80004ca:	fbb4 f3f0 	udiv	r3, r4, r0
 80004ce:	fb00 4413 	mls	r4, r0, r3, r4
 80004d2:	ea49 4404 	orr.w	r4, r9, r4, lsl #16
 80004d6:	fb03 fc0c 	mul.w	ip, r3, ip
 80004da:	45a4      	cmp	ip, r4
 80004dc:	d907      	bls.n	80004ee <__udivmoddi4+0x1d2>
 80004de:	193c      	adds	r4, r7, r4
 80004e0:	f103 30ff 	add.w	r0, r3, #4294967295
 80004e4:	d267      	bcs.n	80005b6 <__udivmoddi4+0x29a>
 80004e6:	45a4      	cmp	ip, r4
 80004e8:	d965      	bls.n	80005b6 <__udivmoddi4+0x29a>
 80004ea:	3b02      	subs	r3, #2
 80004ec:	443c      	add	r4, r7
 80004ee:	ea43 400e 	orr.w	r0, r3, lr, lsl #16
 80004f2:	fba0 9302 	umull	r9, r3, r0, r2
 80004f6:	eba4 040c 	sub.w	r4, r4, ip
 80004fa:	429c      	cmp	r4, r3
 80004fc:	46ce      	mov	lr, r9
 80004fe:	469c      	mov	ip, r3
 8000500:	d351      	bcc.n	80005a6 <__udivmoddi4+0x28a>
 8000502:	d04e      	beq.n	80005a2 <__udivmoddi4+0x286>
 8000504:	b155      	cbz	r5, 800051c <__udivmoddi4+0x200>
 8000506:	ebb8 030e 	subs.w	r3, r8, lr
 800050a:	eb64 040c 	sbc.w	r4, r4, ip
 800050e:	fa04 f606 	lsl.w	r6, r4, r6
 8000512:	40cb      	lsrs	r3, r1
 8000514:	431e      	orrs	r6, r3
 8000516:	40cc      	lsrs	r4, r1
 8000518:	e9c5 6400 	strd	r6, r4, [r5]
 800051c:	2100      	movs	r1, #0
 800051e:	e750      	b.n	80003c2 <__udivmoddi4+0xa6>
 8000520:	f1c2 0320 	rsb	r3, r2, #32
 8000524:	fa20 f103 	lsr.w	r1, r0, r3
 8000528:	fa0c fc02 	lsl.w	ip, ip, r2
 800052c:	fa24 f303 	lsr.w	r3, r4, r3
 8000530:	4094      	lsls	r4, r2
 8000532:	430c      	orrs	r4, r1
 8000534:	ea4f 481c 	mov.w	r8, ip, lsr #16
 8000538:	fa00 fe02 	lsl.w	lr, r0, r2
 800053c:	fa1f f78c 	uxth.w	r7, ip
 8000540:	fbb3 f0f8 	udiv	r0, r3, r8
 8000544:	fb08 3110 	mls	r1, r8, r0, r3
 8000548:	0c23      	lsrs	r3, r4, #16
 800054a:	ea43 4301 	orr.w	r3, r3, r1, lsl #16
 800054e:	fb00 f107 	mul.w	r1, r0, r7
 8000552:	4299      	cmp	r1, r3
 8000554:	d908      	bls.n	8000568 <__udivmoddi4+0x24c>
 8000556:	eb1c 0303 	adds.w	r3, ip, r3
 800055a:	f100 36ff 	add.w	r6, r0, #4294967295
 800055e:	d22c      	bcs.n	80005ba <__udivmoddi4+0x29e>
 8000560:	4299      	cmp	r1, r3
 8000562:	d92a      	bls.n	80005ba <__udivmoddi4+0x29e>
 8000564:	3802      	subs	r0, #2
 8000566:	4463      	add	r3, ip
 8000568:	1a5b      	subs	r3, r3, r1
 800056a:	b2a4      	uxth	r4, r4
 800056c:	fbb3 f1f8 	udiv	r1, r3, r8
 8000570:	fb08 3311 	mls	r3, r8, r1, r3
 8000574:	ea44 4403 	orr.w	r4, r4, r3, lsl #16
 8000578:	fb01 f307 	mul.w	r3, r1, r7
 800057c:	42a3      	cmp	r3, r4
 800057e:	d908      	bls.n	8000592 <__udivmoddi4+0x276>
 8000580:	eb1c 0404 	adds.w	r4, ip, r4
 8000584:	f101 36ff 	add.w	r6, r1, #4294967295
 8000588:	d213      	bcs.n	80005b2 <__udivmoddi4+0x296>
 800058a:	42a3      	cmp	r3, r4
 800058c:	d911      	bls.n	80005b2 <__udivmoddi4+0x296>
 800058e:	3902      	subs	r1, #2
 8000590:	4464      	add	r4, ip
 8000592:	1ae4      	subs	r4, r4, r3
 8000594:	ea41 4100 	orr.w	r1, r1, r0, lsl #16
 8000598:	e739      	b.n	800040e <__udivmoddi4+0xf2>
 800059a:	4604      	mov	r4, r0
 800059c:	e6f0      	b.n	8000380 <__udivmoddi4+0x64>
 800059e:	4608      	mov	r0, r1
 80005a0:	e706      	b.n	80003b0 <__udivmoddi4+0x94>
 80005a2:	45c8      	cmp	r8, r9
 80005a4:	d2ae      	bcs.n	8000504 <__udivmoddi4+0x1e8>
 80005a6:	ebb9 0e02 	subs.w	lr, r9, r2
 80005aa:	eb63 0c07 	sbc.w	ip, r3, r7
 80005ae:	3801      	subs	r0, #1
 80005b0:	e7a8      	b.n	8000504 <__udivmoddi4+0x1e8>
 80005b2:	4631      	mov	r1, r6
 80005b4:	e7ed      	b.n	8000592 <__udivmoddi4+0x276>
 80005b6:	4603      	mov	r3, r0
 80005b8:	e799      	b.n	80004ee <__udivmoddi4+0x1d2>
 80005ba:	4630      	mov	r0, r6
 80005bc:	e7d4      	b.n	8000568 <__udivmoddi4+0x24c>
 80005be:	46d6      	mov	lr, sl
 80005c0:	e77f      	b.n	80004c2 <__udivmoddi4+0x1a6>
 80005c2:	4463      	add	r3, ip
 80005c4:	3802      	subs	r0, #2
 80005c6:	e74d      	b.n	8000464 <__udivmoddi4+0x148>
 80005c8:	4606      	mov	r6, r0
 80005ca:	4623      	mov	r3, r4
 80005cc:	4608      	mov	r0, r1
 80005ce:	e70f      	b.n	80003f0 <__udivmoddi4+0xd4>
 80005d0:	3e02      	subs	r6, #2
 80005d2:	4463      	add	r3, ip
 80005d4:	e730      	b.n	8000438 <__udivmoddi4+0x11c>
 80005d6:	bf00      	nop

080005d8 <__aeabi_idiv0>:
 80005d8:	4770      	bx	lr
 80005da:	bf00      	nop

080005dc <main>:
/**
  * @brief  The application entry point.
  * @retval int
  */
int main(void)
{
 80005dc:	b580      	push	{r7, lr}
 80005de:	af00      	add	r7, sp, #0
  /* USER CODE BEGIN 1 */

  /* USER CODE END 1 */

  /* MPU Configuration--------------------------------------------------------*/
  MPU_Config();
 80005e0:	f000 fb12 	bl	8000c08 <MPU_Config>

  /* MCU Configuration--------------------------------------------------------*/

  /* Reset of all peripherals, Initializes the Flash interface and the Systick. */
  HAL_Init();
 80005e4:	f000 fd92 	bl	800110c <HAL_Init>
  /* USER CODE BEGIN Init */

  /* USER CODE END Init */

  /* Configure the system clock */
  SystemClock_Config();
 80005e8:	f000 f82c 	bl	8000644 <SystemClock_Config>

/* Configure the peripherals common clocks */
  PeriphCommonClock_Config();
 80005ec:	f000 f8ec 	bl	80007c8 <PeriphCommonClock_Config>
  /* USER CODE BEGIN SysInit */

  /* USER CODE END SysInit */

  /* Initialize all configured peripherals */
  MX_GPIO_Init();
 80005f0:	f000 fa64 	bl	8000abc <MX_GPIO_Init>
  MX_DMA_Init();
 80005f4:	f000 fa42 	bl	8000a7c <MX_DMA_Init>
  MX_ADC1_Init();
 80005f8:	f000 f916 	bl	8000828 <MX_ADC1_Init>
  MX_ADC2_Init();
 80005fc:	f000 f992 	bl	8000924 <MX_ADC2_Init>
  MX_USART3_UART_Init();
 8000600:	f000 f9f0 	bl	80009e4 <MX_USART3_UART_Init>
  /* USER CODE BEGIN 2 */

  // Starts slave ADC (ADC2); this must be started before ADC1. It won't do anything until triggered by ADC1 anyways.
	HAL_ADC_Start(&hadc2);
 8000604:	480a      	ldr	r0, [pc, #40]	@ (8000630 <main+0x54>)
 8000606:	f001 f96f 	bl	80018e8 <HAL_ADC_Start>

	// Starts master ADC (ADC1) with fancy multi DMA command. Here is where we specify which buffer the DMA should store values in and how large the buffer is
	HAL_ADCEx_MultiModeStart_DMA(&hadc1,(uint32_t*)adcbuf,ADC_BUF_SIZE);
 800060a:	2240      	movs	r2, #64	@ 0x40
 800060c:	4909      	ldr	r1, [pc, #36]	@ (8000634 <main+0x58>)
 800060e:	480a      	ldr	r0, [pc, #40]	@ (8000638 <main+0x5c>)
 8000610:	f002 f956 	bl	80028c0 <HAL_ADCEx_MultiModeStart_DMA>
  {
    /* USER CODE END WHILE */

    /* USER CODE BEGIN 3 */

	  adc1value = (adcbuf[0]&0x0000FFFF);
 8000614:	4b07      	ldr	r3, [pc, #28]	@ (8000634 <main+0x58>)
 8000616:	681b      	ldr	r3, [r3, #0]
 8000618:	b29a      	uxth	r2, r3
 800061a:	4b08      	ldr	r3, [pc, #32]	@ (800063c <main+0x60>)
 800061c:	801a      	strh	r2, [r3, #0]
	  adc2value = (adcbuf[0] >> 16);
 800061e:	4b05      	ldr	r3, [pc, #20]	@ (8000634 <main+0x58>)
 8000620:	681b      	ldr	r3, [r3, #0]
 8000622:	0c1b      	lsrs	r3, r3, #16
 8000624:	b29a      	uxth	r2, r3
 8000626:	4b06      	ldr	r3, [pc, #24]	@ (8000640 <main+0x64>)
 8000628:	801a      	strh	r2, [r3, #0]
	  adc1value = (adcbuf[0]&0x0000FFFF);
 800062a:	bf00      	nop
 800062c:	e7f2      	b.n	8000614 <main+0x38>
 800062e:	bf00      	nop
 8000630:	24000090 	.word	0x24000090
 8000634:	24000200 	.word	0x24000200
 8000638:	2400002c 	.word	0x2400002c
 800063c:	24000300 	.word	0x24000300
 8000640:	24000302 	.word	0x24000302

08000644 <SystemClock_Config>:
/**
  * @brief System Clock Configuration
  * @retval None
  */
void SystemClock_Config(void)
{
 8000644:	b580      	push	{r7, lr}
 8000646:	b0a4      	sub	sp, #144	@ 0x90
 8000648:	af00      	add	r7, sp, #0
  RCC_OscInitTypeDef RCC_OscInitStruct = {0};
 800064a:	f107 0344 	add.w	r3, r7, #68	@ 0x44
 800064e:	224c      	movs	r2, #76	@ 0x4c
 8000650:	2100      	movs	r1, #0
 8000652:	4618      	mov	r0, r3
 8000654:	f00b f80c 	bl	800b670 <memset>
  RCC_ClkInitTypeDef RCC_ClkInitStruct = {0};
 8000658:	f107 0324 	add.w	r3, r7, #36	@ 0x24
 800065c:	2220      	movs	r2, #32
 800065e:	2100      	movs	r1, #0
 8000660:	4618      	mov	r0, r3
 8000662:	f00b f805 	bl	800b670 <memset>
  RCC_CRSInitTypeDef RCC_CRSInitStruct = {0};
 8000666:	f107 030c 	add.w	r3, r7, #12
 800066a:	2200      	movs	r2, #0
 800066c:	601a      	str	r2, [r3, #0]
 800066e:	605a      	str	r2, [r3, #4]
 8000670:	609a      	str	r2, [r3, #8]
 8000672:	60da      	str	r2, [r3, #12]
 8000674:	611a      	str	r2, [r3, #16]
 8000676:	615a      	str	r2, [r3, #20]

  /*AXI clock gating */
  RCC->CKGAENR = 0xFFFFFFFF;
 8000678:	4b51      	ldr	r3, [pc, #324]	@ (80007c0 <SystemClock_Config+0x17c>)
 800067a:	f04f 32ff 	mov.w	r2, #4294967295
 800067e:	f8c3 20b0 	str.w	r2, [r3, #176]	@ 0xb0

  /** Supply configuration update enable
  */
  HAL_PWREx_ConfigSupply(PWR_DIRECT_SMPS_SUPPLY);
 8000682:	2004      	movs	r0, #4
 8000684:	f005 fcfa 	bl	800607c <HAL_PWREx_ConfigSupply>

  /** Configure the main internal regulator output voltage
  */
  __HAL_PWR_VOLTAGESCALING_CONFIG(PWR_REGULATOR_VOLTAGE_SCALE0);
 8000688:	2300      	movs	r3, #0
 800068a:	60bb      	str	r3, [r7, #8]
 800068c:	4b4d      	ldr	r3, [pc, #308]	@ (80007c4 <SystemClock_Config+0x180>)
 800068e:	699b      	ldr	r3, [r3, #24]
 8000690:	4a4c      	ldr	r2, [pc, #304]	@ (80007c4 <SystemClock_Config+0x180>)
 8000692:	f443 4340 	orr.w	r3, r3, #49152	@ 0xc000
 8000696:	6193      	str	r3, [r2, #24]
 8000698:	4b4a      	ldr	r3, [pc, #296]	@ (80007c4 <SystemClock_Config+0x180>)
 800069a:	699b      	ldr	r3, [r3, #24]
 800069c:	f403 4340 	and.w	r3, r3, #49152	@ 0xc000
 80006a0:	60bb      	str	r3, [r7, #8]
 80006a2:	68bb      	ldr	r3, [r7, #8]

  while(!__HAL_PWR_GET_FLAG(PWR_FLAG_VOSRDY)) {}
 80006a4:	bf00      	nop
 80006a6:	4b47      	ldr	r3, [pc, #284]	@ (80007c4 <SystemClock_Config+0x180>)
 80006a8:	699b      	ldr	r3, [r3, #24]
 80006aa:	f403 5300 	and.w	r3, r3, #8192	@ 0x2000
 80006ae:	f5b3 5f00 	cmp.w	r3, #8192	@ 0x2000
 80006b2:	d1f8      	bne.n	80006a6 <SystemClock_Config+0x62>

  /** Configure LSE Drive Capability
  */
  HAL_PWR_EnableBkUpAccess();
 80006b4:	f005 fcd2 	bl	800605c <HAL_PWR_EnableBkUpAccess>
  __HAL_RCC_LSEDRIVE_CONFIG(RCC_LSEDRIVE_LOW);
 80006b8:	4b41      	ldr	r3, [pc, #260]	@ (80007c0 <SystemClock_Config+0x17c>)
 80006ba:	6f1b      	ldr	r3, [r3, #112]	@ 0x70
 80006bc:	4a40      	ldr	r2, [pc, #256]	@ (80007c0 <SystemClock_Config+0x17c>)
 80006be:	f023 0318 	bic.w	r3, r3, #24
 80006c2:	6713      	str	r3, [r2, #112]	@ 0x70

  /** Initializes the RCC Oscillators according to the specified parameters
  * in the RCC_OscInitTypeDef structure.
  */
  RCC_OscInitStruct.OscillatorType = RCC_OSCILLATORTYPE_HSI48|RCC_OSCILLATORTYPE_HSI
 80006c4:	2327      	movs	r3, #39	@ 0x27
 80006c6:	647b      	str	r3, [r7, #68]	@ 0x44
                              |RCC_OSCILLATORTYPE_HSE|RCC_OSCILLATORTYPE_LSE;
  RCC_OscInitStruct.HSEState = RCC_HSE_ON;
 80006c8:	f44f 3380 	mov.w	r3, #65536	@ 0x10000
 80006cc:	64bb      	str	r3, [r7, #72]	@ 0x48
  RCC_OscInitStruct.LSEState = RCC_LSE_ON;
 80006ce:	2301      	movs	r3, #1
 80006d0:	64fb      	str	r3, [r7, #76]	@ 0x4c
  RCC_OscInitStruct.HSIState = RCC_HSI_DIV1;
 80006d2:	2301      	movs	r3, #1
 80006d4:	653b      	str	r3, [r7, #80]	@ 0x50
  RCC_OscInitStruct.HSICalibrationValue = 64;
 80006d6:	2340      	movs	r3, #64	@ 0x40
 80006d8:	657b      	str	r3, [r7, #84]	@ 0x54
  RCC_OscInitStruct.HSI48State = RCC_HSI48_ON;
 80006da:	2301      	movs	r3, #1
 80006dc:	65fb      	str	r3, [r7, #92]	@ 0x5c
  RCC_OscInitStruct.PLL.PLLState = RCC_PLL_ON;
 80006de:	2302      	movs	r3, #2
 80006e0:	66bb      	str	r3, [r7, #104]	@ 0x68
  RCC_OscInitStruct.PLL.PLLSource = RCC_PLLSOURCE_HSE;
 80006e2:	2302      	movs	r3, #2
 80006e4:	66fb      	str	r3, [r7, #108]	@ 0x6c
  RCC_OscInitStruct.PLL.PLLM = 1;
 80006e6:	2301      	movs	r3, #1
 80006e8:	673b      	str	r3, [r7, #112]	@ 0x70
  RCC_OscInitStruct.PLL.PLLN = 70;
 80006ea:	2346      	movs	r3, #70	@ 0x46
 80006ec:	677b      	str	r3, [r7, #116]	@ 0x74
  RCC_OscInitStruct.PLL.PLLP = 2;
 80006ee:	2302      	movs	r3, #2
 80006f0:	67bb      	str	r3, [r7, #120]	@ 0x78
  RCC_OscInitStruct.PLL.PLLQ = 4;
 80006f2:	2304      	movs	r3, #4
 80006f4:	67fb      	str	r3, [r7, #124]	@ 0x7c
  RCC_OscInitStruct.PLL.PLLR = 2;
 80006f6:	2302      	movs	r3, #2
 80006f8:	f8c7 3080 	str.w	r3, [r7, #128]	@ 0x80
  RCC_OscInitStruct.PLL.PLLRGE = RCC_PLL1VCIRANGE_3;
 80006fc:	230c      	movs	r3, #12
 80006fe:	f8c7 3084 	str.w	r3, [r7, #132]	@ 0x84
  RCC_OscInitStruct.PLL.PLLVCOSEL = RCC_PLL1VCOWIDE;
 8000702:	2300      	movs	r3, #0
 8000704:	f8c7 3088 	str.w	r3, [r7, #136]	@ 0x88
  RCC_OscInitStruct.PLL.PLLFRACN = 0;
 8000708:	2300      	movs	r3, #0
 800070a:	f8c7 308c 	str.w	r3, [r7, #140]	@ 0x8c
  if (HAL_RCC_OscConfig(&RCC_OscInitStruct) != HAL_OK)
 800070e:	f107 0344 	add.w	r3, r7, #68	@ 0x44
 8000712:	4618      	mov	r0, r3
 8000714:	f005 fd0c 	bl	8006130 <HAL_RCC_OscConfig>
 8000718:	4603      	mov	r3, r0
 800071a:	2b00      	cmp	r3, #0
 800071c:	d001      	beq.n	8000722 <SystemClock_Config+0xde>
  {
    Error_Handler();
 800071e:	f000 fa9f 	bl	8000c60 <Error_Handler>
  }

  /** Initializes the CPU, AHB and APB buses clocks
  */
  RCC_ClkInitStruct.ClockType = RCC_CLOCKTYPE_HCLK|RCC_CLOCKTYPE_SYSCLK
 8000722:	233f      	movs	r3, #63	@ 0x3f
 8000724:	627b      	str	r3, [r7, #36]	@ 0x24
                              |RCC_CLOCKTYPE_PCLK1|RCC_CLOCKTYPE_PCLK2
                              |RCC_CLOCKTYPE_D3PCLK1|RCC_CLOCKTYPE_D1PCLK1;
  RCC_ClkInitStruct.SYSCLKSource = RCC_SYSCLKSOURCE_PLLCLK;
 8000726:	2303      	movs	r3, #3
 8000728:	62bb      	str	r3, [r7, #40]	@ 0x28
  RCC_ClkInitStruct.SYSCLKDivider = RCC_SYSCLK_DIV1;
 800072a:	2300      	movs	r3, #0
 800072c:	62fb      	str	r3, [r7, #44]	@ 0x2c
  RCC_ClkInitStruct.AHBCLKDivider = RCC_HCLK_DIV1;
 800072e:	2300      	movs	r3, #0
 8000730:	633b      	str	r3, [r7, #48]	@ 0x30
  RCC_ClkInitStruct.APB3CLKDivider = RCC_APB3_DIV2;
 8000732:	2340      	movs	r3, #64	@ 0x40
 8000734:	637b      	str	r3, [r7, #52]	@ 0x34
  RCC_ClkInitStruct.APB1CLKDivider = RCC_APB1_DIV2;
 8000736:	2340      	movs	r3, #64	@ 0x40
 8000738:	63bb      	str	r3, [r7, #56]	@ 0x38
  RCC_ClkInitStruct.APB2CLKDivider = RCC_APB2_DIV2;
 800073a:	f44f 6380 	mov.w	r3, #1024	@ 0x400
 800073e:	63fb      	str	r3, [r7, #60]	@ 0x3c
  RCC_ClkInitStruct.APB4CLKDivider = RCC_APB4_DIV2;
 8000740:	2340      	movs	r3, #64	@ 0x40
 8000742:	643b      	str	r3, [r7, #64]	@ 0x40

  if (HAL_RCC_ClockConfig(&RCC_ClkInitStruct, FLASH_LATENCY_6) != HAL_OK)
 8000744:	f107 0324 	add.w	r3, r7, #36	@ 0x24
 8000748:	2106      	movs	r1, #6
 800074a:	4618      	mov	r0, r3
 800074c:	f006 f922 	bl	8006994 <HAL_RCC_ClockConfig>
 8000750:	4603      	mov	r3, r0
 8000752:	2b00      	cmp	r3, #0
 8000754:	d001      	beq.n	800075a <SystemClock_Config+0x116>
  {
    Error_Handler();
 8000756:	f000 fa83 	bl	8000c60 <Error_Handler>
  }
  HAL_RCC_MCOConfig(RCC_MCO1, RCC_MCO1SOURCE_HSI, RCC_MCODIV_1);
 800075a:	f44f 2280 	mov.w	r2, #262144	@ 0x40000
 800075e:	2100      	movs	r1, #0
 8000760:	2000      	movs	r0, #0
 8000762:	f006 facd 	bl	8006d00 <HAL_RCC_MCOConfig>
  HAL_RCC_MCOConfig(RCC_MCO2, RCC_MCO2SOURCE_SYSCLK, RCC_MCODIV_1);
 8000766:	f44f 2280 	mov.w	r2, #262144	@ 0x40000
 800076a:	2100      	movs	r1, #0
 800076c:	2001      	movs	r0, #1
 800076e:	f006 fac7 	bl	8006d00 <HAL_RCC_MCOConfig>

  /** Enable the SYSCFG APB clock
  */
  __HAL_RCC_CRS_CLK_ENABLE();
 8000772:	4b13      	ldr	r3, [pc, #76]	@ (80007c0 <SystemClock_Config+0x17c>)
 8000774:	f8d3 314c 	ldr.w	r3, [r3, #332]	@ 0x14c
 8000778:	4a11      	ldr	r2, [pc, #68]	@ (80007c0 <SystemClock_Config+0x17c>)
 800077a:	f043 0302 	orr.w	r3, r3, #2
 800077e:	f8c2 314c 	str.w	r3, [r2, #332]	@ 0x14c
 8000782:	4b0f      	ldr	r3, [pc, #60]	@ (80007c0 <SystemClock_Config+0x17c>)
 8000784:	f8d3 314c 	ldr.w	r3, [r3, #332]	@ 0x14c
 8000788:	f003 0302 	and.w	r3, r3, #2
 800078c:	607b      	str	r3, [r7, #4]
 800078e:	687b      	ldr	r3, [r7, #4]

  /** Configures CRS
  */
  RCC_CRSInitStruct.Prescaler = RCC_CRS_SYNC_DIV1;
 8000790:	2300      	movs	r3, #0
 8000792:	60fb      	str	r3, [r7, #12]
  RCC_CRSInitStruct.Source = RCC_CRS_SYNC_SOURCE_LSE;
 8000794:	f04f 5380 	mov.w	r3, #268435456	@ 0x10000000
 8000798:	613b      	str	r3, [r7, #16]
  RCC_CRSInitStruct.Polarity = RCC_CRS_SYNC_POLARITY_RISING;
 800079a:	2300      	movs	r3, #0
 800079c:	617b      	str	r3, [r7, #20]
  RCC_CRSInitStruct.ReloadValue = __HAL_RCC_CRS_RELOADVALUE_CALCULATE(48000000,32768);
 800079e:	f240 53b7 	movw	r3, #1463	@ 0x5b7
 80007a2:	61bb      	str	r3, [r7, #24]
  RCC_CRSInitStruct.ErrorLimitValue = 34;
 80007a4:	2322      	movs	r3, #34	@ 0x22
 80007a6:	61fb      	str	r3, [r7, #28]
  RCC_CRSInitStruct.HSI48CalibrationValue = 32;
 80007a8:	2320      	movs	r3, #32
 80007aa:	623b      	str	r3, [r7, #32]

  HAL_RCCEx_CRSConfig(&RCC_CRSInitStruct);
 80007ac:	f107 030c 	add.w	r3, r7, #12
 80007b0:	4618      	mov	r0, r3
 80007b2:	f008 ff8b 	bl	80096cc <HAL_RCCEx_CRSConfig>
}
 80007b6:	bf00      	nop
 80007b8:	3790      	adds	r7, #144	@ 0x90
 80007ba:	46bd      	mov	sp, r7
 80007bc:	bd80      	pop	{r7, pc}
 80007be:	bf00      	nop
 80007c0:	58024400 	.word	0x58024400
 80007c4:	58024800 	.word	0x58024800

080007c8 <PeriphCommonClock_Config>:
/**
  * @brief Peripherals Common Clock Configuration
  * @retval None
  */
void PeriphCommonClock_Config(void)
{
 80007c8:	b580      	push	{r7, lr}
 80007ca:	b0b0      	sub	sp, #192	@ 0xc0
 80007cc:	af00      	add	r7, sp, #0
  RCC_PeriphCLKInitTypeDef PeriphClkInitStruct = {0};
 80007ce:	463b      	mov	r3, r7
 80007d0:	22c0      	movs	r2, #192	@ 0xc0
 80007d2:	2100      	movs	r1, #0
 80007d4:	4618      	mov	r0, r3
 80007d6:	f00a ff4b 	bl	800b670 <memset>

  /** Initializes the peripherals clock
  */
  PeriphClkInitStruct.PeriphClockSelection = RCC_PERIPHCLK_ADC;
 80007da:	f44f 2200 	mov.w	r2, #524288	@ 0x80000
 80007de:	f04f 0300 	mov.w	r3, #0
 80007e2:	e9c7 2300 	strd	r2, r3, [r7]
  PeriphClkInitStruct.PLL2.PLL2M = 1;
 80007e6:	2301      	movs	r3, #1
 80007e8:	60bb      	str	r3, [r7, #8]
  PeriphClkInitStruct.PLL2.PLL2N = 18;
 80007ea:	2312      	movs	r3, #18
 80007ec:	60fb      	str	r3, [r7, #12]
  PeriphClkInitStruct.PLL2.PLL2P = 3;
 80007ee:	2303      	movs	r3, #3
 80007f0:	613b      	str	r3, [r7, #16]
  PeriphClkInitStruct.PLL2.PLL2Q = 2;
 80007f2:	2302      	movs	r3, #2
 80007f4:	617b      	str	r3, [r7, #20]
  PeriphClkInitStruct.PLL2.PLL2R = 2;
 80007f6:	2302      	movs	r3, #2
 80007f8:	61bb      	str	r3, [r7, #24]
  PeriphClkInitStruct.PLL2.PLL2RGE = RCC_PLL2VCIRANGE_3;
 80007fa:	23c0      	movs	r3, #192	@ 0xc0
 80007fc:	61fb      	str	r3, [r7, #28]
  PeriphClkInitStruct.PLL2.PLL2VCOSEL = RCC_PLL2VCOWIDE;
 80007fe:	2300      	movs	r3, #0
 8000800:	623b      	str	r3, [r7, #32]
  PeriphClkInitStruct.PLL2.PLL2FRACN = 6144;
 8000802:	f44f 53c0 	mov.w	r3, #6144	@ 0x1800
 8000806:	627b      	str	r3, [r7, #36]	@ 0x24
  PeriphClkInitStruct.AdcClockSelection = RCC_ADCCLKSOURCE_PLL2;
 8000808:	2300      	movs	r3, #0
 800080a:	f8c7 30ac 	str.w	r3, [r7, #172]	@ 0xac
  if (HAL_RCCEx_PeriphCLKConfig(&PeriphClkInitStruct) != HAL_OK)
 800080e:	463b      	mov	r3, r7
 8000810:	4618      	mov	r0, r3
 8000812:	f006 fcb5 	bl	8007180 <HAL_RCCEx_PeriphCLKConfig>
 8000816:	4603      	mov	r3, r0
 8000818:	2b00      	cmp	r3, #0
 800081a:	d001      	beq.n	8000820 <PeriphCommonClock_Config+0x58>
  {
    Error_Handler();
 800081c:	f000 fa20 	bl	8000c60 <Error_Handler>
  }
}
 8000820:	bf00      	nop
 8000822:	37c0      	adds	r7, #192	@ 0xc0
 8000824:	46bd      	mov	sp, r7
 8000826:	bd80      	pop	{r7, pc}

08000828 <MX_ADC1_Init>:
  * @brief ADC1 Initialization Function
  * @param None
  * @retval None
  */
static void MX_ADC1_Init(void)
{
 8000828:	b580      	push	{r7, lr}
 800082a:	b08a      	sub	sp, #40	@ 0x28
 800082c:	af00      	add	r7, sp, #0

  /* USER CODE BEGIN ADC1_Init 0 */

  /* USER CODE END ADC1_Init 0 */

  ADC_MultiModeTypeDef multimode = {0};
 800082e:	f107 031c 	add.w	r3, r7, #28
 8000832:	2200      	movs	r2, #0
 8000834:	601a      	str	r2, [r3, #0]
 8000836:	605a      	str	r2, [r3, #4]
 8000838:	609a      	str	r2, [r3, #8]
  ADC_ChannelConfTypeDef sConfig = {0};
 800083a:	463b      	mov	r3, r7
 800083c:	2200      	movs	r2, #0
 800083e:	601a      	str	r2, [r3, #0]
 8000840:	605a      	str	r2, [r3, #4]
 8000842:	609a      	str	r2, [r3, #8]
 8000844:	60da      	str	r2, [r3, #12]
 8000846:	611a      	str	r2, [r3, #16]
 8000848:	615a      	str	r2, [r3, #20]
 800084a:	619a      	str	r2, [r3, #24]

  /* USER CODE END ADC1_Init 1 */

  /** Common config
  */
  hadc1.Instance = ADC1;
 800084c:	4b32      	ldr	r3, [pc, #200]	@ (8000918 <MX_ADC1_Init+0xf0>)
 800084e:	4a33      	ldr	r2, [pc, #204]	@ (800091c <MX_ADC1_Init+0xf4>)
 8000850:	601a      	str	r2, [r3, #0]
  hadc1.Init.ClockPrescaler = ADC_CLOCK_ASYNC_DIV1;
 8000852:	4b31      	ldr	r3, [pc, #196]	@ (8000918 <MX_ADC1_Init+0xf0>)
 8000854:	2200      	movs	r2, #0
 8000856:	605a      	str	r2, [r3, #4]
  hadc1.Init.Resolution = ADC_RESOLUTION_8B;
 8000858:	4b2f      	ldr	r3, [pc, #188]	@ (8000918 <MX_ADC1_Init+0xf0>)
 800085a:	221c      	movs	r2, #28
 800085c:	609a      	str	r2, [r3, #8]
  hadc1.Init.ScanConvMode = ADC_SCAN_DISABLE;
 800085e:	4b2e      	ldr	r3, [pc, #184]	@ (8000918 <MX_ADC1_Init+0xf0>)
 8000860:	2200      	movs	r2, #0
 8000862:	60da      	str	r2, [r3, #12]
  hadc1.Init.EOCSelection = ADC_EOC_SINGLE_CONV;
 8000864:	4b2c      	ldr	r3, [pc, #176]	@ (8000918 <MX_ADC1_Init+0xf0>)
 8000866:	2204      	movs	r2, #4
 8000868:	611a      	str	r2, [r3, #16]
  hadc1.Init.LowPowerAutoWait = DISABLE;
 800086a:	4b2b      	ldr	r3, [pc, #172]	@ (8000918 <MX_ADC1_Init+0xf0>)
 800086c:	2200      	movs	r2, #0
 800086e:	751a      	strb	r2, [r3, #20]
  hadc1.Init.ContinuousConvMode = ENABLE;
 8000870:	4b29      	ldr	r3, [pc, #164]	@ (8000918 <MX_ADC1_Init+0xf0>)
 8000872:	2201      	movs	r2, #1
 8000874:	755a      	strb	r2, [r3, #21]
  hadc1.Init.NbrOfConversion = 1;
 8000876:	4b28      	ldr	r3, [pc, #160]	@ (8000918 <MX_ADC1_Init+0xf0>)
 8000878:	2201      	movs	r2, #1
 800087a:	619a      	str	r2, [r3, #24]
  hadc1.Init.DiscontinuousConvMode = DISABLE;
 800087c:	4b26      	ldr	r3, [pc, #152]	@ (8000918 <MX_ADC1_Init+0xf0>)
 800087e:	2200      	movs	r2, #0
 8000880:	771a      	strb	r2, [r3, #28]
  hadc1.Init.ExternalTrigConv = ADC_SOFTWARE_START;
 8000882:	4b25      	ldr	r3, [pc, #148]	@ (8000918 <MX_ADC1_Init+0xf0>)
 8000884:	2200      	movs	r2, #0
 8000886:	625a      	str	r2, [r3, #36]	@ 0x24
  hadc1.Init.ExternalTrigConvEdge = ADC_EXTERNALTRIGCONVEDGE_NONE;
 8000888:	4b23      	ldr	r3, [pc, #140]	@ (8000918 <MX_ADC1_Init+0xf0>)
 800088a:	2200      	movs	r2, #0
 800088c:	629a      	str	r2, [r3, #40]	@ 0x28
  hadc1.Init.ConversionDataManagement = ADC_CONVERSIONDATA_DMA_CIRCULAR;
 800088e:	4b22      	ldr	r3, [pc, #136]	@ (8000918 <MX_ADC1_Init+0xf0>)
 8000890:	2203      	movs	r2, #3
 8000892:	62da      	str	r2, [r3, #44]	@ 0x2c
  hadc1.Init.Overrun = ADC_OVR_DATA_PRESERVED;
 8000894:	4b20      	ldr	r3, [pc, #128]	@ (8000918 <MX_ADC1_Init+0xf0>)
 8000896:	2200      	movs	r2, #0
 8000898:	631a      	str	r2, [r3, #48]	@ 0x30
  hadc1.Init.LeftBitShift = ADC_LEFTBITSHIFT_NONE;
 800089a:	4b1f      	ldr	r3, [pc, #124]	@ (8000918 <MX_ADC1_Init+0xf0>)
 800089c:	2200      	movs	r2, #0
 800089e:	635a      	str	r2, [r3, #52]	@ 0x34
  hadc1.Init.OversamplingMode = DISABLE;
 80008a0:	4b1d      	ldr	r3, [pc, #116]	@ (8000918 <MX_ADC1_Init+0xf0>)
 80008a2:	2200      	movs	r2, #0
 80008a4:	f883 2038 	strb.w	r2, [r3, #56]	@ 0x38
  if (HAL_ADC_Init(&hadc1) != HAL_OK)
 80008a8:	481b      	ldr	r0, [pc, #108]	@ (8000918 <MX_ADC1_Init+0xf0>)
 80008aa:	f000 fec3 	bl	8001634 <HAL_ADC_Init>
 80008ae:	4603      	mov	r3, r0
 80008b0:	2b00      	cmp	r3, #0
 80008b2:	d001      	beq.n	80008b8 <MX_ADC1_Init+0x90>
  {
    Error_Handler();
 80008b4:	f000 f9d4 	bl	8000c60 <Error_Handler>
  }

  /** Configure the ADC multi-mode
  */
  multimode.Mode = ADC_DUALMODE_INTERL;
 80008b8:	2307      	movs	r3, #7
 80008ba:	61fb      	str	r3, [r7, #28]
  multimode.DualModeData = ADC_DUALMODEDATAFORMAT_8_BITS;
 80008bc:	f44f 4340 	mov.w	r3, #49152	@ 0xc000
 80008c0:	623b      	str	r3, [r7, #32]
  multimode.TwoSamplingDelay = ADC_TWOSAMPLINGDELAY_3CYCLES;
 80008c2:	f44f 7300 	mov.w	r3, #512	@ 0x200
 80008c6:	627b      	str	r3, [r7, #36]	@ 0x24
  if (HAL_ADCEx_MultiModeConfigChannel(&hadc1, &multimode) != HAL_OK)
 80008c8:	f107 031c 	add.w	r3, r7, #28
 80008cc:	4619      	mov	r1, r3
 80008ce:	4812      	ldr	r0, [pc, #72]	@ (8000918 <MX_ADC1_Init+0xf0>)
 80008d0:	f002 f8f8 	bl	8002ac4 <HAL_ADCEx_MultiModeConfigChannel>
 80008d4:	4603      	mov	r3, r0
 80008d6:	2b00      	cmp	r3, #0
 80008d8:	d001      	beq.n	80008de <MX_ADC1_Init+0xb6>
  {
    Error_Handler();
 80008da:	f000 f9c1 	bl	8000c60 <Error_Handler>
  }

  /** Configure Regular Channel
  */
  sConfig.Channel = ADC_CHANNEL_3;
 80008de:	4b10      	ldr	r3, [pc, #64]	@ (8000920 <MX_ADC1_Init+0xf8>)
 80008e0:	603b      	str	r3, [r7, #0]
  sConfig.Rank = ADC_REGULAR_RANK_1;
 80008e2:	2306      	movs	r3, #6
 80008e4:	607b      	str	r3, [r7, #4]
  sConfig.SamplingTime = ADC_SAMPLETIME_1CYCLE_5;
 80008e6:	2300      	movs	r3, #0
 80008e8:	60bb      	str	r3, [r7, #8]
  sConfig.SingleDiff = ADC_SINGLE_ENDED;
 80008ea:	f240 73ff 	movw	r3, #2047	@ 0x7ff
 80008ee:	60fb      	str	r3, [r7, #12]
  sConfig.OffsetNumber = ADC_OFFSET_NONE;
 80008f0:	2304      	movs	r3, #4
 80008f2:	613b      	str	r3, [r7, #16]
  sConfig.Offset = 0;
 80008f4:	2300      	movs	r3, #0
 80008f6:	617b      	str	r3, [r7, #20]
  sConfig.OffsetSignedSaturation = DISABLE;
 80008f8:	2300      	movs	r3, #0
 80008fa:	767b      	strb	r3, [r7, #25]
  if (HAL_ADC_ConfigChannel(&hadc1, &sConfig) != HAL_OK)
 80008fc:	463b      	mov	r3, r7
 80008fe:	4619      	mov	r1, r3
 8000900:	4805      	ldr	r0, [pc, #20]	@ (8000918 <MX_ADC1_Init+0xf0>)
 8000902:	f001 fad9 	bl	8001eb8 <HAL_ADC_ConfigChannel>
 8000906:	4603      	mov	r3, r0
 8000908:	2b00      	cmp	r3, #0
 800090a:	d001      	beq.n	8000910 <MX_ADC1_Init+0xe8>
  {
    Error_Handler();
 800090c:	f000 f9a8 	bl	8000c60 <Error_Handler>
  }
  /* USER CODE BEGIN ADC1_Init 2 */

  /* USER CODE END ADC1_Init 2 */

}
 8000910:	bf00      	nop
 8000912:	3728      	adds	r7, #40	@ 0x28
 8000914:	46bd      	mov	sp, r7
 8000916:	bd80      	pop	{r7, pc}
 8000918:	2400002c 	.word	0x2400002c
 800091c:	40022000 	.word	0x40022000
 8000920:	0c900008 	.word	0x0c900008

08000924 <MX_ADC2_Init>:
  * @brief ADC2 Initialization Function
  * @param None
  * @retval None
  */
static void MX_ADC2_Init(void)
{
 8000924:	b580      	push	{r7, lr}
 8000926:	b088      	sub	sp, #32
 8000928:	af00      	add	r7, sp, #0

  /* USER CODE BEGIN ADC2_Init 0 */

  /* USER CODE END ADC2_Init 0 */

  ADC_ChannelConfTypeDef sConfig = {0};
 800092a:	1d3b      	adds	r3, r7, #4
 800092c:	2200      	movs	r2, #0
 800092e:	601a      	str	r2, [r3, #0]
 8000930:	605a      	str	r2, [r3, #4]
 8000932:	609a      	str	r2, [r3, #8]
 8000934:	60da      	str	r2, [r3, #12]
 8000936:	611a      	str	r2, [r3, #16]
 8000938:	615a      	str	r2, [r3, #20]
 800093a:	619a      	str	r2, [r3, #24]

  /* USER CODE END ADC2_Init 1 */

  /** Common config
  */
  hadc2.Instance = ADC2;
 800093c:	4b26      	ldr	r3, [pc, #152]	@ (80009d8 <MX_ADC2_Init+0xb4>)
 800093e:	4a27      	ldr	r2, [pc, #156]	@ (80009dc <MX_ADC2_Init+0xb8>)
 8000940:	601a      	str	r2, [r3, #0]
  hadc2.Init.ClockPrescaler = ADC_CLOCK_ASYNC_DIV1;
 8000942:	4b25      	ldr	r3, [pc, #148]	@ (80009d8 <MX_ADC2_Init+0xb4>)
 8000944:	2200      	movs	r2, #0
 8000946:	605a      	str	r2, [r3, #4]
  hadc2.Init.Resolution = ADC_RESOLUTION_16B;
 8000948:	4b23      	ldr	r3, [pc, #140]	@ (80009d8 <MX_ADC2_Init+0xb4>)
 800094a:	2200      	movs	r2, #0
 800094c:	609a      	str	r2, [r3, #8]
  hadc2.Init.ScanConvMode = ADC_SCAN_DISABLE;
 800094e:	4b22      	ldr	r3, [pc, #136]	@ (80009d8 <MX_ADC2_Init+0xb4>)
 8000950:	2200      	movs	r2, #0
 8000952:	60da      	str	r2, [r3, #12]
  hadc2.Init.EOCSelection = ADC_EOC_SINGLE_CONV;
 8000954:	4b20      	ldr	r3, [pc, #128]	@ (80009d8 <MX_ADC2_Init+0xb4>)
 8000956:	2204      	movs	r2, #4
 8000958:	611a      	str	r2, [r3, #16]
  hadc2.Init.LowPowerAutoWait = DISABLE;
 800095a:	4b1f      	ldr	r3, [pc, #124]	@ (80009d8 <MX_ADC2_Init+0xb4>)
 800095c:	2200      	movs	r2, #0
 800095e:	751a      	strb	r2, [r3, #20]
  hadc2.Init.ContinuousConvMode = ENABLE;
 8000960:	4b1d      	ldr	r3, [pc, #116]	@ (80009d8 <MX_ADC2_Init+0xb4>)
 8000962:	2201      	movs	r2, #1
 8000964:	755a      	strb	r2, [r3, #21]
  hadc2.Init.NbrOfConversion = 1;
 8000966:	4b1c      	ldr	r3, [pc, #112]	@ (80009d8 <MX_ADC2_Init+0xb4>)
 8000968:	2201      	movs	r2, #1
 800096a:	619a      	str	r2, [r3, #24]
  hadc2.Init.DiscontinuousConvMode = DISABLE;
 800096c:	4b1a      	ldr	r3, [pc, #104]	@ (80009d8 <MX_ADC2_Init+0xb4>)
 800096e:	2200      	movs	r2, #0
 8000970:	771a      	strb	r2, [r3, #28]
  hadc2.Init.ConversionDataManagement = ADC_CONVERSIONDATA_DR;
 8000972:	4b19      	ldr	r3, [pc, #100]	@ (80009d8 <MX_ADC2_Init+0xb4>)
 8000974:	2200      	movs	r2, #0
 8000976:	62da      	str	r2, [r3, #44]	@ 0x2c
  hadc2.Init.Overrun = ADC_OVR_DATA_PRESERVED;
 8000978:	4b17      	ldr	r3, [pc, #92]	@ (80009d8 <MX_ADC2_Init+0xb4>)
 800097a:	2200      	movs	r2, #0
 800097c:	631a      	str	r2, [r3, #48]	@ 0x30
  hadc2.Init.LeftBitShift = ADC_LEFTBITSHIFT_NONE;
 800097e:	4b16      	ldr	r3, [pc, #88]	@ (80009d8 <MX_ADC2_Init+0xb4>)
 8000980:	2200      	movs	r2, #0
 8000982:	635a      	str	r2, [r3, #52]	@ 0x34
  hadc2.Init.OversamplingMode = DISABLE;
 8000984:	4b14      	ldr	r3, [pc, #80]	@ (80009d8 <MX_ADC2_Init+0xb4>)
 8000986:	2200      	movs	r2, #0
 8000988:	f883 2038 	strb.w	r2, [r3, #56]	@ 0x38
  if (HAL_ADC_Init(&hadc2) != HAL_OK)
 800098c:	4812      	ldr	r0, [pc, #72]	@ (80009d8 <MX_ADC2_Init+0xb4>)
 800098e:	f000 fe51 	bl	8001634 <HAL_ADC_Init>
 8000992:	4603      	mov	r3, r0
 8000994:	2b00      	cmp	r3, #0
 8000996:	d001      	beq.n	800099c <MX_ADC2_Init+0x78>
  {
    Error_Handler();
 8000998:	f000 f962 	bl	8000c60 <Error_Handler>
  }

  /** Configure Regular Channel
  */
  sConfig.Channel = ADC_CHANNEL_3;
 800099c:	4b10      	ldr	r3, [pc, #64]	@ (80009e0 <MX_ADC2_Init+0xbc>)
 800099e:	607b      	str	r3, [r7, #4]
  sConfig.Rank = ADC_REGULAR_RANK_1;
 80009a0:	2306      	movs	r3, #6
 80009a2:	60bb      	str	r3, [r7, #8]
  sConfig.SamplingTime = ADC_SAMPLETIME_1CYCLE_5;
 80009a4:	2300      	movs	r3, #0
 80009a6:	60fb      	str	r3, [r7, #12]
  sConfig.SingleDiff = ADC_SINGLE_ENDED;
 80009a8:	f240 73ff 	movw	r3, #2047	@ 0x7ff
 80009ac:	613b      	str	r3, [r7, #16]
  sConfig.OffsetNumber = ADC_OFFSET_NONE;
 80009ae:	2304      	movs	r3, #4
 80009b0:	617b      	str	r3, [r7, #20]
  sConfig.Offset = 0;
 80009b2:	2300      	movs	r3, #0
 80009b4:	61bb      	str	r3, [r7, #24]
  sConfig.OffsetSignedSaturation = DISABLE;
 80009b6:	2300      	movs	r3, #0
 80009b8:	777b      	strb	r3, [r7, #29]
  if (HAL_ADC_ConfigChannel(&hadc2, &sConfig) != HAL_OK)
 80009ba:	1d3b      	adds	r3, r7, #4
 80009bc:	4619      	mov	r1, r3
 80009be:	4806      	ldr	r0, [pc, #24]	@ (80009d8 <MX_ADC2_Init+0xb4>)
 80009c0:	f001 fa7a 	bl	8001eb8 <HAL_ADC_ConfigChannel>
 80009c4:	4603      	mov	r3, r0
 80009c6:	2b00      	cmp	r3, #0
 80009c8:	d001      	beq.n	80009ce <MX_ADC2_Init+0xaa>
  {
    Error_Handler();
 80009ca:	f000 f949 	bl	8000c60 <Error_Handler>
  }
  /* USER CODE BEGIN ADC2_Init 2 */

  /* USER CODE END ADC2_Init 2 */

}
 80009ce:	bf00      	nop
 80009d0:	3720      	adds	r7, #32
 80009d2:	46bd      	mov	sp, r7
 80009d4:	bd80      	pop	{r7, pc}
 80009d6:	bf00      	nop
 80009d8:	24000090 	.word	0x24000090
 80009dc:	40022100 	.word	0x40022100
 80009e0:	0c900008 	.word	0x0c900008

080009e4 <MX_USART3_UART_Init>:
  * @brief USART3 Initialization Function
  * @param None
  * @retval None
  */
static void MX_USART3_UART_Init(void)
{
 80009e4:	b580      	push	{r7, lr}
 80009e6:	af00      	add	r7, sp, #0
  /* USER CODE END USART3_Init 0 */

  /* USER CODE BEGIN USART3_Init 1 */

  /* USER CODE END USART3_Init 1 */
  huart3.Instance = USART3;
 80009e8:	4b22      	ldr	r3, [pc, #136]	@ (8000a74 <MX_USART3_UART_Init+0x90>)
 80009ea:	4a23      	ldr	r2, [pc, #140]	@ (8000a78 <MX_USART3_UART_Init+0x94>)
 80009ec:	601a      	str	r2, [r3, #0]
  huart3.Init.BaudRate = 115200;
 80009ee:	4b21      	ldr	r3, [pc, #132]	@ (8000a74 <MX_USART3_UART_Init+0x90>)
 80009f0:	f44f 32e1 	mov.w	r2, #115200	@ 0x1c200
 80009f4:	605a      	str	r2, [r3, #4]
  huart3.Init.WordLength = UART_WORDLENGTH_8B;
 80009f6:	4b1f      	ldr	r3, [pc, #124]	@ (8000a74 <MX_USART3_UART_Init+0x90>)
 80009f8:	2200      	movs	r2, #0
 80009fa:	609a      	str	r2, [r3, #8]
  huart3.Init.StopBits = UART_STOPBITS_1;
 80009fc:	4b1d      	ldr	r3, [pc, #116]	@ (8000a74 <MX_USART3_UART_Init+0x90>)
 80009fe:	2200      	movs	r2, #0
 8000a00:	60da      	str	r2, [r3, #12]
  huart3.Init.Parity = UART_PARITY_NONE;
 8000a02:	4b1c      	ldr	r3, [pc, #112]	@ (8000a74 <MX_USART3_UART_Init+0x90>)
 8000a04:	2200      	movs	r2, #0
 8000a06:	611a      	str	r2, [r3, #16]
  huart3.Init.Mode = UART_MODE_TX_RX;
 8000a08:	4b1a      	ldr	r3, [pc, #104]	@ (8000a74 <MX_USART3_UART_Init+0x90>)
 8000a0a:	220c      	movs	r2, #12
 8000a0c:	615a      	str	r2, [r3, #20]
  huart3.Init.HwFlowCtl = UART_HWCONTROL_NONE;
 8000a0e:	4b19      	ldr	r3, [pc, #100]	@ (8000a74 <MX_USART3_UART_Init+0x90>)
 8000a10:	2200      	movs	r2, #0
 8000a12:	619a      	str	r2, [r3, #24]
  huart3.Init.OverSampling = UART_OVERSAMPLING_16;
 8000a14:	4b17      	ldr	r3, [pc, #92]	@ (8000a74 <MX_USART3_UART_Init+0x90>)
 8000a16:	2200      	movs	r2, #0
 8000a18:	61da      	str	r2, [r3, #28]
  huart3.Init.OneBitSampling = UART_ONE_BIT_SAMPLE_DISABLE;
 8000a1a:	4b16      	ldr	r3, [pc, #88]	@ (8000a74 <MX_USART3_UART_Init+0x90>)
 8000a1c:	2200      	movs	r2, #0
 8000a1e:	621a      	str	r2, [r3, #32]
  huart3.Init.ClockPrescaler = UART_PRESCALER_DIV1;
 8000a20:	4b14      	ldr	r3, [pc, #80]	@ (8000a74 <MX_USART3_UART_Init+0x90>)
 8000a22:	2200      	movs	r2, #0
 8000a24:	625a      	str	r2, [r3, #36]	@ 0x24
  huart3.AdvancedInit.AdvFeatureInit = UART_ADVFEATURE_NO_INIT;
 8000a26:	4b13      	ldr	r3, [pc, #76]	@ (8000a74 <MX_USART3_UART_Init+0x90>)
 8000a28:	2200      	movs	r2, #0
 8000a2a:	629a      	str	r2, [r3, #40]	@ 0x28
  if (HAL_UART_Init(&huart3) != HAL_OK)
 8000a2c:	4811      	ldr	r0, [pc, #68]	@ (8000a74 <MX_USART3_UART_Init+0x90>)
 8000a2e:	f009 f807 	bl	8009a40 <HAL_UART_Init>
 8000a32:	4603      	mov	r3, r0
 8000a34:	2b00      	cmp	r3, #0
 8000a36:	d001      	beq.n	8000a3c <MX_USART3_UART_Init+0x58>
  {
    Error_Handler();
 8000a38:	f000 f912 	bl	8000c60 <Error_Handler>
  }
  if (HAL_UARTEx_SetTxFifoThreshold(&huart3, UART_TXFIFO_THRESHOLD_1_8) != HAL_OK)
 8000a3c:	2100      	movs	r1, #0
 8000a3e:	480d      	ldr	r0, [pc, #52]	@ (8000a74 <MX_USART3_UART_Init+0x90>)
 8000a40:	f00a fd4c 	bl	800b4dc <HAL_UARTEx_SetTxFifoThreshold>
 8000a44:	4603      	mov	r3, r0
 8000a46:	2b00      	cmp	r3, #0
 8000a48:	d001      	beq.n	8000a4e <MX_USART3_UART_Init+0x6a>
  {
    Error_Handler();
 8000a4a:	f000 f909 	bl	8000c60 <Error_Handler>
  }
  if (HAL_UARTEx_SetRxFifoThreshold(&huart3, UART_RXFIFO_THRESHOLD_1_8) != HAL_OK)
 8000a4e:	2100      	movs	r1, #0
 8000a50:	4808      	ldr	r0, [pc, #32]	@ (8000a74 <MX_USART3_UART_Init+0x90>)
 8000a52:	f00a fd81 	bl	800b558 <HAL_UARTEx_SetRxFifoThreshold>
 8000a56:	4603      	mov	r3, r0
 8000a58:	2b00      	cmp	r3, #0
 8000a5a:	d001      	beq.n	8000a60 <MX_USART3_UART_Init+0x7c>
  {
    Error_Handler();
 8000a5c:	f000 f900 	bl	8000c60 <Error_Handler>
  }
  if (HAL_UARTEx_DisableFifoMode(&huart3) != HAL_OK)
 8000a60:	4804      	ldr	r0, [pc, #16]	@ (8000a74 <MX_USART3_UART_Init+0x90>)
 8000a62:	f00a fd02 	bl	800b46a <HAL_UARTEx_DisableFifoMode>
 8000a66:	4603      	mov	r3, r0
 8000a68:	2b00      	cmp	r3, #0
 8000a6a:	d001      	beq.n	8000a70 <MX_USART3_UART_Init+0x8c>
  {
    Error_Handler();
 8000a6c:	f000 f8f8 	bl	8000c60 <Error_Handler>
  }
  /* USER CODE BEGIN USART3_Init 2 */

  /* USER CODE END USART3_Init 2 */

}
 8000a70:	bf00      	nop
 8000a72:	bd80      	pop	{r7, pc}
 8000a74:	2400016c 	.word	0x2400016c
 8000a78:	40004800 	.word	0x40004800

08000a7c <MX_DMA_Init>:

/**
  * Enable DMA controller clock
  */
static void MX_DMA_Init(void)
{
 8000a7c:	b580      	push	{r7, lr}
 8000a7e:	b082      	sub	sp, #8
 8000a80:	af00      	add	r7, sp, #0

  /* DMA controller clock enable */
  __HAL_RCC_DMA1_CLK_ENABLE();
 8000a82:	4b0d      	ldr	r3, [pc, #52]	@ (8000ab8 <MX_DMA_Init+0x3c>)
 8000a84:	f8d3 3138 	ldr.w	r3, [r3, #312]	@ 0x138
 8000a88:	4a0b      	ldr	r2, [pc, #44]	@ (8000ab8 <MX_DMA_Init+0x3c>)
 8000a8a:	f043 0301 	orr.w	r3, r3, #1
 8000a8e:	f8c2 3138 	str.w	r3, [r2, #312]	@ 0x138
 8000a92:	4b09      	ldr	r3, [pc, #36]	@ (8000ab8 <MX_DMA_Init+0x3c>)
 8000a94:	f8d3 3138 	ldr.w	r3, [r3, #312]	@ 0x138
 8000a98:	f003 0301 	and.w	r3, r3, #1
 8000a9c:	607b      	str	r3, [r7, #4]
 8000a9e:	687b      	ldr	r3, [r7, #4]

  /* DMA interrupt init */
  /* DMA1_Stream0_IRQn interrupt configuration */
  HAL_NVIC_SetPriority(DMA1_Stream0_IRQn, 0, 0);
 8000aa0:	2200      	movs	r2, #0
 8000aa2:	2100      	movs	r1, #0
 8000aa4:	200b      	movs	r0, #11
 8000aa6:	f002 f984 	bl	8002db2 <HAL_NVIC_SetPriority>
  HAL_NVIC_EnableIRQ(DMA1_Stream0_IRQn);
 8000aaa:	200b      	movs	r0, #11
 8000aac:	f002 f99b 	bl	8002de6 <HAL_NVIC_EnableIRQ>

}
 8000ab0:	bf00      	nop
 8000ab2:	3708      	adds	r7, #8
 8000ab4:	46bd      	mov	sp, r7
 8000ab6:	bd80      	pop	{r7, pc}
 8000ab8:	58024400 	.word	0x58024400

08000abc <MX_GPIO_Init>:
  * @brief GPIO Initialization Function
  * @param None
  * @retval None
  */
static void MX_GPIO_Init(void)
{
 8000abc:	b580      	push	{r7, lr}
 8000abe:	b08a      	sub	sp, #40	@ 0x28
 8000ac0:	af00      	add	r7, sp, #0
  GPIO_InitTypeDef GPIO_InitStruct = {0};
 8000ac2:	f107 0314 	add.w	r3, r7, #20
 8000ac6:	2200      	movs	r2, #0
 8000ac8:	601a      	str	r2, [r3, #0]
 8000aca:	605a      	str	r2, [r3, #4]
 8000acc:	609a      	str	r2, [r3, #8]
 8000ace:	60da      	str	r2, [r3, #12]
 8000ad0:	611a      	str	r2, [r3, #16]
/* USER CODE BEGIN MX_GPIO_Init_1 */
/* USER CODE END MX_GPIO_Init_1 */

  /* GPIO Ports Clock Enable */
  __HAL_RCC_GPIOC_CLK_ENABLE();
 8000ad2:	4b3a      	ldr	r3, [pc, #232]	@ (8000bbc <MX_GPIO_Init+0x100>)
 8000ad4:	f8d3 3140 	ldr.w	r3, [r3, #320]	@ 0x140
 8000ad8:	4a38      	ldr	r2, [pc, #224]	@ (8000bbc <MX_GPIO_Init+0x100>)
 8000ada:	f043 0304 	orr.w	r3, r3, #4
 8000ade:	f8c2 3140 	str.w	r3, [r2, #320]	@ 0x140
 8000ae2:	4b36      	ldr	r3, [pc, #216]	@ (8000bbc <MX_GPIO_Init+0x100>)
 8000ae4:	f8d3 3140 	ldr.w	r3, [r3, #320]	@ 0x140
 8000ae8:	f003 0304 	and.w	r3, r3, #4
 8000aec:	613b      	str	r3, [r7, #16]
 8000aee:	693b      	ldr	r3, [r7, #16]
  __HAL_RCC_GPIOH_CLK_ENABLE();
 8000af0:	4b32      	ldr	r3, [pc, #200]	@ (8000bbc <MX_GPIO_Init+0x100>)
 8000af2:	f8d3 3140 	ldr.w	r3, [r3, #320]	@ 0x140
 8000af6:	4a31      	ldr	r2, [pc, #196]	@ (8000bbc <MX_GPIO_Init+0x100>)
 8000af8:	f043 0380 	orr.w	r3, r3, #128	@ 0x80
 8000afc:	f8c2 3140 	str.w	r3, [r2, #320]	@ 0x140
 8000b00:	4b2e      	ldr	r3, [pc, #184]	@ (8000bbc <MX_GPIO_Init+0x100>)
 8000b02:	f8d3 3140 	ldr.w	r3, [r3, #320]	@ 0x140
 8000b06:	f003 0380 	and.w	r3, r3, #128	@ 0x80
 8000b0a:	60fb      	str	r3, [r7, #12]
 8000b0c:	68fb      	ldr	r3, [r7, #12]
  __HAL_RCC_GPIOA_CLK_ENABLE();
 8000b0e:	4b2b      	ldr	r3, [pc, #172]	@ (8000bbc <MX_GPIO_Init+0x100>)
 8000b10:	f8d3 3140 	ldr.w	r3, [r3, #320]	@ 0x140
 8000b14:	4a29      	ldr	r2, [pc, #164]	@ (8000bbc <MX_GPIO_Init+0x100>)
 8000b16:	f043 0301 	orr.w	r3, r3, #1
 8000b1a:	f8c2 3140 	str.w	r3, [r2, #320]	@ 0x140
 8000b1e:	4b27      	ldr	r3, [pc, #156]	@ (8000bbc <MX_GPIO_Init+0x100>)
 8000b20:	f8d3 3140 	ldr.w	r3, [r3, #320]	@ 0x140
 8000b24:	f003 0301 	and.w	r3, r3, #1
 8000b28:	60bb      	str	r3, [r7, #8]
 8000b2a:	68bb      	ldr	r3, [r7, #8]
  __HAL_RCC_GPIOD_CLK_ENABLE();
 8000b2c:	4b23      	ldr	r3, [pc, #140]	@ (8000bbc <MX_GPIO_Init+0x100>)
 8000b2e:	f8d3 3140 	ldr.w	r3, [r3, #320]	@ 0x140
 8000b32:	4a22      	ldr	r2, [pc, #136]	@ (8000bbc <MX_GPIO_Init+0x100>)
 8000b34:	f043 0308 	orr.w	r3, r3, #8
 8000b38:	f8c2 3140 	str.w	r3, [r2, #320]	@ 0x140
 8000b3c:	4b1f      	ldr	r3, [pc, #124]	@ (8000bbc <MX_GPIO_Init+0x100>)
 8000b3e:	f8d3 3140 	ldr.w	r3, [r3, #320]	@ 0x140
 8000b42:	f003 0308 	and.w	r3, r3, #8
 8000b46:	607b      	str	r3, [r7, #4]
 8000b48:	687b      	ldr	r3, [r7, #4]

  /*Configure GPIO pin Output Level */
  HAL_GPIO_WritePin(GPIOA, GPIO_PIN_5, GPIO_PIN_RESET);
 8000b4a:	2200      	movs	r2, #0
 8000b4c:	2120      	movs	r1, #32
 8000b4e:	481c      	ldr	r0, [pc, #112]	@ (8000bc0 <MX_GPIO_Init+0x104>)
 8000b50:	f005 fa6a 	bl	8006028 <HAL_GPIO_WritePin>

  /*Configure GPIO pin : PA5 */
  GPIO_InitStruct.Pin = GPIO_PIN_5;
 8000b54:	2320      	movs	r3, #32
 8000b56:	617b      	str	r3, [r7, #20]
  GPIO_InitStruct.Mode = GPIO_MODE_OUTPUT_PP;
 8000b58:	2301      	movs	r3, #1
 8000b5a:	61bb      	str	r3, [r7, #24]
  GPIO_InitStruct.Pull = GPIO_NOPULL;
 8000b5c:	2300      	movs	r3, #0
 8000b5e:	61fb      	str	r3, [r7, #28]
  GPIO_InitStruct.Speed = GPIO_SPEED_FREQ_VERY_HIGH;
 8000b60:	2303      	movs	r3, #3
 8000b62:	623b      	str	r3, [r7, #32]
  HAL_GPIO_Init(GPIOA, &GPIO_InitStruct);
 8000b64:	f107 0314 	add.w	r3, r7, #20
 8000b68:	4619      	mov	r1, r3
 8000b6a:	4815      	ldr	r0, [pc, #84]	@ (8000bc0 <MX_GPIO_Init+0x104>)
 8000b6c:	f005 f8ac 	bl	8005cc8 <HAL_GPIO_Init>

  /*Configure GPIO pin : PC9 */
  GPIO_InitStruct.Pin = GPIO_PIN_9;
 8000b70:	f44f 7300 	mov.w	r3, #512	@ 0x200
 8000b74:	617b      	str	r3, [r7, #20]
  GPIO_InitStruct.Mode = GPIO_MODE_AF_PP;
 8000b76:	2302      	movs	r3, #2
 8000b78:	61bb      	str	r3, [r7, #24]
  GPIO_InitStruct.Pull = GPIO_NOPULL;
 8000b7a:	2300      	movs	r3, #0
 8000b7c:	61fb      	str	r3, [r7, #28]
  GPIO_InitStruct.Speed = GPIO_SPEED_FREQ_LOW;
 8000b7e:	2300      	movs	r3, #0
 8000b80:	623b      	str	r3, [r7, #32]
  GPIO_InitStruct.Alternate = GPIO_AF0_MCO;
 8000b82:	2300      	movs	r3, #0
 8000b84:	627b      	str	r3, [r7, #36]	@ 0x24
  HAL_GPIO_Init(GPIOC, &GPIO_InitStruct);
 8000b86:	f107 0314 	add.w	r3, r7, #20
 8000b8a:	4619      	mov	r1, r3
 8000b8c:	480d      	ldr	r0, [pc, #52]	@ (8000bc4 <MX_GPIO_Init+0x108>)
 8000b8e:	f005 f89b 	bl	8005cc8 <HAL_GPIO_Init>

  /*Configure GPIO pin : PA8 */
  GPIO_InitStruct.Pin = GPIO_PIN_8;
 8000b92:	f44f 7380 	mov.w	r3, #256	@ 0x100
 8000b96:	617b      	str	r3, [r7, #20]
  GPIO_InitStruct.Mode = GPIO_MODE_AF_PP;
 8000b98:	2302      	movs	r3, #2
 8000b9a:	61bb      	str	r3, [r7, #24]
  GPIO_InitStruct.Pull = GPIO_NOPULL;
 8000b9c:	2300      	movs	r3, #0
 8000b9e:	61fb      	str	r3, [r7, #28]
  GPIO_InitStruct.Speed = GPIO_SPEED_FREQ_LOW;
 8000ba0:	2300      	movs	r3, #0
 8000ba2:	623b      	str	r3, [r7, #32]
  GPIO_InitStruct.Alternate = GPIO_AF0_MCO;
 8000ba4:	2300      	movs	r3, #0
 8000ba6:	627b      	str	r3, [r7, #36]	@ 0x24
  HAL_GPIO_Init(GPIOA, &GPIO_InitStruct);
 8000ba8:	f107 0314 	add.w	r3, r7, #20
 8000bac:	4619      	mov	r1, r3
 8000bae:	4804      	ldr	r0, [pc, #16]	@ (8000bc0 <MX_GPIO_Init+0x104>)
 8000bb0:	f005 f88a 	bl	8005cc8 <HAL_GPIO_Init>

/* USER CODE BEGIN MX_GPIO_Init_2 */

/* USER CODE END MX_GPIO_Init_2 */
}
 8000bb4:	bf00      	nop
 8000bb6:	3728      	adds	r7, #40	@ 0x28
 8000bb8:	46bd      	mov	sp, r7
 8000bba:	bd80      	pop	{r7, pc}
 8000bbc:	58024400 	.word	0x58024400
 8000bc0:	58020000 	.word	0x58020000
 8000bc4:	58020800 	.word	0x58020800

08000bc8 <HAL_ADC_ConvHalfCpltCallback>:

/* USER CODE BEGIN 4 */

// Called when first half of buffer is filled
void HAL_ADC_ConvHalfCpltCallback(ADC_HandleTypeDef* hadc) {
 8000bc8:	b580      	push	{r7, lr}
 8000bca:	b082      	sub	sp, #8
 8000bcc:	af00      	add	r7, sp, #0
 8000bce:	6078      	str	r0, [r7, #4]
//  // copies ADC/DMA temp buffer into sample buffer
	HAL_GPIO_WritePin(GPIOA, GPIO_PIN_5, GPIO_PIN_SET);
 8000bd0:	2201      	movs	r2, #1
 8000bd2:	2120      	movs	r1, #32
 8000bd4:	4803      	ldr	r0, [pc, #12]	@ (8000be4 <HAL_ADC_ConvHalfCpltCallback+0x1c>)
 8000bd6:	f005 fa27 	bl	8006028 <HAL_GPIO_WritePin>
//  for(int j = 0; j < ADC_BUF_SIZE/2; j++)
//  {
//	  samples[i] = adcbuf[j];
//	  i++;
//  }
}
 8000bda:	bf00      	nop
 8000bdc:	3708      	adds	r7, #8
 8000bde:	46bd      	mov	sp, r7
 8000be0:	bd80      	pop	{r7, pc}
 8000be2:	bf00      	nop
 8000be4:	58020000 	.word	0x58020000

08000be8 <HAL_ADC_ConvCpltCallback>:

// Called when buffer is completely filled
void HAL_ADC_ConvCpltCallback(ADC_HandleTypeDef* hadc) {
 8000be8:	b580      	push	{r7, lr}
 8000bea:	b082      	sub	sp, #8
 8000bec:	af00      	add	r7, sp, #0
 8000bee:	6078      	str	r0, [r7, #4]
//
	HAL_GPIO_WritePin(GPIOA, GPIO_PIN_5, GPIO_PIN_RESET);
 8000bf0:	2200      	movs	r2, #0
 8000bf2:	2120      	movs	r1, #32
 8000bf4:	4803      	ldr	r0, [pc, #12]	@ (8000c04 <HAL_ADC_ConvCpltCallback+0x1c>)
 8000bf6:	f005 fa17 	bl	8006028 <HAL_GPIO_WritePin>
//  if(i >= SAMPLE_BUF_MULTIPLE * ADC_BUF_SIZE)
//  {
//	  adcflag = SET;
//	  HAL_ADCEx_MultiModeStop_DMA(hadc);
//  }
}
 8000bfa:	bf00      	nop
 8000bfc:	3708      	adds	r7, #8
 8000bfe:	46bd      	mov	sp, r7
 8000c00:	bd80      	pop	{r7, pc}
 8000c02:	bf00      	nop
 8000c04:	58020000 	.word	0x58020000

08000c08 <MPU_Config>:
/* USER CODE END 4 */

 /* MPU Configuration */

void MPU_Config(void)
{
 8000c08:	b580      	push	{r7, lr}
 8000c0a:	b084      	sub	sp, #16
 8000c0c:	af00      	add	r7, sp, #0
  MPU_Region_InitTypeDef MPU_InitStruct = {0};
 8000c0e:	463b      	mov	r3, r7
 8000c10:	2200      	movs	r2, #0
 8000c12:	601a      	str	r2, [r3, #0]
 8000c14:	605a      	str	r2, [r3, #4]
 8000c16:	609a      	str	r2, [r3, #8]
 8000c18:	60da      	str	r2, [r3, #12]

  /* Disables the MPU */
  HAL_MPU_Disable();
 8000c1a:	f002 f8ff 	bl	8002e1c <HAL_MPU_Disable>

  /** Initializes and configures the Region and the memory to be protected
  */
  MPU_InitStruct.Enable = MPU_REGION_ENABLE;
 8000c1e:	2301      	movs	r3, #1
 8000c20:	703b      	strb	r3, [r7, #0]
  MPU_InitStruct.Number = MPU_REGION_NUMBER0;
 8000c22:	2300      	movs	r3, #0
 8000c24:	707b      	strb	r3, [r7, #1]
  MPU_InitStruct.BaseAddress = 0x0;
 8000c26:	2300      	movs	r3, #0
 8000c28:	607b      	str	r3, [r7, #4]
  MPU_InitStruct.Size = MPU_REGION_SIZE_4GB;
 8000c2a:	231f      	movs	r3, #31
 8000c2c:	723b      	strb	r3, [r7, #8]
  MPU_InitStruct.SubRegionDisable = 0x87;
 8000c2e:	2387      	movs	r3, #135	@ 0x87
 8000c30:	727b      	strb	r3, [r7, #9]
  MPU_InitStruct.TypeExtField = MPU_TEX_LEVEL0;
 8000c32:	2300      	movs	r3, #0
 8000c34:	72bb      	strb	r3, [r7, #10]
  MPU_InitStruct.AccessPermission = MPU_REGION_NO_ACCESS;
 8000c36:	2300      	movs	r3, #0
 8000c38:	72fb      	strb	r3, [r7, #11]
  MPU_InitStruct.DisableExec = MPU_INSTRUCTION_ACCESS_DISABLE;
 8000c3a:	2301      	movs	r3, #1
 8000c3c:	733b      	strb	r3, [r7, #12]
  MPU_InitStruct.IsShareable = MPU_ACCESS_SHAREABLE;
 8000c3e:	2301      	movs	r3, #1
 8000c40:	737b      	strb	r3, [r7, #13]
  MPU_InitStruct.IsCacheable = MPU_ACCESS_NOT_CACHEABLE;
 8000c42:	2300      	movs	r3, #0
 8000c44:	73bb      	strb	r3, [r7, #14]
  MPU_InitStruct.IsBufferable = MPU_ACCESS_NOT_BUFFERABLE;
 8000c46:	2300      	movs	r3, #0
 8000c48:	73fb      	strb	r3, [r7, #15]

  HAL_MPU_ConfigRegion(&MPU_InitStruct);
 8000c4a:	463b      	mov	r3, r7
 8000c4c:	4618      	mov	r0, r3
 8000c4e:	f002 f91d 	bl	8002e8c <HAL_MPU_ConfigRegion>
  /* Enables the MPU */
  HAL_MPU_Enable(MPU_PRIVILEGED_DEFAULT);
 8000c52:	2004      	movs	r0, #4
 8000c54:	f002 f8fa 	bl	8002e4c <HAL_MPU_Enable>

}
 8000c58:	bf00      	nop
 8000c5a:	3710      	adds	r7, #16
 8000c5c:	46bd      	mov	sp, r7
 8000c5e:	bd80      	pop	{r7, pc}

08000c60 <Error_Handler>:
/**
  * @brief  This function is executed in case of error occurrence.
  * @retval None
  */
void Error_Handler(void)
{
 8000c60:	b480      	push	{r7}
 8000c62:	af00      	add	r7, sp, #0
  \details Disables IRQ interrupts by setting the I-bit in the CPSR.
           Can only be executed in Privileged modes.
 */
__STATIC_FORCEINLINE void __disable_irq(void)
{
  __ASM volatile ("cpsid i" : : : "memory");
 8000c64:	b672      	cpsid	i
}
 8000c66:	bf00      	nop
  /* USER CODE BEGIN Error_Handler_Debug */
  /* User can add his own implementation to report the HAL error return state */
  __disable_irq();
  while (1)
 8000c68:	bf00      	nop
 8000c6a:	e7fd      	b.n	8000c68 <Error_Handler+0x8>

08000c6c <HAL_MspInit>:
 8000c6c:	b480      	push	{r7}
 8000c6e:	b083      	sub	sp, #12
 8000c70:	af00      	add	r7, sp, #0
 8000c72:	4b0a      	ldr	r3, [pc, #40]	@ (8000c9c <HAL_MspInit+0x30>)
 8000c74:	f8d3 3154 	ldr.w	r3, [r3, #340]	@ 0x154
 8000c78:	4a08      	ldr	r2, [pc, #32]	@ (8000c9c <HAL_MspInit+0x30>)
 8000c7a:	f043 0302 	orr.w	r3, r3, #2
 8000c7e:	f8c2 3154 	str.w	r3, [r2, #340]	@ 0x154
 8000c82:	4b06      	ldr	r3, [pc, #24]	@ (8000c9c <HAL_MspInit+0x30>)
 8000c84:	f8d3 3154 	ldr.w	r3, [r3, #340]	@ 0x154
 8000c88:	f003 0302 	and.w	r3, r3, #2
 8000c8c:	607b      	str	r3, [r7, #4]
 8000c8e:	687b      	ldr	r3, [r7, #4]
 8000c90:	bf00      	nop
 8000c92:	370c      	adds	r7, #12
 8000c94:	46bd      	mov	sp, r7
 8000c96:	f85d 7b04 	ldr.w	r7, [sp], #4
 8000c9a:	4770      	bx	lr
 8000c9c:	58024400 	.word	0x58024400

08000ca0 <HAL_ADC_MspInit>:
 8000ca0:	b580      	push	{r7, lr}
 8000ca2:	b08c      	sub	sp, #48	@ 0x30
 8000ca4:	af00      	add	r7, sp, #0
 8000ca6:	6078      	str	r0, [r7, #4]
 8000ca8:	f107 031c 	add.w	r3, r7, #28
 8000cac:	2200      	movs	r2, #0
 8000cae:	601a      	str	r2, [r3, #0]
 8000cb0:	605a      	str	r2, [r3, #4]
 8000cb2:	609a      	str	r2, [r3, #8]
 8000cb4:	60da      	str	r2, [r3, #12]
 8000cb6:	611a      	str	r2, [r3, #16]
 8000cb8:	687b      	ldr	r3, [r7, #4]
 8000cba:	681b      	ldr	r3, [r3, #0]
 8000cbc:	4a59      	ldr	r2, [pc, #356]	@ (8000e24 <HAL_ADC_MspInit+0x184>)
 8000cbe:	4293      	cmp	r3, r2
 8000cc0:	d16c      	bne.n	8000d9c <HAL_ADC_MspInit+0xfc>
 8000cc2:	4b59      	ldr	r3, [pc, #356]	@ (8000e28 <HAL_ADC_MspInit+0x188>)
 8000cc4:	681b      	ldr	r3, [r3, #0]
 8000cc6:	3301      	adds	r3, #1
 8000cc8:	4a57      	ldr	r2, [pc, #348]	@ (8000e28 <HAL_ADC_MspInit+0x188>)
 8000cca:	6013      	str	r3, [r2, #0]
 8000ccc:	4b56      	ldr	r3, [pc, #344]	@ (8000e28 <HAL_ADC_MspInit+0x188>)
 8000cce:	681b      	ldr	r3, [r3, #0]
 8000cd0:	2b01      	cmp	r3, #1
 8000cd2:	d10e      	bne.n	8000cf2 <HAL_ADC_MspInit+0x52>
 8000cd4:	4b55      	ldr	r3, [pc, #340]	@ (8000e2c <HAL_ADC_MspInit+0x18c>)
 8000cd6:	f8d3 3138 	ldr.w	r3, [r3, #312]	@ 0x138
 8000cda:	4a54      	ldr	r2, [pc, #336]	@ (8000e2c <HAL_ADC_MspInit+0x18c>)
 8000cdc:	f043 0320 	orr.w	r3, r3, #32
 8000ce0:	f8c2 3138 	str.w	r3, [r2, #312]	@ 0x138
 8000ce4:	4b51      	ldr	r3, [pc, #324]	@ (8000e2c <HAL_ADC_MspInit+0x18c>)
 8000ce6:	f8d3 3138 	ldr.w	r3, [r3, #312]	@ 0x138
 8000cea:	f003 0320 	and.w	r3, r3, #32
 8000cee:	61bb      	str	r3, [r7, #24]
 8000cf0:	69bb      	ldr	r3, [r7, #24]
 8000cf2:	4b4e      	ldr	r3, [pc, #312]	@ (8000e2c <HAL_ADC_MspInit+0x18c>)
 8000cf4:	f8d3 3140 	ldr.w	r3, [r3, #320]	@ 0x140
 8000cf8:	4a4c      	ldr	r2, [pc, #304]	@ (8000e2c <HAL_ADC_MspInit+0x18c>)
 8000cfa:	f043 0301 	orr.w	r3, r3, #1
 8000cfe:	f8c2 3140 	str.w	r3, [r2, #320]	@ 0x140
 8000d02:	4b4a      	ldr	r3, [pc, #296]	@ (8000e2c <HAL_ADC_MspInit+0x18c>)
 8000d04:	f8d3 3140 	ldr.w	r3, [r3, #320]	@ 0x140
 8000d08:	f003 0301 	and.w	r3, r3, #1
 8000d0c:	617b      	str	r3, [r7, #20]
 8000d0e:	697b      	ldr	r3, [r7, #20]
 8000d10:	2340      	movs	r3, #64	@ 0x40
 8000d12:	61fb      	str	r3, [r7, #28]
 8000d14:	2303      	movs	r3, #3
 8000d16:	623b      	str	r3, [r7, #32]
 8000d18:	2300      	movs	r3, #0
 8000d1a:	627b      	str	r3, [r7, #36]	@ 0x24
 8000d1c:	f107 031c 	add.w	r3, r7, #28
 8000d20:	4619      	mov	r1, r3
 8000d22:	4843      	ldr	r0, [pc, #268]	@ (8000e30 <HAL_ADC_MspInit+0x190>)
 8000d24:	f004 ffd0 	bl	8005cc8 <HAL_GPIO_Init>
 8000d28:	4b42      	ldr	r3, [pc, #264]	@ (8000e34 <HAL_ADC_MspInit+0x194>)
 8000d2a:	4a43      	ldr	r2, [pc, #268]	@ (8000e38 <HAL_ADC_MspInit+0x198>)
 8000d2c:	601a      	str	r2, [r3, #0]
 8000d2e:	4b41      	ldr	r3, [pc, #260]	@ (8000e34 <HAL_ADC_MspInit+0x194>)
 8000d30:	2209      	movs	r2, #9
 8000d32:	605a      	str	r2, [r3, #4]
 8000d34:	4b3f      	ldr	r3, [pc, #252]	@ (8000e34 <HAL_ADC_MspInit+0x194>)
 8000d36:	2200      	movs	r2, #0
 8000d38:	609a      	str	r2, [r3, #8]
 8000d3a:	4b3e      	ldr	r3, [pc, #248]	@ (8000e34 <HAL_ADC_MspInit+0x194>)
 8000d3c:	2200      	movs	r2, #0
 8000d3e:	60da      	str	r2, [r3, #12]
 8000d40:	4b3c      	ldr	r3, [pc, #240]	@ (8000e34 <HAL_ADC_MspInit+0x194>)
 8000d42:	f44f 6280 	mov.w	r2, #1024	@ 0x400
 8000d46:	611a      	str	r2, [r3, #16]
 8000d48:	4b3a      	ldr	r3, [pc, #232]	@ (8000e34 <HAL_ADC_MspInit+0x194>)
 8000d4a:	f44f 5280 	mov.w	r2, #4096	@ 0x1000
 8000d4e:	615a      	str	r2, [r3, #20]
 8000d50:	4b38      	ldr	r3, [pc, #224]	@ (8000e34 <HAL_ADC_MspInit+0x194>)
 8000d52:	f44f 4280 	mov.w	r2, #16384	@ 0x4000
 8000d56:	619a      	str	r2, [r3, #24]
 8000d58:	4b36      	ldr	r3, [pc, #216]	@ (8000e34 <HAL_ADC_MspInit+0x194>)
 8000d5a:	f44f 7280 	mov.w	r2, #256	@ 0x100
 8000d5e:	61da      	str	r2, [r3, #28]
 8000d60:	4b34      	ldr	r3, [pc, #208]	@ (8000e34 <HAL_ADC_MspInit+0x194>)
 8000d62:	f44f 3200 	mov.w	r2, #131072	@ 0x20000
 8000d66:	621a      	str	r2, [r3, #32]
 8000d68:	4b32      	ldr	r3, [pc, #200]	@ (8000e34 <HAL_ADC_MspInit+0x194>)
 8000d6a:	2200      	movs	r2, #0
 8000d6c:	625a      	str	r2, [r3, #36]	@ 0x24
 8000d6e:	4831      	ldr	r0, [pc, #196]	@ (8000e34 <HAL_ADC_MspInit+0x194>)
 8000d70:	f002 f8cc 	bl	8002f0c <HAL_DMA_Init>
 8000d74:	4603      	mov	r3, r0
 8000d76:	2b00      	cmp	r3, #0
 8000d78:	d001      	beq.n	8000d7e <HAL_ADC_MspInit+0xde>
 8000d7a:	f7ff ff71 	bl	8000c60 <Error_Handler>
 8000d7e:	687b      	ldr	r3, [r7, #4]
 8000d80:	4a2c      	ldr	r2, [pc, #176]	@ (8000e34 <HAL_ADC_MspInit+0x194>)
 8000d82:	64da      	str	r2, [r3, #76]	@ 0x4c
 8000d84:	4a2b      	ldr	r2, [pc, #172]	@ (8000e34 <HAL_ADC_MspInit+0x194>)
 8000d86:	687b      	ldr	r3, [r7, #4]
 8000d88:	6393      	str	r3, [r2, #56]	@ 0x38
 8000d8a:	2200      	movs	r2, #0
 8000d8c:	2100      	movs	r1, #0
 8000d8e:	2012      	movs	r0, #18
 8000d90:	f002 f80f 	bl	8002db2 <HAL_NVIC_SetPriority>
 8000d94:	2012      	movs	r0, #18
 8000d96:	f002 f826 	bl	8002de6 <HAL_NVIC_EnableIRQ>
 8000d9a:	e03f      	b.n	8000e1c <HAL_ADC_MspInit+0x17c>
 8000d9c:	687b      	ldr	r3, [r7, #4]
 8000d9e:	681b      	ldr	r3, [r3, #0]
 8000da0:	4a26      	ldr	r2, [pc, #152]	@ (8000e3c <HAL_ADC_MspInit+0x19c>)
 8000da2:	4293      	cmp	r3, r2
 8000da4:	d13a      	bne.n	8000e1c <HAL_ADC_MspInit+0x17c>
 8000da6:	4b20      	ldr	r3, [pc, #128]	@ (8000e28 <HAL_ADC_MspInit+0x188>)
 8000da8:	681b      	ldr	r3, [r3, #0]
 8000daa:	3301      	adds	r3, #1
 8000dac:	4a1e      	ldr	r2, [pc, #120]	@ (8000e28 <HAL_ADC_MspInit+0x188>)
 8000dae:	6013      	str	r3, [r2, #0]
 8000db0:	4b1d      	ldr	r3, [pc, #116]	@ (8000e28 <HAL_ADC_MspInit+0x188>)
 8000db2:	681b      	ldr	r3, [r3, #0]
 8000db4:	2b01      	cmp	r3, #1
 8000db6:	d10e      	bne.n	8000dd6 <HAL_ADC_MspInit+0x136>
 8000db8:	4b1c      	ldr	r3, [pc, #112]	@ (8000e2c <HAL_ADC_MspInit+0x18c>)
 8000dba:	f8d3 3138 	ldr.w	r3, [r3, #312]	@ 0x138
 8000dbe:	4a1b      	ldr	r2, [pc, #108]	@ (8000e2c <HAL_ADC_MspInit+0x18c>)
 8000dc0:	f043 0320 	orr.w	r3, r3, #32
 8000dc4:	f8c2 3138 	str.w	r3, [r2, #312]	@ 0x138
 8000dc8:	4b18      	ldr	r3, [pc, #96]	@ (8000e2c <HAL_ADC_MspInit+0x18c>)
 8000dca:	f8d3 3138 	ldr.w	r3, [r3, #312]	@ 0x138
 8000dce:	f003 0320 	and.w	r3, r3, #32
 8000dd2:	613b      	str	r3, [r7, #16]
 8000dd4:	693b      	ldr	r3, [r7, #16]
 8000dd6:	4b15      	ldr	r3, [pc, #84]	@ (8000e2c <HAL_ADC_MspInit+0x18c>)
 8000dd8:	f8d3 3140 	ldr.w	r3, [r3, #320]	@ 0x140
 8000ddc:	4a13      	ldr	r2, [pc, #76]	@ (8000e2c <HAL_ADC_MspInit+0x18c>)
 8000dde:	f043 0301 	orr.w	r3, r3, #1
 8000de2:	f8c2 3140 	str.w	r3, [r2, #320]	@ 0x140
 8000de6:	4b11      	ldr	r3, [pc, #68]	@ (8000e2c <HAL_ADC_MspInit+0x18c>)
 8000de8:	f8d3 3140 	ldr.w	r3, [r3, #320]	@ 0x140
 8000dec:	f003 0301 	and.w	r3, r3, #1
 8000df0:	60fb      	str	r3, [r7, #12]
 8000df2:	68fb      	ldr	r3, [r7, #12]
 8000df4:	2340      	movs	r3, #64	@ 0x40
 8000df6:	61fb      	str	r3, [r7, #28]
 8000df8:	2303      	movs	r3, #3
 8000dfa:	623b      	str	r3, [r7, #32]
 8000dfc:	2300      	movs	r3, #0
 8000dfe:	627b      	str	r3, [r7, #36]	@ 0x24
 8000e00:	f107 031c 	add.w	r3, r7, #28
 8000e04:	4619      	mov	r1, r3
 8000e06:	480a      	ldr	r0, [pc, #40]	@ (8000e30 <HAL_ADC_MspInit+0x190>)
 8000e08:	f004 ff5e 	bl	8005cc8 <HAL_GPIO_Init>
 8000e0c:	2200      	movs	r2, #0
 8000e0e:	2100      	movs	r1, #0
 8000e10:	2012      	movs	r0, #18
 8000e12:	f001 ffce 	bl	8002db2 <HAL_NVIC_SetPriority>
 8000e16:	2012      	movs	r0, #18
 8000e18:	f001 ffe5 	bl	8002de6 <HAL_NVIC_EnableIRQ>
 8000e1c:	bf00      	nop
 8000e1e:	3730      	adds	r7, #48	@ 0x30
 8000e20:	46bd      	mov	sp, r7
 8000e22:	bd80      	pop	{r7, pc}
 8000e24:	40022000 	.word	0x40022000
 8000e28:	24000304 	.word	0x24000304
 8000e2c:	58024400 	.word	0x58024400
 8000e30:	58020000 	.word	0x58020000
 8000e34:	240000f4 	.word	0x240000f4
 8000e38:	40020010 	.word	0x40020010
 8000e3c:	40022100 	.word	0x40022100

08000e40 <HAL_UART_MspInit>:
 8000e40:	b580      	push	{r7, lr}
 8000e42:	b0ba      	sub	sp, #232	@ 0xe8
 8000e44:	af00      	add	r7, sp, #0
 8000e46:	6078      	str	r0, [r7, #4]
 8000e48:	f107 03d4 	add.w	r3, r7, #212	@ 0xd4
 8000e4c:	2200      	movs	r2, #0
 8000e4e:	601a      	str	r2, [r3, #0]
 8000e50:	605a      	str	r2, [r3, #4]
 8000e52:	609a      	str	r2, [r3, #8]
 8000e54:	60da      	str	r2, [r3, #12]
 8000e56:	611a      	str	r2, [r3, #16]
 8000e58:	f107 0310 	add.w	r3, r7, #16
 8000e5c:	22c0      	movs	r2, #192	@ 0xc0
 8000e5e:	2100      	movs	r1, #0
 8000e60:	4618      	mov	r0, r3
 8000e62:	f00a fc05 	bl	800b670 <memset>
 8000e66:	687b      	ldr	r3, [r7, #4]
 8000e68:	681b      	ldr	r3, [r3, #0]
 8000e6a:	4a2b      	ldr	r2, [pc, #172]	@ (8000f18 <HAL_UART_MspInit+0xd8>)
 8000e6c:	4293      	cmp	r3, r2
 8000e6e:	d14e      	bne.n	8000f0e <HAL_UART_MspInit+0xce>
 8000e70:	f04f 0202 	mov.w	r2, #2
 8000e74:	f04f 0300 	mov.w	r3, #0
 8000e78:	e9c7 2304 	strd	r2, r3, [r7, #16]
 8000e7c:	2300      	movs	r3, #0
 8000e7e:	f8c7 3090 	str.w	r3, [r7, #144]	@ 0x90
 8000e82:	f107 0310 	add.w	r3, r7, #16
 8000e86:	4618      	mov	r0, r3
 8000e88:	f006 f97a 	bl	8007180 <HAL_RCCEx_PeriphCLKConfig>
 8000e8c:	4603      	mov	r3, r0
 8000e8e:	2b00      	cmp	r3, #0
 8000e90:	d001      	beq.n	8000e96 <HAL_UART_MspInit+0x56>
 8000e92:	f7ff fee5 	bl	8000c60 <Error_Handler>
 8000e96:	4b21      	ldr	r3, [pc, #132]	@ (8000f1c <HAL_UART_MspInit+0xdc>)
 8000e98:	f8d3 3148 	ldr.w	r3, [r3, #328]	@ 0x148
 8000e9c:	4a1f      	ldr	r2, [pc, #124]	@ (8000f1c <HAL_UART_MspInit+0xdc>)
 8000e9e:	f443 2380 	orr.w	r3, r3, #262144	@ 0x40000
 8000ea2:	f8c2 3148 	str.w	r3, [r2, #328]	@ 0x148
 8000ea6:	4b1d      	ldr	r3, [pc, #116]	@ (8000f1c <HAL_UART_MspInit+0xdc>)
 8000ea8:	f8d3 3148 	ldr.w	r3, [r3, #328]	@ 0x148
 8000eac:	f403 2380 	and.w	r3, r3, #262144	@ 0x40000
 8000eb0:	60fb      	str	r3, [r7, #12]
 8000eb2:	68fb      	ldr	r3, [r7, #12]
 8000eb4:	4b19      	ldr	r3, [pc, #100]	@ (8000f1c <HAL_UART_MspInit+0xdc>)
 8000eb6:	f8d3 3140 	ldr.w	r3, [r3, #320]	@ 0x140
 8000eba:	4a18      	ldr	r2, [pc, #96]	@ (8000f1c <HAL_UART_MspInit+0xdc>)
 8000ebc:	f043 0308 	orr.w	r3, r3, #8
 8000ec0:	f8c2 3140 	str.w	r3, [r2, #320]	@ 0x140
 8000ec4:	4b15      	ldr	r3, [pc, #84]	@ (8000f1c <HAL_UART_MspInit+0xdc>)
 8000ec6:	f8d3 3140 	ldr.w	r3, [r3, #320]	@ 0x140
 8000eca:	f003 0308 	and.w	r3, r3, #8
 8000ece:	60bb      	str	r3, [r7, #8]
 8000ed0:	68bb      	ldr	r3, [r7, #8]
 8000ed2:	f44f 7340 	mov.w	r3, #768	@ 0x300
 8000ed6:	f8c7 30d4 	str.w	r3, [r7, #212]	@ 0xd4
 8000eda:	2302      	movs	r3, #2
 8000edc:	f8c7 30d8 	str.w	r3, [r7, #216]	@ 0xd8
 8000ee0:	2300      	movs	r3, #0
 8000ee2:	f8c7 30dc 	str.w	r3, [r7, #220]	@ 0xdc
 8000ee6:	2300      	movs	r3, #0
 8000ee8:	f8c7 30e0 	str.w	r3, [r7, #224]	@ 0xe0
 8000eec:	2307      	movs	r3, #7
 8000eee:	f8c7 30e4 	str.w	r3, [r7, #228]	@ 0xe4
 8000ef2:	f107 03d4 	add.w	r3, r7, #212	@ 0xd4
 8000ef6:	4619      	mov	r1, r3
 8000ef8:	4809      	ldr	r0, [pc, #36]	@ (8000f20 <HAL_UART_MspInit+0xe0>)
 8000efa:	f004 fee5 	bl	8005cc8 <HAL_GPIO_Init>
 8000efe:	2200      	movs	r2, #0
 8000f00:	2100      	movs	r1, #0
 8000f02:	2027      	movs	r0, #39	@ 0x27
 8000f04:	f001 ff55 	bl	8002db2 <HAL_NVIC_SetPriority>
 8000f08:	2027      	movs	r0, #39	@ 0x27
 8000f0a:	f001 ff6c 	bl	8002de6 <HAL_NVIC_EnableIRQ>
 8000f0e:	bf00      	nop
 8000f10:	37e8      	adds	r7, #232	@ 0xe8
 8000f12:	46bd      	mov	sp, r7
 8000f14:	bd80      	pop	{r7, pc}
 8000f16:	bf00      	nop
 8000f18:	40004800 	.word	0x40004800
 8000f1c:	58024400 	.word	0x58024400
 8000f20:	58020c00 	.word	0x58020c00

08000f24 <NMI_Handler>:
 8000f24:	b480      	push	{r7}
 8000f26:	af00      	add	r7, sp, #0
 8000f28:	bf00      	nop
 8000f2a:	e7fd      	b.n	8000f28 <NMI_Handler+0x4>

08000f2c <HardFault_Handler>:
 8000f2c:	b480      	push	{r7}
 8000f2e:	af00      	add	r7, sp, #0
 8000f30:	bf00      	nop
 8000f32:	e7fd      	b.n	8000f30 <HardFault_Handler+0x4>

08000f34 <MemManage_Handler>:
 8000f34:	b480      	push	{r7}
 8000f36:	af00      	add	r7, sp, #0
 8000f38:	bf00      	nop
 8000f3a:	e7fd      	b.n	8000f38 <MemManage_Handler+0x4>

08000f3c <BusFault_Handler>:
 8000f3c:	b480      	push	{r7}
 8000f3e:	af00      	add	r7, sp, #0
 8000f40:	bf00      	nop
 8000f42:	e7fd      	b.n	8000f40 <BusFault_Handler+0x4>

08000f44 <UsageFault_Handler>:
 8000f44:	b480      	push	{r7}
 8000f46:	af00      	add	r7, sp, #0
 8000f48:	bf00      	nop
 8000f4a:	e7fd      	b.n	8000f48 <UsageFault_Handler+0x4>

08000f4c <SVC_Handler>:
 8000f4c:	b480      	push	{r7}
 8000f4e:	af00      	add	r7, sp, #0
 8000f50:	bf00      	nop
 8000f52:	46bd      	mov	sp, r7
 8000f54:	f85d 7b04 	ldr.w	r7, [sp], #4
 8000f58:	4770      	bx	lr

08000f5a <DebugMon_Handler>:
 8000f5a:	b480      	push	{r7}
 8000f5c:	af00      	add	r7, sp, #0
 8000f5e:	bf00      	nop
 8000f60:	46bd      	mov	sp, r7
 8000f62:	f85d 7b04 	ldr.w	r7, [sp], #4
 8000f66:	4770      	bx	lr

08000f68 <PendSV_Handler>:
 8000f68:	b480      	push	{r7}
 8000f6a:	af00      	add	r7, sp, #0
 8000f6c:	bf00      	nop
 8000f6e:	46bd      	mov	sp, r7
 8000f70:	f85d 7b04 	ldr.w	r7, [sp], #4
 8000f74:	4770      	bx	lr

08000f76 <SysTick_Handler>:
 8000f76:	b580      	push	{r7, lr}
 8000f78:	af00      	add	r7, sp, #0
 8000f7a:	f000 f939 	bl	80011f0 <HAL_IncTick>
 8000f7e:	bf00      	nop
 8000f80:	bd80      	pop	{r7, pc}
	...

08000f84 <DMA1_Stream0_IRQHandler>:
 8000f84:	b580      	push	{r7, lr}
 8000f86:	af00      	add	r7, sp, #0
 8000f88:	4802      	ldr	r0, [pc, #8]	@ (8000f94 <DMA1_Stream0_IRQHandler+0x10>)
 8000f8a:	f003 fb1b 	bl	80045c4 <HAL_DMA_IRQHandler>
 8000f8e:	bf00      	nop
 8000f90:	bd80      	pop	{r7, pc}
 8000f92:	bf00      	nop
 8000f94:	240000f4 	.word	0x240000f4

08000f98 <ADC_IRQHandler>:
 8000f98:	b580      	push	{r7, lr}
 8000f9a:	af00      	add	r7, sp, #0
 8000f9c:	4803      	ldr	r0, [pc, #12]	@ (8000fac <ADC_IRQHandler+0x14>)
 8000f9e:	f000 fd5d 	bl	8001a5c <HAL_ADC_IRQHandler>
 8000fa2:	4803      	ldr	r0, [pc, #12]	@ (8000fb0 <ADC_IRQHandler+0x18>)
 8000fa4:	f000 fd5a 	bl	8001a5c <HAL_ADC_IRQHandler>
 8000fa8:	bf00      	nop
 8000faa:	bd80      	pop	{r7, pc}
 8000fac:	2400002c 	.word	0x2400002c
 8000fb0:	24000090 	.word	0x24000090

08000fb4 <USART3_IRQHandler>:
 8000fb4:	b580      	push	{r7, lr}
 8000fb6:	af00      	add	r7, sp, #0
 8000fb8:	4802      	ldr	r0, [pc, #8]	@ (8000fc4 <USART3_IRQHandler+0x10>)
 8000fba:	f008 fd91 	bl	8009ae0 <HAL_UART_IRQHandler>
 8000fbe:	bf00      	nop
 8000fc0:	bd80      	pop	{r7, pc}
 8000fc2:	bf00      	nop
 8000fc4:	2400016c 	.word	0x2400016c

08000fc8 <SystemInit>:
 8000fc8:	b480      	push	{r7}
 8000fca:	af00      	add	r7, sp, #0
 8000fcc:	4b32      	ldr	r3, [pc, #200]	@ (8001098 <SystemInit+0xd0>)
 8000fce:	f8d3 3088 	ldr.w	r3, [r3, #136]	@ 0x88
 8000fd2:	4a31      	ldr	r2, [pc, #196]	@ (8001098 <SystemInit+0xd0>)
 8000fd4:	f443 0370 	orr.w	r3, r3, #15728640	@ 0xf00000
 8000fd8:	f8c2 3088 	str.w	r3, [r2, #136]	@ 0x88
 8000fdc:	4b2f      	ldr	r3, [pc, #188]	@ (800109c <SystemInit+0xd4>)
 8000fde:	681b      	ldr	r3, [r3, #0]
 8000fe0:	f003 030f 	and.w	r3, r3, #15
 8000fe4:	2b02      	cmp	r3, #2
 8000fe6:	d807      	bhi.n	8000ff8 <SystemInit+0x30>
 8000fe8:	4b2c      	ldr	r3, [pc, #176]	@ (800109c <SystemInit+0xd4>)
 8000fea:	681b      	ldr	r3, [r3, #0]
 8000fec:	f023 030f 	bic.w	r3, r3, #15
 8000ff0:	4a2a      	ldr	r2, [pc, #168]	@ (800109c <SystemInit+0xd4>)
 8000ff2:	f043 0303 	orr.w	r3, r3, #3
 8000ff6:	6013      	str	r3, [r2, #0]
 8000ff8:	4b29      	ldr	r3, [pc, #164]	@ (80010a0 <SystemInit+0xd8>)
 8000ffa:	681b      	ldr	r3, [r3, #0]
 8000ffc:	4a28      	ldr	r2, [pc, #160]	@ (80010a0 <SystemInit+0xd8>)
 8000ffe:	f043 0301 	orr.w	r3, r3, #1
 8001002:	6013      	str	r3, [r2, #0]
 8001004:	4b26      	ldr	r3, [pc, #152]	@ (80010a0 <SystemInit+0xd8>)
 8001006:	2200      	movs	r2, #0
 8001008:	611a      	str	r2, [r3, #16]
 800100a:	4b25      	ldr	r3, [pc, #148]	@ (80010a0 <SystemInit+0xd8>)
 800100c:	681a      	ldr	r2, [r3, #0]
 800100e:	4924      	ldr	r1, [pc, #144]	@ (80010a0 <SystemInit+0xd8>)
 8001010:	4b24      	ldr	r3, [pc, #144]	@ (80010a4 <SystemInit+0xdc>)
 8001012:	4013      	ands	r3, r2
 8001014:	600b      	str	r3, [r1, #0]
 8001016:	4b21      	ldr	r3, [pc, #132]	@ (800109c <SystemInit+0xd4>)
 8001018:	681b      	ldr	r3, [r3, #0]
 800101a:	f003 030c 	and.w	r3, r3, #12
 800101e:	2b00      	cmp	r3, #0
 8001020:	d007      	beq.n	8001032 <SystemInit+0x6a>
 8001022:	4b1e      	ldr	r3, [pc, #120]	@ (800109c <SystemInit+0xd4>)
 8001024:	681b      	ldr	r3, [r3, #0]
 8001026:	f023 030f 	bic.w	r3, r3, #15
 800102a:	4a1c      	ldr	r2, [pc, #112]	@ (800109c <SystemInit+0xd4>)
 800102c:	f043 0303 	orr.w	r3, r3, #3
 8001030:	6013      	str	r3, [r2, #0]
 8001032:	4b1b      	ldr	r3, [pc, #108]	@ (80010a0 <SystemInit+0xd8>)
 8001034:	2200      	movs	r2, #0
 8001036:	619a      	str	r2, [r3, #24]
 8001038:	4b19      	ldr	r3, [pc, #100]	@ (80010a0 <SystemInit+0xd8>)
 800103a:	2200      	movs	r2, #0
 800103c:	61da      	str	r2, [r3, #28]
 800103e:	4b18      	ldr	r3, [pc, #96]	@ (80010a0 <SystemInit+0xd8>)
 8001040:	2200      	movs	r2, #0
 8001042:	621a      	str	r2, [r3, #32]
 8001044:	4b16      	ldr	r3, [pc, #88]	@ (80010a0 <SystemInit+0xd8>)
 8001046:	4a18      	ldr	r2, [pc, #96]	@ (80010a8 <SystemInit+0xe0>)
 8001048:	629a      	str	r2, [r3, #40]	@ 0x28
 800104a:	4b15      	ldr	r3, [pc, #84]	@ (80010a0 <SystemInit+0xd8>)
 800104c:	4a17      	ldr	r2, [pc, #92]	@ (80010ac <SystemInit+0xe4>)
 800104e:	62da      	str	r2, [r3, #44]	@ 0x2c
 8001050:	4b13      	ldr	r3, [pc, #76]	@ (80010a0 <SystemInit+0xd8>)
 8001052:	4a17      	ldr	r2, [pc, #92]	@ (80010b0 <SystemInit+0xe8>)
 8001054:	631a      	str	r2, [r3, #48]	@ 0x30
 8001056:	4b12      	ldr	r3, [pc, #72]	@ (80010a0 <SystemInit+0xd8>)
 8001058:	2200      	movs	r2, #0
 800105a:	635a      	str	r2, [r3, #52]	@ 0x34
 800105c:	4b10      	ldr	r3, [pc, #64]	@ (80010a0 <SystemInit+0xd8>)
 800105e:	4a14      	ldr	r2, [pc, #80]	@ (80010b0 <SystemInit+0xe8>)
 8001060:	639a      	str	r2, [r3, #56]	@ 0x38
 8001062:	4b0f      	ldr	r3, [pc, #60]	@ (80010a0 <SystemInit+0xd8>)
 8001064:	2200      	movs	r2, #0
 8001066:	63da      	str	r2, [r3, #60]	@ 0x3c
 8001068:	4b0d      	ldr	r3, [pc, #52]	@ (80010a0 <SystemInit+0xd8>)
 800106a:	4a11      	ldr	r2, [pc, #68]	@ (80010b0 <SystemInit+0xe8>)
 800106c:	641a      	str	r2, [r3, #64]	@ 0x40
 800106e:	4b0c      	ldr	r3, [pc, #48]	@ (80010a0 <SystemInit+0xd8>)
 8001070:	2200      	movs	r2, #0
 8001072:	645a      	str	r2, [r3, #68]	@ 0x44
 8001074:	4b0a      	ldr	r3, [pc, #40]	@ (80010a0 <SystemInit+0xd8>)
 8001076:	681b      	ldr	r3, [r3, #0]
 8001078:	4a09      	ldr	r2, [pc, #36]	@ (80010a0 <SystemInit+0xd8>)
 800107a:	f423 2380 	bic.w	r3, r3, #262144	@ 0x40000
 800107e:	6013      	str	r3, [r2, #0]
 8001080:	4b07      	ldr	r3, [pc, #28]	@ (80010a0 <SystemInit+0xd8>)
 8001082:	2200      	movs	r2, #0
 8001084:	661a      	str	r2, [r3, #96]	@ 0x60
 8001086:	4b0b      	ldr	r3, [pc, #44]	@ (80010b4 <SystemInit+0xec>)
 8001088:	f243 02d2 	movw	r2, #12498	@ 0x30d2
 800108c:	601a      	str	r2, [r3, #0]
 800108e:	bf00      	nop
 8001090:	46bd      	mov	sp, r7
 8001092:	f85d 7b04 	ldr.w	r7, [sp], #4
 8001096:	4770      	bx	lr
 8001098:	e000ed00 	.word	0xe000ed00
 800109c:	52002000 	.word	0x52002000
 80010a0:	58024400 	.word	0x58024400
 80010a4:	eaf6ed7f 	.word	0xeaf6ed7f
 80010a8:	02020200 	.word	0x02020200
 80010ac:	01ff0000 	.word	0x01ff0000
 80010b0:	01010280 	.word	0x01010280
 80010b4:	52004000 	.word	0x52004000

080010b8 <Reset_Handler>:
 80010b8:	f8df d034 	ldr.w	sp, [pc, #52]	@ 80010f0 <LoopFillZerobss+0xe>
 80010bc:	f7ff ff84 	bl	8000fc8 <SystemInit>
 80010c0:	480c      	ldr	r0, [pc, #48]	@ (80010f4 <LoopFillZerobss+0x12>)
 80010c2:	490d      	ldr	r1, [pc, #52]	@ (80010f8 <LoopFillZerobss+0x16>)
 80010c4:	4a0d      	ldr	r2, [pc, #52]	@ (80010fc <LoopFillZerobss+0x1a>)
 80010c6:	2300      	movs	r3, #0
 80010c8:	e002      	b.n	80010d0 <LoopCopyDataInit>

080010ca <CopyDataInit>:
 80010ca:	58d4      	ldr	r4, [r2, r3]
 80010cc:	50c4      	str	r4, [r0, r3]
 80010ce:	3304      	adds	r3, #4

080010d0 <LoopCopyDataInit>:
 80010d0:	18c4      	adds	r4, r0, r3
 80010d2:	428c      	cmp	r4, r1
 80010d4:	d3f9      	bcc.n	80010ca <CopyDataInit>
 80010d6:	4a0a      	ldr	r2, [pc, #40]	@ (8001100 <LoopFillZerobss+0x1e>)
 80010d8:	4c0a      	ldr	r4, [pc, #40]	@ (8001104 <LoopFillZerobss+0x22>)
 80010da:	2300      	movs	r3, #0
 80010dc:	e001      	b.n	80010e2 <LoopFillZerobss>

080010de <FillZerobss>:
 80010de:	6013      	str	r3, [r2, #0]
 80010e0:	3204      	adds	r2, #4

080010e2 <LoopFillZerobss>:
 80010e2:	42a2      	cmp	r2, r4
 80010e4:	d3fb      	bcc.n	80010de <FillZerobss>
 80010e6:	f00a facb 	bl	800b680 <__libc_init_array>
 80010ea:	f7ff fa77 	bl	80005dc <main>
 80010ee:	4770      	bx	lr
 80010f0:	24100000 	.word	0x24100000
 80010f4:	24000000 	.word	0x24000000
 80010f8:	24000010 	.word	0x24000010
 80010fc:	0800b730 	.word	0x0800b730
 8001100:	24000010 	.word	0x24000010
 8001104:	2400030c 	.word	0x2400030c

08001108 <BDMA1_IRQHandler>:
 8001108:	e7fe      	b.n	8001108 <BDMA1_IRQHandler>
	...

0800110c <HAL_Init>:
 800110c:	b580      	push	{r7, lr}
 800110e:	b082      	sub	sp, #8
 8001110:	af00      	add	r7, sp, #0
 8001112:	2003      	movs	r0, #3
 8001114:	f001 fe42 	bl	8002d9c <HAL_NVIC_SetPriorityGrouping>
 8001118:	f005 fe5c 	bl	8006dd4 <HAL_RCC_GetSysClockFreq>
 800111c:	4602      	mov	r2, r0
 800111e:	4b15      	ldr	r3, [pc, #84]	@ (8001174 <HAL_Init+0x68>)
 8001120:	699b      	ldr	r3, [r3, #24]
 8001122:	0a1b      	lsrs	r3, r3, #8
 8001124:	f003 030f 	and.w	r3, r3, #15
 8001128:	4913      	ldr	r1, [pc, #76]	@ (8001178 <HAL_Init+0x6c>)
 800112a:	5ccb      	ldrb	r3, [r1, r3]
 800112c:	f003 031f 	and.w	r3, r3, #31
 8001130:	fa22 f303 	lsr.w	r3, r2, r3
 8001134:	607b      	str	r3, [r7, #4]
 8001136:	4b0f      	ldr	r3, [pc, #60]	@ (8001174 <HAL_Init+0x68>)
 8001138:	699b      	ldr	r3, [r3, #24]
 800113a:	f003 030f 	and.w	r3, r3, #15
 800113e:	4a0e      	ldr	r2, [pc, #56]	@ (8001178 <HAL_Init+0x6c>)
 8001140:	5cd3      	ldrb	r3, [r2, r3]
 8001142:	f003 031f 	and.w	r3, r3, #31
 8001146:	687a      	ldr	r2, [r7, #4]
 8001148:	fa22 f303 	lsr.w	r3, r2, r3
 800114c:	4a0b      	ldr	r2, [pc, #44]	@ (800117c <HAL_Init+0x70>)
 800114e:	6013      	str	r3, [r2, #0]
 8001150:	4a0b      	ldr	r2, [pc, #44]	@ (8001180 <HAL_Init+0x74>)
 8001152:	687b      	ldr	r3, [r7, #4]
 8001154:	6013      	str	r3, [r2, #0]
 8001156:	200f      	movs	r0, #15
 8001158:	f000 f814 	bl	8001184 <HAL_InitTick>
 800115c:	4603      	mov	r3, r0
 800115e:	2b00      	cmp	r3, #0
 8001160:	d001      	beq.n	8001166 <HAL_Init+0x5a>
 8001162:	2301      	movs	r3, #1
 8001164:	e002      	b.n	800116c <HAL_Init+0x60>
 8001166:	f7ff fd81 	bl	8000c6c <HAL_MspInit>
 800116a:	2300      	movs	r3, #0
 800116c:	4618      	mov	r0, r3
 800116e:	3708      	adds	r7, #8
 8001170:	46bd      	mov	sp, r7
 8001172:	bd80      	pop	{r7, pc}
 8001174:	58024400 	.word	0x58024400
 8001178:	0800b6e0 	.word	0x0800b6e0
 800117c:	24000004 	.word	0x24000004
 8001180:	24000000 	.word	0x24000000

08001184 <HAL_InitTick>:
 8001184:	b580      	push	{r7, lr}
 8001186:	b082      	sub	sp, #8
 8001188:	af00      	add	r7, sp, #0
 800118a:	6078      	str	r0, [r7, #4]
 800118c:	4b15      	ldr	r3, [pc, #84]	@ (80011e4 <HAL_InitTick+0x60>)
 800118e:	781b      	ldrb	r3, [r3, #0]
 8001190:	2b00      	cmp	r3, #0
 8001192:	d101      	bne.n	8001198 <HAL_InitTick+0x14>
 8001194:	2301      	movs	r3, #1
 8001196:	e021      	b.n	80011dc <HAL_InitTick+0x58>
 8001198:	4b13      	ldr	r3, [pc, #76]	@ (80011e8 <HAL_InitTick+0x64>)
 800119a:	681a      	ldr	r2, [r3, #0]
 800119c:	4b11      	ldr	r3, [pc, #68]	@ (80011e4 <HAL_InitTick+0x60>)
 800119e:	781b      	ldrb	r3, [r3, #0]
 80011a0:	4619      	mov	r1, r3
 80011a2:	f44f 737a 	mov.w	r3, #1000	@ 0x3e8
 80011a6:	fbb3 f3f1 	udiv	r3, r3, r1
 80011aa:	fbb2 f3f3 	udiv	r3, r2, r3
 80011ae:	4618      	mov	r0, r3
 80011b0:	f001 fe27 	bl	8002e02 <HAL_SYSTICK_Config>
 80011b4:	4603      	mov	r3, r0
 80011b6:	2b00      	cmp	r3, #0
 80011b8:	d001      	beq.n	80011be <HAL_InitTick+0x3a>
 80011ba:	2301      	movs	r3, #1
 80011bc:	e00e      	b.n	80011dc <HAL_InitTick+0x58>
 80011be:	687b      	ldr	r3, [r7, #4]
 80011c0:	2b0f      	cmp	r3, #15
 80011c2:	d80a      	bhi.n	80011da <HAL_InitTick+0x56>
 80011c4:	2200      	movs	r2, #0
 80011c6:	6879      	ldr	r1, [r7, #4]
 80011c8:	f04f 30ff 	mov.w	r0, #4294967295
 80011cc:	f001 fdf1 	bl	8002db2 <HAL_NVIC_SetPriority>
 80011d0:	4a06      	ldr	r2, [pc, #24]	@ (80011ec <HAL_InitTick+0x68>)
 80011d2:	687b      	ldr	r3, [r7, #4]
 80011d4:	6013      	str	r3, [r2, #0]
 80011d6:	2300      	movs	r3, #0
 80011d8:	e000      	b.n	80011dc <HAL_InitTick+0x58>
 80011da:	2301      	movs	r3, #1
 80011dc:	4618      	mov	r0, r3
 80011de:	3708      	adds	r7, #8
 80011e0:	46bd      	mov	sp, r7
 80011e2:	bd80      	pop	{r7, pc}
 80011e4:	2400000c 	.word	0x2400000c
 80011e8:	24000000 	.word	0x24000000
 80011ec:	24000008 	.word	0x24000008

080011f0 <HAL_IncTick>:
 80011f0:	b480      	push	{r7}
 80011f2:	af00      	add	r7, sp, #0
 80011f4:	4b06      	ldr	r3, [pc, #24]	@ (8001210 <HAL_IncTick+0x20>)
 80011f6:	781b      	ldrb	r3, [r3, #0]
 80011f8:	461a      	mov	r2, r3
 80011fa:	4b06      	ldr	r3, [pc, #24]	@ (8001214 <HAL_IncTick+0x24>)
 80011fc:	681b      	ldr	r3, [r3, #0]
 80011fe:	4413      	add	r3, r2
 8001200:	4a04      	ldr	r2, [pc, #16]	@ (8001214 <HAL_IncTick+0x24>)
 8001202:	6013      	str	r3, [r2, #0]
 8001204:	bf00      	nop
 8001206:	46bd      	mov	sp, r7
 8001208:	f85d 7b04 	ldr.w	r7, [sp], #4
 800120c:	4770      	bx	lr
 800120e:	bf00      	nop
 8001210:	2400000c 	.word	0x2400000c
 8001214:	24000308 	.word	0x24000308

08001218 <HAL_GetTick>:
 8001218:	b480      	push	{r7}
 800121a:	af00      	add	r7, sp, #0
 800121c:	4b03      	ldr	r3, [pc, #12]	@ (800122c <HAL_GetTick+0x14>)
 800121e:	681b      	ldr	r3, [r3, #0]
 8001220:	4618      	mov	r0, r3
 8001222:	46bd      	mov	sp, r7
 8001224:	f85d 7b04 	ldr.w	r7, [sp], #4
 8001228:	4770      	bx	lr
 800122a:	bf00      	nop
 800122c:	24000308 	.word	0x24000308

08001230 <HAL_GetREVID>:
 8001230:	b480      	push	{r7}
 8001232:	af00      	add	r7, sp, #0
 8001234:	4b03      	ldr	r3, [pc, #12]	@ (8001244 <HAL_GetREVID+0x14>)
 8001236:	681b      	ldr	r3, [r3, #0]
 8001238:	0c1b      	lsrs	r3, r3, #16
 800123a:	4618      	mov	r0, r3
 800123c:	46bd      	mov	sp, r7
 800123e:	f85d 7b04 	ldr.w	r7, [sp], #4
 8001242:	4770      	bx	lr
 8001244:	5c001000 	.word	0x5c001000

08001248 <LL_ADC_SetCommonClock>:
 8001248:	b480      	push	{r7}
 800124a:	b083      	sub	sp, #12
 800124c:	af00      	add	r7, sp, #0
 800124e:	6078      	str	r0, [r7, #4]
 8001250:	6039      	str	r1, [r7, #0]
 8001252:	687b      	ldr	r3, [r7, #4]
 8001254:	689b      	ldr	r3, [r3, #8]
 8001256:	f423 127c 	bic.w	r2, r3, #4128768	@ 0x3f0000
 800125a:	683b      	ldr	r3, [r7, #0]
 800125c:	431a      	orrs	r2, r3
 800125e:	687b      	ldr	r3, [r7, #4]
 8001260:	609a      	str	r2, [r3, #8]
 8001262:	bf00      	nop
 8001264:	370c      	adds	r7, #12
 8001266:	46bd      	mov	sp, r7
 8001268:	f85d 7b04 	ldr.w	r7, [sp], #4
 800126c:	4770      	bx	lr

0800126e <LL_ADC_SetCommonPathInternalCh>:
 800126e:	b480      	push	{r7}
 8001270:	b083      	sub	sp, #12
 8001272:	af00      	add	r7, sp, #0
 8001274:	6078      	str	r0, [r7, #4]
 8001276:	6039      	str	r1, [r7, #0]
 8001278:	687b      	ldr	r3, [r7, #4]
 800127a:	689b      	ldr	r3, [r3, #8]
 800127c:	f023 72e0 	bic.w	r2, r3, #29360128	@ 0x1c00000
 8001280:	683b      	ldr	r3, [r7, #0]
 8001282:	431a      	orrs	r2, r3
 8001284:	687b      	ldr	r3, [r7, #4]
 8001286:	609a      	str	r2, [r3, #8]
 8001288:	bf00      	nop
 800128a:	370c      	adds	r7, #12
 800128c:	46bd      	mov	sp, r7
 800128e:	f85d 7b04 	ldr.w	r7, [sp], #4
 8001292:	4770      	bx	lr

08001294 <LL_ADC_GetCommonPathInternalCh>:
 8001294:	b480      	push	{r7}
 8001296:	b083      	sub	sp, #12
 8001298:	af00      	add	r7, sp, #0
 800129a:	6078      	str	r0, [r7, #4]
 800129c:	687b      	ldr	r3, [r7, #4]
 800129e:	689b      	ldr	r3, [r3, #8]
 80012a0:	f003 73e0 	and.w	r3, r3, #29360128	@ 0x1c00000
 80012a4:	4618      	mov	r0, r3
 80012a6:	370c      	adds	r7, #12
 80012a8:	46bd      	mov	sp, r7
 80012aa:	f85d 7b04 	ldr.w	r7, [sp], #4
 80012ae:	4770      	bx	lr

080012b0 <LL_ADC_SetOffset>:
 80012b0:	b480      	push	{r7}
 80012b2:	b087      	sub	sp, #28
 80012b4:	af00      	add	r7, sp, #0
 80012b6:	60f8      	str	r0, [r7, #12]
 80012b8:	60b9      	str	r1, [r7, #8]
 80012ba:	607a      	str	r2, [r7, #4]
 80012bc:	603b      	str	r3, [r7, #0]
 80012be:	68fb      	ldr	r3, [r7, #12]
 80012c0:	3360      	adds	r3, #96	@ 0x60
 80012c2:	461a      	mov	r2, r3
 80012c4:	68bb      	ldr	r3, [r7, #8]
 80012c6:	009b      	lsls	r3, r3, #2
 80012c8:	4413      	add	r3, r2
 80012ca:	617b      	str	r3, [r7, #20]
 80012cc:	697b      	ldr	r3, [r7, #20]
 80012ce:	681b      	ldr	r3, [r3, #0]
 80012d0:	f003 4200 	and.w	r2, r3, #2147483648	@ 0x80000000
 80012d4:	687b      	ldr	r3, [r7, #4]
 80012d6:	f003 41f8 	and.w	r1, r3, #2080374784	@ 0x7c000000
 80012da:	683b      	ldr	r3, [r7, #0]
 80012dc:	430b      	orrs	r3, r1
 80012de:	431a      	orrs	r2, r3
 80012e0:	697b      	ldr	r3, [r7, #20]
 80012e2:	601a      	str	r2, [r3, #0]
 80012e4:	bf00      	nop
 80012e6:	371c      	adds	r7, #28
 80012e8:	46bd      	mov	sp, r7
 80012ea:	f85d 7b04 	ldr.w	r7, [sp], #4
 80012ee:	4770      	bx	lr

080012f0 <LL_ADC_SetDataRightShift>:
 80012f0:	b480      	push	{r7}
 80012f2:	b085      	sub	sp, #20
 80012f4:	af00      	add	r7, sp, #0
 80012f6:	60f8      	str	r0, [r7, #12]
 80012f8:	60b9      	str	r1, [r7, #8]
 80012fa:	607a      	str	r2, [r7, #4]
 80012fc:	68fb      	ldr	r3, [r7, #12]
 80012fe:	691b      	ldr	r3, [r3, #16]
 8001300:	f423 42f0 	bic.w	r2, r3, #30720	@ 0x7800
 8001304:	68bb      	ldr	r3, [r7, #8]
 8001306:	f003 031f 	and.w	r3, r3, #31
 800130a:	6879      	ldr	r1, [r7, #4]
 800130c:	fa01 f303 	lsl.w	r3, r1, r3
 8001310:	431a      	orrs	r2, r3
 8001312:	68fb      	ldr	r3, [r7, #12]
 8001314:	611a      	str	r2, [r3, #16]
 8001316:	bf00      	nop
 8001318:	3714      	adds	r7, #20
 800131a:	46bd      	mov	sp, r7
 800131c:	f85d 7b04 	ldr.w	r7, [sp], #4
 8001320:	4770      	bx	lr

08001322 <LL_ADC_SetOffsetSignedSaturation>:
 8001322:	b480      	push	{r7}
 8001324:	b087      	sub	sp, #28
 8001326:	af00      	add	r7, sp, #0
 8001328:	60f8      	str	r0, [r7, #12]
 800132a:	60b9      	str	r1, [r7, #8]
 800132c:	607a      	str	r2, [r7, #4]
 800132e:	68fb      	ldr	r3, [r7, #12]
 8001330:	3360      	adds	r3, #96	@ 0x60
 8001332:	461a      	mov	r2, r3
 8001334:	68bb      	ldr	r3, [r7, #8]
 8001336:	009b      	lsls	r3, r3, #2
 8001338:	4413      	add	r3, r2
 800133a:	617b      	str	r3, [r7, #20]
 800133c:	697b      	ldr	r3, [r7, #20]
 800133e:	681b      	ldr	r3, [r3, #0]
 8001340:	f023 4200 	bic.w	r2, r3, #2147483648	@ 0x80000000
 8001344:	687b      	ldr	r3, [r7, #4]
 8001346:	431a      	orrs	r2, r3
 8001348:	697b      	ldr	r3, [r7, #20]
 800134a:	601a      	str	r2, [r3, #0]
 800134c:	bf00      	nop
 800134e:	371c      	adds	r7, #28
 8001350:	46bd      	mov	sp, r7
 8001352:	f85d 7b04 	ldr.w	r7, [sp], #4
 8001356:	4770      	bx	lr

08001358 <LL_ADC_REG_IsTriggerSourceSWStart>:
 8001358:	b480      	push	{r7}
 800135a:	b083      	sub	sp, #12
 800135c:	af00      	add	r7, sp, #0
 800135e:	6078      	str	r0, [r7, #4]
 8001360:	687b      	ldr	r3, [r7, #4]
 8001362:	68db      	ldr	r3, [r3, #12]
 8001364:	f403 6340 	and.w	r3, r3, #3072	@ 0xc00
 8001368:	2b00      	cmp	r3, #0
 800136a:	d101      	bne.n	8001370 <LL_ADC_REG_IsTriggerSourceSWStart+0x18>
 800136c:	2301      	movs	r3, #1
 800136e:	e000      	b.n	8001372 <LL_ADC_REG_IsTriggerSourceSWStart+0x1a>
 8001370:	2300      	movs	r3, #0
 8001372:	4618      	mov	r0, r3
 8001374:	370c      	adds	r7, #12
 8001376:	46bd      	mov	sp, r7
 8001378:	f85d 7b04 	ldr.w	r7, [sp], #4
 800137c:	4770      	bx	lr

0800137e <LL_ADC_REG_SetSequencerRanks>:
 800137e:	b480      	push	{r7}
 8001380:	b087      	sub	sp, #28
 8001382:	af00      	add	r7, sp, #0
 8001384:	60f8      	str	r0, [r7, #12]
 8001386:	60b9      	str	r1, [r7, #8]
 8001388:	607a      	str	r2, [r7, #4]
 800138a:	68fb      	ldr	r3, [r7, #12]
 800138c:	3330      	adds	r3, #48	@ 0x30
 800138e:	461a      	mov	r2, r3
 8001390:	68bb      	ldr	r3, [r7, #8]
 8001392:	0a1b      	lsrs	r3, r3, #8
 8001394:	009b      	lsls	r3, r3, #2
 8001396:	f003 030c 	and.w	r3, r3, #12
 800139a:	4413      	add	r3, r2
 800139c:	617b      	str	r3, [r7, #20]
 800139e:	697b      	ldr	r3, [r7, #20]
 80013a0:	681a      	ldr	r2, [r3, #0]
 80013a2:	68bb      	ldr	r3, [r7, #8]
 80013a4:	f003 031f 	and.w	r3, r3, #31
 80013a8:	211f      	movs	r1, #31
 80013aa:	fa01 f303 	lsl.w	r3, r1, r3
 80013ae:	43db      	mvns	r3, r3
 80013b0:	401a      	ands	r2, r3
 80013b2:	687b      	ldr	r3, [r7, #4]
 80013b4:	0e9b      	lsrs	r3, r3, #26
 80013b6:	f003 011f 	and.w	r1, r3, #31
 80013ba:	68bb      	ldr	r3, [r7, #8]
 80013bc:	f003 031f 	and.w	r3, r3, #31
 80013c0:	fa01 f303 	lsl.w	r3, r1, r3
 80013c4:	431a      	orrs	r2, r3
 80013c6:	697b      	ldr	r3, [r7, #20]
 80013c8:	601a      	str	r2, [r3, #0]
 80013ca:	bf00      	nop
 80013cc:	371c      	adds	r7, #28
 80013ce:	46bd      	mov	sp, r7
 80013d0:	f85d 7b04 	ldr.w	r7, [sp], #4
 80013d4:	4770      	bx	lr

080013d6 <LL_ADC_INJ_IsTriggerSourceSWStart>:
 80013d6:	b480      	push	{r7}
 80013d8:	b083      	sub	sp, #12
 80013da:	af00      	add	r7, sp, #0
 80013dc:	6078      	str	r0, [r7, #4]
 80013de:	687b      	ldr	r3, [r7, #4]
 80013e0:	6cdb      	ldr	r3, [r3, #76]	@ 0x4c
 80013e2:	f403 73c0 	and.w	r3, r3, #384	@ 0x180
 80013e6:	2b00      	cmp	r3, #0
 80013e8:	d101      	bne.n	80013ee <LL_ADC_INJ_IsTriggerSourceSWStart+0x18>
 80013ea:	2301      	movs	r3, #1
 80013ec:	e000      	b.n	80013f0 <LL_ADC_INJ_IsTriggerSourceSWStart+0x1a>
 80013ee:	2300      	movs	r3, #0
 80013f0:	4618      	mov	r0, r3
 80013f2:	370c      	adds	r7, #12
 80013f4:	46bd      	mov	sp, r7
 80013f6:	f85d 7b04 	ldr.w	r7, [sp], #4
 80013fa:	4770      	bx	lr

080013fc <LL_ADC_SetChannelSamplingTime>:
 80013fc:	b480      	push	{r7}
 80013fe:	b087      	sub	sp, #28
 8001400:	af00      	add	r7, sp, #0
 8001402:	60f8      	str	r0, [r7, #12]
 8001404:	60b9      	str	r1, [r7, #8]
 8001406:	607a      	str	r2, [r7, #4]
 8001408:	68fb      	ldr	r3, [r7, #12]
 800140a:	3314      	adds	r3, #20
 800140c:	461a      	mov	r2, r3
 800140e:	68bb      	ldr	r3, [r7, #8]
 8001410:	0e5b      	lsrs	r3, r3, #25
 8001412:	009b      	lsls	r3, r3, #2
 8001414:	f003 0304 	and.w	r3, r3, #4
 8001418:	4413      	add	r3, r2
 800141a:	617b      	str	r3, [r7, #20]
 800141c:	697b      	ldr	r3, [r7, #20]
 800141e:	681a      	ldr	r2, [r3, #0]
 8001420:	68bb      	ldr	r3, [r7, #8]
 8001422:	0d1b      	lsrs	r3, r3, #20
 8001424:	f003 031f 	and.w	r3, r3, #31
 8001428:	2107      	movs	r1, #7
 800142a:	fa01 f303 	lsl.w	r3, r1, r3
 800142e:	43db      	mvns	r3, r3
 8001430:	401a      	ands	r2, r3
 8001432:	68bb      	ldr	r3, [r7, #8]
 8001434:	0d1b      	lsrs	r3, r3, #20
 8001436:	f003 031f 	and.w	r3, r3, #31
 800143a:	6879      	ldr	r1, [r7, #4]
 800143c:	fa01 f303 	lsl.w	r3, r1, r3
 8001440:	431a      	orrs	r2, r3
 8001442:	697b      	ldr	r3, [r7, #20]
 8001444:	601a      	str	r2, [r3, #0]
 8001446:	bf00      	nop
 8001448:	371c      	adds	r7, #28
 800144a:	46bd      	mov	sp, r7
 800144c:	f85d 7b04 	ldr.w	r7, [sp], #4
 8001450:	4770      	bx	lr
	...

08001454 <LL_ADC_SetChannelSingleDiff>:
 8001454:	b480      	push	{r7}
 8001456:	b085      	sub	sp, #20
 8001458:	af00      	add	r7, sp, #0
 800145a:	60f8      	str	r0, [r7, #12]
 800145c:	60b9      	str	r1, [r7, #8]
 800145e:	607a      	str	r2, [r7, #4]
 8001460:	68fb      	ldr	r3, [r7, #12]
 8001462:	f8d3 20c0 	ldr.w	r2, [r3, #192]	@ 0xc0
 8001466:	68bb      	ldr	r3, [r7, #8]
 8001468:	f3c3 0313 	ubfx	r3, r3, #0, #20
 800146c:	43db      	mvns	r3, r3
 800146e:	401a      	ands	r2, r3
 8001470:	687b      	ldr	r3, [r7, #4]
 8001472:	f003 0318 	and.w	r3, r3, #24
 8001476:	4908      	ldr	r1, [pc, #32]	@ (8001498 <LL_ADC_SetChannelSingleDiff+0x44>)
 8001478:	40d9      	lsrs	r1, r3
 800147a:	68bb      	ldr	r3, [r7, #8]
 800147c:	400b      	ands	r3, r1
 800147e:	f3c3 0313 	ubfx	r3, r3, #0, #20
 8001482:	431a      	orrs	r2, r3
 8001484:	68fb      	ldr	r3, [r7, #12]
 8001486:	f8c3 20c0 	str.w	r2, [r3, #192]	@ 0xc0
 800148a:	bf00      	nop
 800148c:	3714      	adds	r7, #20
 800148e:	46bd      	mov	sp, r7
 8001490:	f85d 7b04 	ldr.w	r7, [sp], #4
 8001494:	4770      	bx	lr
 8001496:	bf00      	nop
 8001498:	000fffff 	.word	0x000fffff

0800149c <LL_ADC_GetMultimode>:
 800149c:	b480      	push	{r7}
 800149e:	b083      	sub	sp, #12
 80014a0:	af00      	add	r7, sp, #0
 80014a2:	6078      	str	r0, [r7, #4]
 80014a4:	687b      	ldr	r3, [r7, #4]
 80014a6:	689b      	ldr	r3, [r3, #8]
 80014a8:	f003 031f 	and.w	r3, r3, #31
 80014ac:	4618      	mov	r0, r3
 80014ae:	370c      	adds	r7, #12
 80014b0:	46bd      	mov	sp, r7
 80014b2:	f85d 7b04 	ldr.w	r7, [sp], #4
 80014b6:	4770      	bx	lr

080014b8 <LL_ADC_GetMultiDMATransfer>:
 80014b8:	b480      	push	{r7}
 80014ba:	b083      	sub	sp, #12
 80014bc:	af00      	add	r7, sp, #0
 80014be:	6078      	str	r0, [r7, #4]
 80014c0:	687b      	ldr	r3, [r7, #4]
 80014c2:	689b      	ldr	r3, [r3, #8]
 80014c4:	f403 4340 	and.w	r3, r3, #49152	@ 0xc000
 80014c8:	4618      	mov	r0, r3
 80014ca:	370c      	adds	r7, #12
 80014cc:	46bd      	mov	sp, r7
 80014ce:	f85d 7b04 	ldr.w	r7, [sp], #4
 80014d2:	4770      	bx	lr

080014d4 <LL_ADC_DisableDeepPowerDown>:
 80014d4:	b480      	push	{r7}
 80014d6:	b083      	sub	sp, #12
 80014d8:	af00      	add	r7, sp, #0
 80014da:	6078      	str	r0, [r7, #4]
 80014dc:	687b      	ldr	r3, [r7, #4]
 80014de:	689a      	ldr	r2, [r3, #8]
 80014e0:	4b04      	ldr	r3, [pc, #16]	@ (80014f4 <LL_ADC_DisableDeepPowerDown+0x20>)
 80014e2:	4013      	ands	r3, r2
 80014e4:	687a      	ldr	r2, [r7, #4]
 80014e6:	6093      	str	r3, [r2, #8]
 80014e8:	bf00      	nop
 80014ea:	370c      	adds	r7, #12
 80014ec:	46bd      	mov	sp, r7
 80014ee:	f85d 7b04 	ldr.w	r7, [sp], #4
 80014f2:	4770      	bx	lr
 80014f4:	5fffffc0 	.word	0x5fffffc0

080014f8 <LL_ADC_IsDeepPowerDownEnabled>:
 80014f8:	b480      	push	{r7}
 80014fa:	b083      	sub	sp, #12
 80014fc:	af00      	add	r7, sp, #0
 80014fe:	6078      	str	r0, [r7, #4]
 8001500:	687b      	ldr	r3, [r7, #4]
 8001502:	689b      	ldr	r3, [r3, #8]
 8001504:	f003 5300 	and.w	r3, r3, #536870912	@ 0x20000000
 8001508:	f1b3 5f00 	cmp.w	r3, #536870912	@ 0x20000000
 800150c:	d101      	bne.n	8001512 <LL_ADC_IsDeepPowerDownEnabled+0x1a>
 800150e:	2301      	movs	r3, #1
 8001510:	e000      	b.n	8001514 <LL_ADC_IsDeepPowerDownEnabled+0x1c>
 8001512:	2300      	movs	r3, #0
 8001514:	4618      	mov	r0, r3
 8001516:	370c      	adds	r7, #12
 8001518:	46bd      	mov	sp, r7
 800151a:	f85d 7b04 	ldr.w	r7, [sp], #4
 800151e:	4770      	bx	lr

08001520 <LL_ADC_EnableInternalRegulator>:
 8001520:	b480      	push	{r7}
 8001522:	b083      	sub	sp, #12
 8001524:	af00      	add	r7, sp, #0
 8001526:	6078      	str	r0, [r7, #4]
 8001528:	687b      	ldr	r3, [r7, #4]
 800152a:	689a      	ldr	r2, [r3, #8]
 800152c:	4b05      	ldr	r3, [pc, #20]	@ (8001544 <LL_ADC_EnableInternalRegulator+0x24>)
 800152e:	4013      	ands	r3, r2
 8001530:	f043 5280 	orr.w	r2, r3, #268435456	@ 0x10000000
 8001534:	687b      	ldr	r3, [r7, #4]
 8001536:	609a      	str	r2, [r3, #8]
 8001538:	bf00      	nop
 800153a:	370c      	adds	r7, #12
 800153c:	46bd      	mov	sp, r7
 800153e:	f85d 7b04 	ldr.w	r7, [sp], #4
 8001542:	4770      	bx	lr
 8001544:	6fffffc0 	.word	0x6fffffc0

08001548 <LL_ADC_IsInternalRegulatorEnabled>:
 8001548:	b480      	push	{r7}
 800154a:	b083      	sub	sp, #12
 800154c:	af00      	add	r7, sp, #0
 800154e:	6078      	str	r0, [r7, #4]
 8001550:	687b      	ldr	r3, [r7, #4]
 8001552:	689b      	ldr	r3, [r3, #8]
 8001554:	f003 5380 	and.w	r3, r3, #268435456	@ 0x10000000
 8001558:	f1b3 5f80 	cmp.w	r3, #268435456	@ 0x10000000
 800155c:	d101      	bne.n	8001562 <LL_ADC_IsInternalRegulatorEnabled+0x1a>
 800155e:	2301      	movs	r3, #1
 8001560:	e000      	b.n	8001564 <LL_ADC_IsInternalRegulatorEnabled+0x1c>
 8001562:	2300      	movs	r3, #0
 8001564:	4618      	mov	r0, r3
 8001566:	370c      	adds	r7, #12
 8001568:	46bd      	mov	sp, r7
 800156a:	f85d 7b04 	ldr.w	r7, [sp], #4
 800156e:	4770      	bx	lr

08001570 <LL_ADC_Enable>:
 8001570:	b480      	push	{r7}
 8001572:	b083      	sub	sp, #12
 8001574:	af00      	add	r7, sp, #0
 8001576:	6078      	str	r0, [r7, #4]
 8001578:	687b      	ldr	r3, [r7, #4]
 800157a:	689a      	ldr	r2, [r3, #8]
 800157c:	4b05      	ldr	r3, [pc, #20]	@ (8001594 <LL_ADC_Enable+0x24>)
 800157e:	4013      	ands	r3, r2
 8001580:	f043 0201 	orr.w	r2, r3, #1
 8001584:	687b      	ldr	r3, [r7, #4]
 8001586:	609a      	str	r2, [r3, #8]
 8001588:	bf00      	nop
 800158a:	370c      	adds	r7, #12
 800158c:	46bd      	mov	sp, r7
 800158e:	f85d 7b04 	ldr.w	r7, [sp], #4
 8001592:	4770      	bx	lr
 8001594:	7fffffc0 	.word	0x7fffffc0

08001598 <LL_ADC_IsEnabled>:
 8001598:	b480      	push	{r7}
 800159a:	b083      	sub	sp, #12
 800159c:	af00      	add	r7, sp, #0
 800159e:	6078      	str	r0, [r7, #4]
 80015a0:	687b      	ldr	r3, [r7, #4]
 80015a2:	689b      	ldr	r3, [r3, #8]
 80015a4:	f003 0301 	and.w	r3, r3, #1
 80015a8:	2b01      	cmp	r3, #1
 80015aa:	d101      	bne.n	80015b0 <LL_ADC_IsEnabled+0x18>
 80015ac:	2301      	movs	r3, #1
 80015ae:	e000      	b.n	80015b2 <LL_ADC_IsEnabled+0x1a>
 80015b0:	2300      	movs	r3, #0
 80015b2:	4618      	mov	r0, r3
 80015b4:	370c      	adds	r7, #12
 80015b6:	46bd      	mov	sp, r7
 80015b8:	f85d 7b04 	ldr.w	r7, [sp], #4
 80015bc:	4770      	bx	lr
	...

080015c0 <LL_ADC_REG_StartConversion>:
 80015c0:	b480      	push	{r7}
 80015c2:	b083      	sub	sp, #12
 80015c4:	af00      	add	r7, sp, #0
 80015c6:	6078      	str	r0, [r7, #4]
 80015c8:	687b      	ldr	r3, [r7, #4]
 80015ca:	689a      	ldr	r2, [r3, #8]
 80015cc:	4b05      	ldr	r3, [pc, #20]	@ (80015e4 <LL_ADC_REG_StartConversion+0x24>)
 80015ce:	4013      	ands	r3, r2
 80015d0:	f043 0204 	orr.w	r2, r3, #4
 80015d4:	687b      	ldr	r3, [r7, #4]
 80015d6:	609a      	str	r2, [r3, #8]
 80015d8:	bf00      	nop
 80015da:	370c      	adds	r7, #12
 80015dc:	46bd      	mov	sp, r7
 80015de:	f85d 7b04 	ldr.w	r7, [sp], #4
 80015e2:	4770      	bx	lr
 80015e4:	7fffffc0 	.word	0x7fffffc0

080015e8 <LL_ADC_REG_IsConversionOngoing>:
 80015e8:	b480      	push	{r7}
 80015ea:	b083      	sub	sp, #12
 80015ec:	af00      	add	r7, sp, #0
 80015ee:	6078      	str	r0, [r7, #4]
 80015f0:	687b      	ldr	r3, [r7, #4]
 80015f2:	689b      	ldr	r3, [r3, #8]
 80015f4:	f003 0304 	and.w	r3, r3, #4
 80015f8:	2b04      	cmp	r3, #4
 80015fa:	d101      	bne.n	8001600 <LL_ADC_REG_IsConversionOngoing+0x18>
 80015fc:	2301      	movs	r3, #1
 80015fe:	e000      	b.n	8001602 <LL_ADC_REG_IsConversionOngoing+0x1a>
 8001600:	2300      	movs	r3, #0
 8001602:	4618      	mov	r0, r3
 8001604:	370c      	adds	r7, #12
 8001606:	46bd      	mov	sp, r7
 8001608:	f85d 7b04 	ldr.w	r7, [sp], #4
 800160c:	4770      	bx	lr

0800160e <LL_ADC_INJ_IsConversionOngoing>:
 800160e:	b480      	push	{r7}
 8001610:	b083      	sub	sp, #12
 8001612:	af00      	add	r7, sp, #0
 8001614:	6078      	str	r0, [r7, #4]
 8001616:	687b      	ldr	r3, [r7, #4]
 8001618:	689b      	ldr	r3, [r3, #8]
 800161a:	f003 0308 	and.w	r3, r3, #8
 800161e:	2b08      	cmp	r3, #8
 8001620:	d101      	bne.n	8001626 <LL_ADC_INJ_IsConversionOngoing+0x18>
 8001622:	2301      	movs	r3, #1
 8001624:	e000      	b.n	8001628 <LL_ADC_INJ_IsConversionOngoing+0x1a>
 8001626:	2300      	movs	r3, #0
 8001628:	4618      	mov	r0, r3
 800162a:	370c      	adds	r7, #12
 800162c:	46bd      	mov	sp, r7
 800162e:	f85d 7b04 	ldr.w	r7, [sp], #4
 8001632:	4770      	bx	lr

08001634 <HAL_ADC_Init>:
 8001634:	b590      	push	{r4, r7, lr}
 8001636:	b089      	sub	sp, #36	@ 0x24
 8001638:	af00      	add	r7, sp, #0
 800163a:	6078      	str	r0, [r7, #4]
 800163c:	2300      	movs	r3, #0
 800163e:	77fb      	strb	r3, [r7, #31]
 8001640:	2300      	movs	r3, #0
 8001642:	60bb      	str	r3, [r7, #8]
 8001644:	687b      	ldr	r3, [r7, #4]
 8001646:	2b00      	cmp	r3, #0
 8001648:	d101      	bne.n	800164e <HAL_ADC_Init+0x1a>
 800164a:	2301      	movs	r3, #1
 800164c:	e138      	b.n	80018c0 <HAL_ADC_Init+0x28c>
 800164e:	687b      	ldr	r3, [r7, #4]
 8001650:	68db      	ldr	r3, [r3, #12]
 8001652:	2b00      	cmp	r3, #0
 8001654:	687b      	ldr	r3, [r7, #4]
 8001656:	6d5b      	ldr	r3, [r3, #84]	@ 0x54
 8001658:	2b00      	cmp	r3, #0
 800165a:	d109      	bne.n	8001670 <HAL_ADC_Init+0x3c>
 800165c:	6878      	ldr	r0, [r7, #4]
 800165e:	f7ff fb1f 	bl	8000ca0 <HAL_ADC_MspInit>
 8001662:	687b      	ldr	r3, [r7, #4]
 8001664:	2200      	movs	r2, #0
 8001666:	659a      	str	r2, [r3, #88]	@ 0x58
 8001668:	687b      	ldr	r3, [r7, #4]
 800166a:	2200      	movs	r2, #0
 800166c:	f883 2050 	strb.w	r2, [r3, #80]	@ 0x50
 8001670:	687b      	ldr	r3, [r7, #4]
 8001672:	681b      	ldr	r3, [r3, #0]
 8001674:	4618      	mov	r0, r3
 8001676:	f7ff ff3f 	bl	80014f8 <LL_ADC_IsDeepPowerDownEnabled>
 800167a:	4603      	mov	r3, r0
 800167c:	2b00      	cmp	r3, #0
 800167e:	d004      	beq.n	800168a <HAL_ADC_Init+0x56>
 8001680:	687b      	ldr	r3, [r7, #4]
 8001682:	681b      	ldr	r3, [r3, #0]
 8001684:	4618      	mov	r0, r3
 8001686:	f7ff ff25 	bl	80014d4 <LL_ADC_DisableDeepPowerDown>
 800168a:	687b      	ldr	r3, [r7, #4]
 800168c:	681b      	ldr	r3, [r3, #0]
 800168e:	4618      	mov	r0, r3
 8001690:	f7ff ff5a 	bl	8001548 <LL_ADC_IsInternalRegulatorEnabled>
 8001694:	4603      	mov	r3, r0
 8001696:	2b00      	cmp	r3, #0
 8001698:	d114      	bne.n	80016c4 <HAL_ADC_Init+0x90>
 800169a:	687b      	ldr	r3, [r7, #4]
 800169c:	681b      	ldr	r3, [r3, #0]
 800169e:	4618      	mov	r0, r3
 80016a0:	f7ff ff3e 	bl	8001520 <LL_ADC_EnableInternalRegulator>
 80016a4:	4b88      	ldr	r3, [pc, #544]	@ (80018c8 <HAL_ADC_Init+0x294>)
 80016a6:	681b      	ldr	r3, [r3, #0]
 80016a8:	099b      	lsrs	r3, r3, #6
 80016aa:	4a88      	ldr	r2, [pc, #544]	@ (80018cc <HAL_ADC_Init+0x298>)
 80016ac:	fba2 2303 	umull	r2, r3, r2, r3
 80016b0:	099b      	lsrs	r3, r3, #6
 80016b2:	3301      	adds	r3, #1
 80016b4:	60bb      	str	r3, [r7, #8]
 80016b6:	e002      	b.n	80016be <HAL_ADC_Init+0x8a>
 80016b8:	68bb      	ldr	r3, [r7, #8]
 80016ba:	3b01      	subs	r3, #1
 80016bc:	60bb      	str	r3, [r7, #8]
 80016be:	68bb      	ldr	r3, [r7, #8]
 80016c0:	2b00      	cmp	r3, #0
 80016c2:	d1f9      	bne.n	80016b8 <HAL_ADC_Init+0x84>
 80016c4:	687b      	ldr	r3, [r7, #4]
 80016c6:	681b      	ldr	r3, [r3, #0]
 80016c8:	4618      	mov	r0, r3
 80016ca:	f7ff ff3d 	bl	8001548 <LL_ADC_IsInternalRegulatorEnabled>
 80016ce:	4603      	mov	r3, r0
 80016d0:	2b00      	cmp	r3, #0
 80016d2:	d10d      	bne.n	80016f0 <HAL_ADC_Init+0xbc>
 80016d4:	687b      	ldr	r3, [r7, #4]
 80016d6:	6d5b      	ldr	r3, [r3, #84]	@ 0x54
 80016d8:	f043 0210 	orr.w	r2, r3, #16
 80016dc:	687b      	ldr	r3, [r7, #4]
 80016de:	655a      	str	r2, [r3, #84]	@ 0x54
 80016e0:	687b      	ldr	r3, [r7, #4]
 80016e2:	6d9b      	ldr	r3, [r3, #88]	@ 0x58
 80016e4:	f043 0201 	orr.w	r2, r3, #1
 80016e8:	687b      	ldr	r3, [r7, #4]
 80016ea:	659a      	str	r2, [r3, #88]	@ 0x58
 80016ec:	2301      	movs	r3, #1
 80016ee:	77fb      	strb	r3, [r7, #31]
 80016f0:	687b      	ldr	r3, [r7, #4]
 80016f2:	681b      	ldr	r3, [r3, #0]
 80016f4:	4618      	mov	r0, r3
 80016f6:	f7ff ff77 	bl	80015e8 <LL_ADC_REG_IsConversionOngoing>
 80016fa:	6178      	str	r0, [r7, #20]
 80016fc:	687b      	ldr	r3, [r7, #4]
 80016fe:	6d5b      	ldr	r3, [r3, #84]	@ 0x54
 8001700:	f003 0310 	and.w	r3, r3, #16
 8001704:	2b00      	cmp	r3, #0
 8001706:	f040 80d2 	bne.w	80018ae <HAL_ADC_Init+0x27a>
 800170a:	697b      	ldr	r3, [r7, #20]
 800170c:	2b00      	cmp	r3, #0
 800170e:	f040 80ce 	bne.w	80018ae <HAL_ADC_Init+0x27a>
 8001712:	687b      	ldr	r3, [r7, #4]
 8001714:	6d5b      	ldr	r3, [r3, #84]	@ 0x54
 8001716:	f423 7381 	bic.w	r3, r3, #258	@ 0x102
 800171a:	f043 0202 	orr.w	r2, r3, #2
 800171e:	687b      	ldr	r3, [r7, #4]
 8001720:	655a      	str	r2, [r3, #84]	@ 0x54
 8001722:	687b      	ldr	r3, [r7, #4]
 8001724:	681b      	ldr	r3, [r3, #0]
 8001726:	4618      	mov	r0, r3
 8001728:	f7ff ff36 	bl	8001598 <LL_ADC_IsEnabled>
 800172c:	4603      	mov	r3, r0
 800172e:	2b00      	cmp	r3, #0
 8001730:	d110      	bne.n	8001754 <HAL_ADC_Init+0x120>
 8001732:	4867      	ldr	r0, [pc, #412]	@ (80018d0 <HAL_ADC_Init+0x29c>)
 8001734:	f7ff ff30 	bl	8001598 <LL_ADC_IsEnabled>
 8001738:	4604      	mov	r4, r0
 800173a:	4866      	ldr	r0, [pc, #408]	@ (80018d4 <HAL_ADC_Init+0x2a0>)
 800173c:	f7ff ff2c 	bl	8001598 <LL_ADC_IsEnabled>
 8001740:	4603      	mov	r3, r0
 8001742:	4323      	orrs	r3, r4
 8001744:	2b00      	cmp	r3, #0
 8001746:	d105      	bne.n	8001754 <HAL_ADC_Init+0x120>
 8001748:	687b      	ldr	r3, [r7, #4]
 800174a:	685b      	ldr	r3, [r3, #4]
 800174c:	4619      	mov	r1, r3
 800174e:	4862      	ldr	r0, [pc, #392]	@ (80018d8 <HAL_ADC_Init+0x2a4>)
 8001750:	f7ff fd7a 	bl	8001248 <LL_ADC_SetCommonClock>
 8001754:	687b      	ldr	r3, [r7, #4]
 8001756:	7d5b      	ldrb	r3, [r3, #21]
 8001758:	035a      	lsls	r2, r3, #13
 800175a:	687b      	ldr	r3, [r7, #4]
 800175c:	6b1b      	ldr	r3, [r3, #48]	@ 0x30
 800175e:	431a      	orrs	r2, r3
 8001760:	687b      	ldr	r3, [r7, #4]
 8001762:	689b      	ldr	r3, [r3, #8]
 8001764:	431a      	orrs	r2, r3
 8001766:	687b      	ldr	r3, [r7, #4]
 8001768:	7f1b      	ldrb	r3, [r3, #28]
 800176a:	041b      	lsls	r3, r3, #16
 800176c:	4313      	orrs	r3, r2
 800176e:	61bb      	str	r3, [r7, #24]
 8001770:	687b      	ldr	r3, [r7, #4]
 8001772:	7f1b      	ldrb	r3, [r3, #28]
 8001774:	2b01      	cmp	r3, #1
 8001776:	d106      	bne.n	8001786 <HAL_ADC_Init+0x152>
 8001778:	687b      	ldr	r3, [r7, #4]
 800177a:	6a1b      	ldr	r3, [r3, #32]
 800177c:	3b01      	subs	r3, #1
 800177e:	045b      	lsls	r3, r3, #17
 8001780:	69ba      	ldr	r2, [r7, #24]
 8001782:	4313      	orrs	r3, r2
 8001784:	61bb      	str	r3, [r7, #24]
 8001786:	687b      	ldr	r3, [r7, #4]
 8001788:	6a5b      	ldr	r3, [r3, #36]	@ 0x24
 800178a:	2b00      	cmp	r3, #0
 800178c:	d009      	beq.n	80017a2 <HAL_ADC_Init+0x16e>
 800178e:	687b      	ldr	r3, [r7, #4]
 8001790:	6a5b      	ldr	r3, [r3, #36]	@ 0x24
 8001792:	f403 7278 	and.w	r2, r3, #992	@ 0x3e0
 8001796:	687b      	ldr	r3, [r7, #4]
 8001798:	6a9b      	ldr	r3, [r3, #40]	@ 0x28
 800179a:	4313      	orrs	r3, r2
 800179c:	69ba      	ldr	r2, [r7, #24]
 800179e:	4313      	orrs	r3, r2
 80017a0:	61bb      	str	r3, [r7, #24]
 80017a2:	687b      	ldr	r3, [r7, #4]
 80017a4:	681b      	ldr	r3, [r3, #0]
 80017a6:	68da      	ldr	r2, [r3, #12]
 80017a8:	4b4c      	ldr	r3, [pc, #304]	@ (80018dc <HAL_ADC_Init+0x2a8>)
 80017aa:	4013      	ands	r3, r2
 80017ac:	687a      	ldr	r2, [r7, #4]
 80017ae:	6812      	ldr	r2, [r2, #0]
 80017b0:	69b9      	ldr	r1, [r7, #24]
 80017b2:	430b      	orrs	r3, r1
 80017b4:	60d3      	str	r3, [r2, #12]
 80017b6:	687b      	ldr	r3, [r7, #4]
 80017b8:	681b      	ldr	r3, [r3, #0]
 80017ba:	4618      	mov	r0, r3
 80017bc:	f7ff ff14 	bl	80015e8 <LL_ADC_REG_IsConversionOngoing>
 80017c0:	6138      	str	r0, [r7, #16]
 80017c2:	687b      	ldr	r3, [r7, #4]
 80017c4:	681b      	ldr	r3, [r3, #0]
 80017c6:	4618      	mov	r0, r3
 80017c8:	f7ff ff21 	bl	800160e <LL_ADC_INJ_IsConversionOngoing>
 80017cc:	60f8      	str	r0, [r7, #12]
 80017ce:	693b      	ldr	r3, [r7, #16]
 80017d0:	2b00      	cmp	r3, #0
 80017d2:	d14a      	bne.n	800186a <HAL_ADC_Init+0x236>
 80017d4:	68fb      	ldr	r3, [r7, #12]
 80017d6:	2b00      	cmp	r3, #0
 80017d8:	d147      	bne.n	800186a <HAL_ADC_Init+0x236>
 80017da:	687b      	ldr	r3, [r7, #4]
 80017dc:	7d1b      	ldrb	r3, [r3, #20]
 80017de:	039a      	lsls	r2, r3, #14
 80017e0:	687b      	ldr	r3, [r7, #4]
 80017e2:	6adb      	ldr	r3, [r3, #44]	@ 0x2c
 80017e4:	4313      	orrs	r3, r2
 80017e6:	61bb      	str	r3, [r7, #24]
 80017e8:	687b      	ldr	r3, [r7, #4]
 80017ea:	681b      	ldr	r3, [r3, #0]
 80017ec:	68da      	ldr	r2, [r3, #12]
 80017ee:	4b3c      	ldr	r3, [pc, #240]	@ (80018e0 <HAL_ADC_Init+0x2ac>)
 80017f0:	4013      	ands	r3, r2
 80017f2:	687a      	ldr	r2, [r7, #4]
 80017f4:	6812      	ldr	r2, [r2, #0]
 80017f6:	69b9      	ldr	r1, [r7, #24]
 80017f8:	430b      	orrs	r3, r1
 80017fa:	60d3      	str	r3, [r2, #12]
 80017fc:	687b      	ldr	r3, [r7, #4]
 80017fe:	f893 3038 	ldrb.w	r3, [r3, #56]	@ 0x38
 8001802:	2b01      	cmp	r3, #1
 8001804:	d11b      	bne.n	800183e <HAL_ADC_Init+0x20a>
 8001806:	687b      	ldr	r3, [r7, #4]
 8001808:	6a5b      	ldr	r3, [r3, #36]	@ 0x24
 800180a:	2b00      	cmp	r3, #0
 800180c:	687b      	ldr	r3, [r7, #4]
 800180e:	681b      	ldr	r3, [r3, #0]
 8001810:	691a      	ldr	r2, [r3, #16]
 8001812:	4b34      	ldr	r3, [pc, #208]	@ (80018e4 <HAL_ADC_Init+0x2b0>)
 8001814:	4013      	ands	r3, r2
 8001816:	687a      	ldr	r2, [r7, #4]
 8001818:	6bd2      	ldr	r2, [r2, #60]	@ 0x3c
 800181a:	3a01      	subs	r2, #1
 800181c:	0411      	lsls	r1, r2, #16
 800181e:	687a      	ldr	r2, [r7, #4]
 8001820:	6c12      	ldr	r2, [r2, #64]	@ 0x40
 8001822:	4311      	orrs	r1, r2
 8001824:	687a      	ldr	r2, [r7, #4]
 8001826:	6c52      	ldr	r2, [r2, #68]	@ 0x44
 8001828:	4311      	orrs	r1, r2
 800182a:	687a      	ldr	r2, [r7, #4]
 800182c:	6c92      	ldr	r2, [r2, #72]	@ 0x48
 800182e:	430a      	orrs	r2, r1
 8001830:	431a      	orrs	r2, r3
 8001832:	687b      	ldr	r3, [r7, #4]
 8001834:	681b      	ldr	r3, [r3, #0]
 8001836:	f042 0201 	orr.w	r2, r2, #1
 800183a:	611a      	str	r2, [r3, #16]
 800183c:	e007      	b.n	800184e <HAL_ADC_Init+0x21a>
 800183e:	687b      	ldr	r3, [r7, #4]
 8001840:	681b      	ldr	r3, [r3, #0]
 8001842:	691a      	ldr	r2, [r3, #16]
 8001844:	687b      	ldr	r3, [r7, #4]
 8001846:	681b      	ldr	r3, [r3, #0]
 8001848:	f022 0201 	bic.w	r2, r2, #1
 800184c:	611a      	str	r2, [r3, #16]
 800184e:	687b      	ldr	r3, [r7, #4]
 8001850:	681b      	ldr	r3, [r3, #0]
 8001852:	691b      	ldr	r3, [r3, #16]
 8001854:	f023 4170 	bic.w	r1, r3, #4026531840	@ 0xf0000000
 8001858:	687b      	ldr	r3, [r7, #4]
 800185a:	6b5a      	ldr	r2, [r3, #52]	@ 0x34
 800185c:	687b      	ldr	r3, [r7, #4]
 800185e:	681b      	ldr	r3, [r3, #0]
 8001860:	430a      	orrs	r2, r1
 8001862:	611a      	str	r2, [r3, #16]
 8001864:	6878      	ldr	r0, [r7, #4]
 8001866:	f000 ff21 	bl	80026ac <ADC_ConfigureBoostMode>
 800186a:	687b      	ldr	r3, [r7, #4]
 800186c:	68db      	ldr	r3, [r3, #12]
 800186e:	2b01      	cmp	r3, #1
 8001870:	d10c      	bne.n	800188c <HAL_ADC_Init+0x258>
 8001872:	687b      	ldr	r3, [r7, #4]
 8001874:	681b      	ldr	r3, [r3, #0]
 8001876:	6b1b      	ldr	r3, [r3, #48]	@ 0x30
 8001878:	f023 010f 	bic.w	r1, r3, #15
 800187c:	687b      	ldr	r3, [r7, #4]
 800187e:	699b      	ldr	r3, [r3, #24]
 8001880:	1e5a      	subs	r2, r3, #1
 8001882:	687b      	ldr	r3, [r7, #4]
 8001884:	681b      	ldr	r3, [r3, #0]
 8001886:	430a      	orrs	r2, r1
 8001888:	631a      	str	r2, [r3, #48]	@ 0x30
 800188a:	e007      	b.n	800189c <HAL_ADC_Init+0x268>
 800188c:	687b      	ldr	r3, [r7, #4]
 800188e:	681b      	ldr	r3, [r3, #0]
 8001890:	6b1a      	ldr	r2, [r3, #48]	@ 0x30
 8001892:	687b      	ldr	r3, [r7, #4]
 8001894:	681b      	ldr	r3, [r3, #0]
 8001896:	f022 020f 	bic.w	r2, r2, #15
 800189a:	631a      	str	r2, [r3, #48]	@ 0x30
 800189c:	687b      	ldr	r3, [r7, #4]
 800189e:	6d5b      	ldr	r3, [r3, #84]	@ 0x54
 80018a0:	f023 0303 	bic.w	r3, r3, #3
 80018a4:	f043 0201 	orr.w	r2, r3, #1
 80018a8:	687b      	ldr	r3, [r7, #4]
 80018aa:	655a      	str	r2, [r3, #84]	@ 0x54
 80018ac:	e007      	b.n	80018be <HAL_ADC_Init+0x28a>
 80018ae:	687b      	ldr	r3, [r7, #4]
 80018b0:	6d5b      	ldr	r3, [r3, #84]	@ 0x54
 80018b2:	f043 0210 	orr.w	r2, r3, #16
 80018b6:	687b      	ldr	r3, [r7, #4]
 80018b8:	655a      	str	r2, [r3, #84]	@ 0x54
 80018ba:	2301      	movs	r3, #1
 80018bc:	77fb      	strb	r3, [r7, #31]
 80018be:	7ffb      	ldrb	r3, [r7, #31]
 80018c0:	4618      	mov	r0, r3
 80018c2:	3724      	adds	r7, #36	@ 0x24
 80018c4:	46bd      	mov	sp, r7
 80018c6:	bd90      	pop	{r4, r7, pc}
 80018c8:	24000000 	.word	0x24000000
 80018cc:	053e2d63 	.word	0x053e2d63
 80018d0:	40022000 	.word	0x40022000
 80018d4:	40022100 	.word	0x40022100
 80018d8:	40022300 	.word	0x40022300
 80018dc:	fff0c003 	.word	0xfff0c003
 80018e0:	ffffbffc 	.word	0xffffbffc
 80018e4:	fc00f81e 	.word	0xfc00f81e

080018e8 <HAL_ADC_Start>:
 80018e8:	b580      	push	{r7, lr}
 80018ea:	b086      	sub	sp, #24
 80018ec:	af00      	add	r7, sp, #0
 80018ee:	6078      	str	r0, [r7, #4]
 80018f0:	4856      	ldr	r0, [pc, #344]	@ (8001a4c <HAL_ADC_Start+0x164>)
 80018f2:	f7ff fdd3 	bl	800149c <LL_ADC_GetMultimode>
 80018f6:	6138      	str	r0, [r7, #16]
 80018f8:	687b      	ldr	r3, [r7, #4]
 80018fa:	681b      	ldr	r3, [r3, #0]
 80018fc:	4618      	mov	r0, r3
 80018fe:	f7ff fe73 	bl	80015e8 <LL_ADC_REG_IsConversionOngoing>
 8001902:	4603      	mov	r3, r0
 8001904:	2b00      	cmp	r3, #0
 8001906:	f040 809a 	bne.w	8001a3e <HAL_ADC_Start+0x156>
 800190a:	687b      	ldr	r3, [r7, #4]
 800190c:	f893 3050 	ldrb.w	r3, [r3, #80]	@ 0x50
 8001910:	2b01      	cmp	r3, #1
 8001912:	d101      	bne.n	8001918 <HAL_ADC_Start+0x30>
 8001914:	2302      	movs	r3, #2
 8001916:	e095      	b.n	8001a44 <HAL_ADC_Start+0x15c>
 8001918:	687b      	ldr	r3, [r7, #4]
 800191a:	2201      	movs	r2, #1
 800191c:	f883 2050 	strb.w	r2, [r3, #80]	@ 0x50
 8001920:	6878      	ldr	r0, [r7, #4]
 8001922:	f000 fdb3 	bl	800248c <ADC_Enable>
 8001926:	4603      	mov	r3, r0
 8001928:	75fb      	strb	r3, [r7, #23]
 800192a:	7dfb      	ldrb	r3, [r7, #23]
 800192c:	2b00      	cmp	r3, #0
 800192e:	f040 8081 	bne.w	8001a34 <HAL_ADC_Start+0x14c>
 8001932:	687b      	ldr	r3, [r7, #4]
 8001934:	6d5a      	ldr	r2, [r3, #84]	@ 0x54
 8001936:	4b46      	ldr	r3, [pc, #280]	@ (8001a50 <HAL_ADC_Start+0x168>)
 8001938:	4013      	ands	r3, r2
 800193a:	f443 7280 	orr.w	r2, r3, #256	@ 0x100
 800193e:	687b      	ldr	r3, [r7, #4]
 8001940:	655a      	str	r2, [r3, #84]	@ 0x54
 8001942:	687b      	ldr	r3, [r7, #4]
 8001944:	681b      	ldr	r3, [r3, #0]
 8001946:	4a43      	ldr	r2, [pc, #268]	@ (8001a54 <HAL_ADC_Start+0x16c>)
 8001948:	4293      	cmp	r3, r2
 800194a:	d002      	beq.n	8001952 <HAL_ADC_Start+0x6a>
 800194c:	687b      	ldr	r3, [r7, #4]
 800194e:	681b      	ldr	r3, [r3, #0]
 8001950:	e000      	b.n	8001954 <HAL_ADC_Start+0x6c>
 8001952:	4b41      	ldr	r3, [pc, #260]	@ (8001a58 <HAL_ADC_Start+0x170>)
 8001954:	687a      	ldr	r2, [r7, #4]
 8001956:	6812      	ldr	r2, [r2, #0]
 8001958:	4293      	cmp	r3, r2
 800195a:	d002      	beq.n	8001962 <HAL_ADC_Start+0x7a>
 800195c:	693b      	ldr	r3, [r7, #16]
 800195e:	2b00      	cmp	r3, #0
 8001960:	d105      	bne.n	800196e <HAL_ADC_Start+0x86>
 8001962:	687b      	ldr	r3, [r7, #4]
 8001964:	6d5b      	ldr	r3, [r3, #84]	@ 0x54
 8001966:	f423 1280 	bic.w	r2, r3, #1048576	@ 0x100000
 800196a:	687b      	ldr	r3, [r7, #4]
 800196c:	655a      	str	r2, [r3, #84]	@ 0x54
 800196e:	687b      	ldr	r3, [r7, #4]
 8001970:	6d5b      	ldr	r3, [r3, #84]	@ 0x54
 8001972:	f403 5380 	and.w	r3, r3, #4096	@ 0x1000
 8001976:	f5b3 5f80 	cmp.w	r3, #4096	@ 0x1000
 800197a:	d106      	bne.n	800198a <HAL_ADC_Start+0xa2>
 800197c:	687b      	ldr	r3, [r7, #4]
 800197e:	6d9b      	ldr	r3, [r3, #88]	@ 0x58
 8001980:	f023 0206 	bic.w	r2, r3, #6
 8001984:	687b      	ldr	r3, [r7, #4]
 8001986:	659a      	str	r2, [r3, #88]	@ 0x58
 8001988:	e002      	b.n	8001990 <HAL_ADC_Start+0xa8>
 800198a:	687b      	ldr	r3, [r7, #4]
 800198c:	2200      	movs	r2, #0
 800198e:	659a      	str	r2, [r3, #88]	@ 0x58
 8001990:	687b      	ldr	r3, [r7, #4]
 8001992:	681b      	ldr	r3, [r3, #0]
 8001994:	221c      	movs	r2, #28
 8001996:	601a      	str	r2, [r3, #0]
 8001998:	687b      	ldr	r3, [r7, #4]
 800199a:	2200      	movs	r2, #0
 800199c:	f883 2050 	strb.w	r2, [r3, #80]	@ 0x50
 80019a0:	687b      	ldr	r3, [r7, #4]
 80019a2:	681b      	ldr	r3, [r3, #0]
 80019a4:	4a2b      	ldr	r2, [pc, #172]	@ (8001a54 <HAL_ADC_Start+0x16c>)
 80019a6:	4293      	cmp	r3, r2
 80019a8:	d002      	beq.n	80019b0 <HAL_ADC_Start+0xc8>
 80019aa:	687b      	ldr	r3, [r7, #4]
 80019ac:	681b      	ldr	r3, [r3, #0]
 80019ae:	e000      	b.n	80019b2 <HAL_ADC_Start+0xca>
 80019b0:	4b29      	ldr	r3, [pc, #164]	@ (8001a58 <HAL_ADC_Start+0x170>)
 80019b2:	687a      	ldr	r2, [r7, #4]
 80019b4:	6812      	ldr	r2, [r2, #0]
 80019b6:	4293      	cmp	r3, r2
 80019b8:	d008      	beq.n	80019cc <HAL_ADC_Start+0xe4>
 80019ba:	693b      	ldr	r3, [r7, #16]
 80019bc:	2b00      	cmp	r3, #0
 80019be:	d005      	beq.n	80019cc <HAL_ADC_Start+0xe4>
 80019c0:	693b      	ldr	r3, [r7, #16]
 80019c2:	2b05      	cmp	r3, #5
 80019c4:	d002      	beq.n	80019cc <HAL_ADC_Start+0xe4>
 80019c6:	693b      	ldr	r3, [r7, #16]
 80019c8:	2b09      	cmp	r3, #9
 80019ca:	d114      	bne.n	80019f6 <HAL_ADC_Start+0x10e>
 80019cc:	687b      	ldr	r3, [r7, #4]
 80019ce:	681b      	ldr	r3, [r3, #0]
 80019d0:	68db      	ldr	r3, [r3, #12]
 80019d2:	f003 7300 	and.w	r3, r3, #33554432	@ 0x2000000
 80019d6:	2b00      	cmp	r3, #0
 80019d8:	d007      	beq.n	80019ea <HAL_ADC_Start+0x102>
 80019da:	687b      	ldr	r3, [r7, #4]
 80019dc:	6d5b      	ldr	r3, [r3, #84]	@ 0x54
 80019de:	f423 5340 	bic.w	r3, r3, #12288	@ 0x3000
 80019e2:	f443 5280 	orr.w	r2, r3, #4096	@ 0x1000
 80019e6:	687b      	ldr	r3, [r7, #4]
 80019e8:	655a      	str	r2, [r3, #84]	@ 0x54
 80019ea:	687b      	ldr	r3, [r7, #4]
 80019ec:	681b      	ldr	r3, [r3, #0]
 80019ee:	4618      	mov	r0, r3
 80019f0:	f7ff fde6 	bl	80015c0 <LL_ADC_REG_StartConversion>
 80019f4:	e025      	b.n	8001a42 <HAL_ADC_Start+0x15a>
 80019f6:	687b      	ldr	r3, [r7, #4]
 80019f8:	6d5b      	ldr	r3, [r3, #84]	@ 0x54
 80019fa:	f443 1280 	orr.w	r2, r3, #1048576	@ 0x100000
 80019fe:	687b      	ldr	r3, [r7, #4]
 8001a00:	655a      	str	r2, [r3, #84]	@ 0x54
 8001a02:	687b      	ldr	r3, [r7, #4]
 8001a04:	681b      	ldr	r3, [r3, #0]
 8001a06:	4a13      	ldr	r2, [pc, #76]	@ (8001a54 <HAL_ADC_Start+0x16c>)
 8001a08:	4293      	cmp	r3, r2
 8001a0a:	d002      	beq.n	8001a12 <HAL_ADC_Start+0x12a>
 8001a0c:	687b      	ldr	r3, [r7, #4]
 8001a0e:	681b      	ldr	r3, [r3, #0]
 8001a10:	e000      	b.n	8001a14 <HAL_ADC_Start+0x12c>
 8001a12:	4b11      	ldr	r3, [pc, #68]	@ (8001a58 <HAL_ADC_Start+0x170>)
 8001a14:	60fb      	str	r3, [r7, #12]
 8001a16:	68fb      	ldr	r3, [r7, #12]
 8001a18:	68db      	ldr	r3, [r3, #12]
 8001a1a:	f003 7300 	and.w	r3, r3, #33554432	@ 0x2000000
 8001a1e:	2b00      	cmp	r3, #0
 8001a20:	d00f      	beq.n	8001a42 <HAL_ADC_Start+0x15a>
 8001a22:	687b      	ldr	r3, [r7, #4]
 8001a24:	6d5b      	ldr	r3, [r3, #84]	@ 0x54
 8001a26:	f423 5340 	bic.w	r3, r3, #12288	@ 0x3000
 8001a2a:	f443 5280 	orr.w	r2, r3, #4096	@ 0x1000
 8001a2e:	687b      	ldr	r3, [r7, #4]
 8001a30:	655a      	str	r2, [r3, #84]	@ 0x54
 8001a32:	e006      	b.n	8001a42 <HAL_ADC_Start+0x15a>
 8001a34:	687b      	ldr	r3, [r7, #4]
 8001a36:	2200      	movs	r2, #0
 8001a38:	f883 2050 	strb.w	r2, [r3, #80]	@ 0x50
 8001a3c:	e001      	b.n	8001a42 <HAL_ADC_Start+0x15a>
 8001a3e:	2302      	movs	r3, #2
 8001a40:	75fb      	strb	r3, [r7, #23]
 8001a42:	7dfb      	ldrb	r3, [r7, #23]
 8001a44:	4618      	mov	r0, r3
 8001a46:	3718      	adds	r7, #24
 8001a48:	46bd      	mov	sp, r7
 8001a4a:	bd80      	pop	{r7, pc}
 8001a4c:	40022300 	.word	0x40022300
 8001a50:	fffff0fe 	.word	0xfffff0fe
 8001a54:	40022100 	.word	0x40022100
 8001a58:	40022000 	.word	0x40022000

08001a5c <HAL_ADC_IRQHandler>:
 8001a5c:	b580      	push	{r7, lr}
 8001a5e:	b08a      	sub	sp, #40	@ 0x28
 8001a60:	af00      	add	r7, sp, #0
 8001a62:	6078      	str	r0, [r7, #4]
 8001a64:	2300      	movs	r3, #0
 8001a66:	627b      	str	r3, [r7, #36]	@ 0x24
 8001a68:	687b      	ldr	r3, [r7, #4]
 8001a6a:	681b      	ldr	r3, [r3, #0]
 8001a6c:	681b      	ldr	r3, [r3, #0]
 8001a6e:	61fb      	str	r3, [r7, #28]
 8001a70:	687b      	ldr	r3, [r7, #4]
 8001a72:	681b      	ldr	r3, [r3, #0]
 8001a74:	685b      	ldr	r3, [r3, #4]
 8001a76:	61bb      	str	r3, [r7, #24]
 8001a78:	4882      	ldr	r0, [pc, #520]	@ (8001c84 <HAL_ADC_IRQHandler+0x228>)
 8001a7a:	f7ff fd0f 	bl	800149c <LL_ADC_GetMultimode>
 8001a7e:	6178      	str	r0, [r7, #20]
 8001a80:	69fb      	ldr	r3, [r7, #28]
 8001a82:	f003 0302 	and.w	r3, r3, #2
 8001a86:	2b00      	cmp	r3, #0
 8001a88:	d017      	beq.n	8001aba <HAL_ADC_IRQHandler+0x5e>
 8001a8a:	69bb      	ldr	r3, [r7, #24]
 8001a8c:	f003 0302 	and.w	r3, r3, #2
 8001a90:	2b00      	cmp	r3, #0
 8001a92:	d012      	beq.n	8001aba <HAL_ADC_IRQHandler+0x5e>
 8001a94:	687b      	ldr	r3, [r7, #4]
 8001a96:	6d5b      	ldr	r3, [r3, #84]	@ 0x54
 8001a98:	f003 0310 	and.w	r3, r3, #16
 8001a9c:	2b00      	cmp	r3, #0
 8001a9e:	d105      	bne.n	8001aac <HAL_ADC_IRQHandler+0x50>
 8001aa0:	687b      	ldr	r3, [r7, #4]
 8001aa2:	6d5b      	ldr	r3, [r3, #84]	@ 0x54
 8001aa4:	f443 6200 	orr.w	r2, r3, #2048	@ 0x800
 8001aa8:	687b      	ldr	r3, [r7, #4]
 8001aaa:	655a      	str	r2, [r3, #84]	@ 0x54
 8001aac:	6878      	ldr	r0, [r7, #4]
 8001aae:	f000 ffff 	bl	8002ab0 <HAL_ADCEx_EndOfSamplingCallback>
 8001ab2:	687b      	ldr	r3, [r7, #4]
 8001ab4:	681b      	ldr	r3, [r3, #0]
 8001ab6:	2202      	movs	r2, #2
 8001ab8:	601a      	str	r2, [r3, #0]
 8001aba:	69fb      	ldr	r3, [r7, #28]
 8001abc:	f003 0304 	and.w	r3, r3, #4
 8001ac0:	2b00      	cmp	r3, #0
 8001ac2:	d004      	beq.n	8001ace <HAL_ADC_IRQHandler+0x72>
 8001ac4:	69bb      	ldr	r3, [r7, #24]
 8001ac6:	f003 0304 	and.w	r3, r3, #4
 8001aca:	2b00      	cmp	r3, #0
 8001acc:	d10a      	bne.n	8001ae4 <HAL_ADC_IRQHandler+0x88>
 8001ace:	69fb      	ldr	r3, [r7, #28]
 8001ad0:	f003 0308 	and.w	r3, r3, #8
 8001ad4:	2b00      	cmp	r3, #0
 8001ad6:	f000 8083 	beq.w	8001be0 <HAL_ADC_IRQHandler+0x184>
 8001ada:	69bb      	ldr	r3, [r7, #24]
 8001adc:	f003 0308 	and.w	r3, r3, #8
 8001ae0:	2b00      	cmp	r3, #0
 8001ae2:	d07d      	beq.n	8001be0 <HAL_ADC_IRQHandler+0x184>
 8001ae4:	687b      	ldr	r3, [r7, #4]
 8001ae6:	6d5b      	ldr	r3, [r3, #84]	@ 0x54
 8001ae8:	f003 0310 	and.w	r3, r3, #16
 8001aec:	2b00      	cmp	r3, #0
 8001aee:	d105      	bne.n	8001afc <HAL_ADC_IRQHandler+0xa0>
 8001af0:	687b      	ldr	r3, [r7, #4]
 8001af2:	6d5b      	ldr	r3, [r3, #84]	@ 0x54
 8001af4:	f443 7200 	orr.w	r2, r3, #512	@ 0x200
 8001af8:	687b      	ldr	r3, [r7, #4]
 8001afa:	655a      	str	r2, [r3, #84]	@ 0x54
 8001afc:	687b      	ldr	r3, [r7, #4]
 8001afe:	681b      	ldr	r3, [r3, #0]
 8001b00:	4618      	mov	r0, r3
 8001b02:	f7ff fc29 	bl	8001358 <LL_ADC_REG_IsTriggerSourceSWStart>
 8001b06:	4603      	mov	r3, r0
 8001b08:	2b00      	cmp	r3, #0
 8001b0a:	d062      	beq.n	8001bd2 <HAL_ADC_IRQHandler+0x176>
 8001b0c:	687b      	ldr	r3, [r7, #4]
 8001b0e:	681b      	ldr	r3, [r3, #0]
 8001b10:	4a5d      	ldr	r2, [pc, #372]	@ (8001c88 <HAL_ADC_IRQHandler+0x22c>)
 8001b12:	4293      	cmp	r3, r2
 8001b14:	d002      	beq.n	8001b1c <HAL_ADC_IRQHandler+0xc0>
 8001b16:	687b      	ldr	r3, [r7, #4]
 8001b18:	681b      	ldr	r3, [r3, #0]
 8001b1a:	e000      	b.n	8001b1e <HAL_ADC_IRQHandler+0xc2>
 8001b1c:	4b5b      	ldr	r3, [pc, #364]	@ (8001c8c <HAL_ADC_IRQHandler+0x230>)
 8001b1e:	687a      	ldr	r2, [r7, #4]
 8001b20:	6812      	ldr	r2, [r2, #0]
 8001b22:	4293      	cmp	r3, r2
 8001b24:	d008      	beq.n	8001b38 <HAL_ADC_IRQHandler+0xdc>
 8001b26:	697b      	ldr	r3, [r7, #20]
 8001b28:	2b00      	cmp	r3, #0
 8001b2a:	d005      	beq.n	8001b38 <HAL_ADC_IRQHandler+0xdc>
 8001b2c:	697b      	ldr	r3, [r7, #20]
 8001b2e:	2b05      	cmp	r3, #5
 8001b30:	d002      	beq.n	8001b38 <HAL_ADC_IRQHandler+0xdc>
 8001b32:	697b      	ldr	r3, [r7, #20]
 8001b34:	2b09      	cmp	r3, #9
 8001b36:	d104      	bne.n	8001b42 <HAL_ADC_IRQHandler+0xe6>
 8001b38:	687b      	ldr	r3, [r7, #4]
 8001b3a:	681b      	ldr	r3, [r3, #0]
 8001b3c:	68db      	ldr	r3, [r3, #12]
 8001b3e:	623b      	str	r3, [r7, #32]
 8001b40:	e00c      	b.n	8001b5c <HAL_ADC_IRQHandler+0x100>
 8001b42:	687b      	ldr	r3, [r7, #4]
 8001b44:	681b      	ldr	r3, [r3, #0]
 8001b46:	4a50      	ldr	r2, [pc, #320]	@ (8001c88 <HAL_ADC_IRQHandler+0x22c>)
 8001b48:	4293      	cmp	r3, r2
 8001b4a:	d002      	beq.n	8001b52 <HAL_ADC_IRQHandler+0xf6>
 8001b4c:	687b      	ldr	r3, [r7, #4]
 8001b4e:	681b      	ldr	r3, [r3, #0]
 8001b50:	e000      	b.n	8001b54 <HAL_ADC_IRQHandler+0xf8>
 8001b52:	4b4e      	ldr	r3, [pc, #312]	@ (8001c8c <HAL_ADC_IRQHandler+0x230>)
 8001b54:	613b      	str	r3, [r7, #16]
 8001b56:	693b      	ldr	r3, [r7, #16]
 8001b58:	68db      	ldr	r3, [r3, #12]
 8001b5a:	623b      	str	r3, [r7, #32]
 8001b5c:	6a3b      	ldr	r3, [r7, #32]
 8001b5e:	f403 5300 	and.w	r3, r3, #8192	@ 0x2000
 8001b62:	2b00      	cmp	r3, #0
 8001b64:	d135      	bne.n	8001bd2 <HAL_ADC_IRQHandler+0x176>
 8001b66:	687b      	ldr	r3, [r7, #4]
 8001b68:	681b      	ldr	r3, [r3, #0]
 8001b6a:	681b      	ldr	r3, [r3, #0]
 8001b6c:	f003 0308 	and.w	r3, r3, #8
 8001b70:	2b08      	cmp	r3, #8
 8001b72:	d12e      	bne.n	8001bd2 <HAL_ADC_IRQHandler+0x176>
 8001b74:	687b      	ldr	r3, [r7, #4]
 8001b76:	681b      	ldr	r3, [r3, #0]
 8001b78:	4618      	mov	r0, r3
 8001b7a:	f7ff fd35 	bl	80015e8 <LL_ADC_REG_IsConversionOngoing>
 8001b7e:	4603      	mov	r3, r0
 8001b80:	2b00      	cmp	r3, #0
 8001b82:	d11a      	bne.n	8001bba <HAL_ADC_IRQHandler+0x15e>
 8001b84:	687b      	ldr	r3, [r7, #4]
 8001b86:	681b      	ldr	r3, [r3, #0]
 8001b88:	685a      	ldr	r2, [r3, #4]
 8001b8a:	687b      	ldr	r3, [r7, #4]
 8001b8c:	681b      	ldr	r3, [r3, #0]
 8001b8e:	f022 020c 	bic.w	r2, r2, #12
 8001b92:	605a      	str	r2, [r3, #4]
 8001b94:	687b      	ldr	r3, [r7, #4]
 8001b96:	6d5b      	ldr	r3, [r3, #84]	@ 0x54
 8001b98:	f423 7280 	bic.w	r2, r3, #256	@ 0x100
 8001b9c:	687b      	ldr	r3, [r7, #4]
 8001b9e:	655a      	str	r2, [r3, #84]	@ 0x54
 8001ba0:	687b      	ldr	r3, [r7, #4]
 8001ba2:	6d5b      	ldr	r3, [r3, #84]	@ 0x54
 8001ba4:	f403 5380 	and.w	r3, r3, #4096	@ 0x1000
 8001ba8:	2b00      	cmp	r3, #0
 8001baa:	d112      	bne.n	8001bd2 <HAL_ADC_IRQHandler+0x176>
 8001bac:	687b      	ldr	r3, [r7, #4]
 8001bae:	6d5b      	ldr	r3, [r3, #84]	@ 0x54
 8001bb0:	f043 0201 	orr.w	r2, r3, #1
 8001bb4:	687b      	ldr	r3, [r7, #4]
 8001bb6:	655a      	str	r2, [r3, #84]	@ 0x54
 8001bb8:	e00b      	b.n	8001bd2 <HAL_ADC_IRQHandler+0x176>
 8001bba:	687b      	ldr	r3, [r7, #4]
 8001bbc:	6d5b      	ldr	r3, [r3, #84]	@ 0x54
 8001bbe:	f043 0210 	orr.w	r2, r3, #16
 8001bc2:	687b      	ldr	r3, [r7, #4]
 8001bc4:	655a      	str	r2, [r3, #84]	@ 0x54
 8001bc6:	687b      	ldr	r3, [r7, #4]
 8001bc8:	6d9b      	ldr	r3, [r3, #88]	@ 0x58
 8001bca:	f043 0201 	orr.w	r2, r3, #1
 8001bce:	687b      	ldr	r3, [r7, #4]
 8001bd0:	659a      	str	r2, [r3, #88]	@ 0x58
 8001bd2:	6878      	ldr	r0, [r7, #4]
 8001bd4:	f7ff f808 	bl	8000be8 <HAL_ADC_ConvCpltCallback>
 8001bd8:	687b      	ldr	r3, [r7, #4]
 8001bda:	681b      	ldr	r3, [r3, #0]
 8001bdc:	220c      	movs	r2, #12
 8001bde:	601a      	str	r2, [r3, #0]
 8001be0:	69fb      	ldr	r3, [r7, #28]
 8001be2:	f003 0320 	and.w	r3, r3, #32
 8001be6:	2b00      	cmp	r3, #0
 8001be8:	d004      	beq.n	8001bf4 <HAL_ADC_IRQHandler+0x198>
 8001bea:	69bb      	ldr	r3, [r7, #24]
 8001bec:	f003 0320 	and.w	r3, r3, #32
 8001bf0:	2b00      	cmp	r3, #0
 8001bf2:	d10b      	bne.n	8001c0c <HAL_ADC_IRQHandler+0x1b0>
 8001bf4:	69fb      	ldr	r3, [r7, #28]
 8001bf6:	f003 0340 	and.w	r3, r3, #64	@ 0x40
 8001bfa:	2b00      	cmp	r3, #0
 8001bfc:	f000 809f 	beq.w	8001d3e <HAL_ADC_IRQHandler+0x2e2>
 8001c00:	69bb      	ldr	r3, [r7, #24]
 8001c02:	f003 0340 	and.w	r3, r3, #64	@ 0x40
 8001c06:	2b00      	cmp	r3, #0
 8001c08:	f000 8099 	beq.w	8001d3e <HAL_ADC_IRQHandler+0x2e2>
 8001c0c:	687b      	ldr	r3, [r7, #4]
 8001c0e:	6d5b      	ldr	r3, [r3, #84]	@ 0x54
 8001c10:	f003 0310 	and.w	r3, r3, #16
 8001c14:	2b00      	cmp	r3, #0
 8001c16:	d105      	bne.n	8001c24 <HAL_ADC_IRQHandler+0x1c8>
 8001c18:	687b      	ldr	r3, [r7, #4]
 8001c1a:	6d5b      	ldr	r3, [r3, #84]	@ 0x54
 8001c1c:	f443 5200 	orr.w	r2, r3, #8192	@ 0x2000
 8001c20:	687b      	ldr	r3, [r7, #4]
 8001c22:	655a      	str	r2, [r3, #84]	@ 0x54
 8001c24:	687b      	ldr	r3, [r7, #4]
 8001c26:	681b      	ldr	r3, [r3, #0]
 8001c28:	4618      	mov	r0, r3
 8001c2a:	f7ff fbd4 	bl	80013d6 <LL_ADC_INJ_IsTriggerSourceSWStart>
 8001c2e:	60f8      	str	r0, [r7, #12]
 8001c30:	687b      	ldr	r3, [r7, #4]
 8001c32:	681b      	ldr	r3, [r3, #0]
 8001c34:	4618      	mov	r0, r3
 8001c36:	f7ff fb8f 	bl	8001358 <LL_ADC_REG_IsTriggerSourceSWStart>
 8001c3a:	60b8      	str	r0, [r7, #8]
 8001c3c:	687b      	ldr	r3, [r7, #4]
 8001c3e:	681b      	ldr	r3, [r3, #0]
 8001c40:	4a11      	ldr	r2, [pc, #68]	@ (8001c88 <HAL_ADC_IRQHandler+0x22c>)
 8001c42:	4293      	cmp	r3, r2
 8001c44:	d002      	beq.n	8001c4c <HAL_ADC_IRQHandler+0x1f0>
 8001c46:	687b      	ldr	r3, [r7, #4]
 8001c48:	681b      	ldr	r3, [r3, #0]
 8001c4a:	e000      	b.n	8001c4e <HAL_ADC_IRQHandler+0x1f2>
 8001c4c:	4b0f      	ldr	r3, [pc, #60]	@ (8001c8c <HAL_ADC_IRQHandler+0x230>)
 8001c4e:	687a      	ldr	r2, [r7, #4]
 8001c50:	6812      	ldr	r2, [r2, #0]
 8001c52:	4293      	cmp	r3, r2
 8001c54:	d008      	beq.n	8001c68 <HAL_ADC_IRQHandler+0x20c>
 8001c56:	697b      	ldr	r3, [r7, #20]
 8001c58:	2b00      	cmp	r3, #0
 8001c5a:	d005      	beq.n	8001c68 <HAL_ADC_IRQHandler+0x20c>
 8001c5c:	697b      	ldr	r3, [r7, #20]
 8001c5e:	2b06      	cmp	r3, #6
 8001c60:	d002      	beq.n	8001c68 <HAL_ADC_IRQHandler+0x20c>
 8001c62:	697b      	ldr	r3, [r7, #20]
 8001c64:	2b07      	cmp	r3, #7
 8001c66:	d104      	bne.n	8001c72 <HAL_ADC_IRQHandler+0x216>
 8001c68:	687b      	ldr	r3, [r7, #4]
 8001c6a:	681b      	ldr	r3, [r3, #0]
 8001c6c:	68db      	ldr	r3, [r3, #12]
 8001c6e:	623b      	str	r3, [r7, #32]
 8001c70:	e013      	b.n	8001c9a <HAL_ADC_IRQHandler+0x23e>
 8001c72:	687b      	ldr	r3, [r7, #4]
 8001c74:	681b      	ldr	r3, [r3, #0]
 8001c76:	4a04      	ldr	r2, [pc, #16]	@ (8001c88 <HAL_ADC_IRQHandler+0x22c>)
 8001c78:	4293      	cmp	r3, r2
 8001c7a:	d009      	beq.n	8001c90 <HAL_ADC_IRQHandler+0x234>
 8001c7c:	687b      	ldr	r3, [r7, #4]
 8001c7e:	681b      	ldr	r3, [r3, #0]
 8001c80:	e007      	b.n	8001c92 <HAL_ADC_IRQHandler+0x236>
 8001c82:	bf00      	nop
 8001c84:	40022300 	.word	0x40022300
 8001c88:	40022100 	.word	0x40022100
 8001c8c:	40022000 	.word	0x40022000
 8001c90:	4b7d      	ldr	r3, [pc, #500]	@ (8001e88 <HAL_ADC_IRQHandler+0x42c>)
 8001c92:	613b      	str	r3, [r7, #16]
 8001c94:	693b      	ldr	r3, [r7, #16]
 8001c96:	68db      	ldr	r3, [r3, #12]
 8001c98:	623b      	str	r3, [r7, #32]
 8001c9a:	68fb      	ldr	r3, [r7, #12]
 8001c9c:	2b00      	cmp	r3, #0
 8001c9e:	d047      	beq.n	8001d30 <HAL_ADC_IRQHandler+0x2d4>
 8001ca0:	6a3b      	ldr	r3, [r7, #32]
 8001ca2:	f003 7300 	and.w	r3, r3, #33554432	@ 0x2000000
 8001ca6:	2b00      	cmp	r3, #0
 8001ca8:	d007      	beq.n	8001cba <HAL_ADC_IRQHandler+0x25e>
 8001caa:	68bb      	ldr	r3, [r7, #8]
 8001cac:	2b00      	cmp	r3, #0
 8001cae:	d03f      	beq.n	8001d30 <HAL_ADC_IRQHandler+0x2d4>
 8001cb0:	6a3b      	ldr	r3, [r7, #32]
 8001cb2:	f403 5300 	and.w	r3, r3, #8192	@ 0x2000
 8001cb6:	2b00      	cmp	r3, #0
 8001cb8:	d13a      	bne.n	8001d30 <HAL_ADC_IRQHandler+0x2d4>
 8001cba:	687b      	ldr	r3, [r7, #4]
 8001cbc:	681b      	ldr	r3, [r3, #0]
 8001cbe:	681b      	ldr	r3, [r3, #0]
 8001cc0:	f003 0340 	and.w	r3, r3, #64	@ 0x40
 8001cc4:	2b40      	cmp	r3, #64	@ 0x40
 8001cc6:	d133      	bne.n	8001d30 <HAL_ADC_IRQHandler+0x2d4>
 8001cc8:	6a3b      	ldr	r3, [r7, #32]
 8001cca:	f403 1300 	and.w	r3, r3, #2097152	@ 0x200000
 8001cce:	2b00      	cmp	r3, #0
 8001cd0:	d12e      	bne.n	8001d30 <HAL_ADC_IRQHandler+0x2d4>
 8001cd2:	687b      	ldr	r3, [r7, #4]
 8001cd4:	681b      	ldr	r3, [r3, #0]
 8001cd6:	4618      	mov	r0, r3
 8001cd8:	f7ff fc99 	bl	800160e <LL_ADC_INJ_IsConversionOngoing>
 8001cdc:	4603      	mov	r3, r0
 8001cde:	2b00      	cmp	r3, #0
 8001ce0:	d11a      	bne.n	8001d18 <HAL_ADC_IRQHandler+0x2bc>
 8001ce2:	687b      	ldr	r3, [r7, #4]
 8001ce4:	681b      	ldr	r3, [r3, #0]
 8001ce6:	685a      	ldr	r2, [r3, #4]
 8001ce8:	687b      	ldr	r3, [r7, #4]
 8001cea:	681b      	ldr	r3, [r3, #0]
 8001cec:	f022 0260 	bic.w	r2, r2, #96	@ 0x60
 8001cf0:	605a      	str	r2, [r3, #4]
 8001cf2:	687b      	ldr	r3, [r7, #4]
 8001cf4:	6d5b      	ldr	r3, [r3, #84]	@ 0x54
 8001cf6:	f423 5280 	bic.w	r2, r3, #4096	@ 0x1000
 8001cfa:	687b      	ldr	r3, [r7, #4]
 8001cfc:	655a      	str	r2, [r3, #84]	@ 0x54
 8001cfe:	687b      	ldr	r3, [r7, #4]
 8001d00:	6d5b      	ldr	r3, [r3, #84]	@ 0x54
 8001d02:	f403 7380 	and.w	r3, r3, #256	@ 0x100
 8001d06:	2b00      	cmp	r3, #0
 8001d08:	d112      	bne.n	8001d30 <HAL_ADC_IRQHandler+0x2d4>
 8001d0a:	687b      	ldr	r3, [r7, #4]
 8001d0c:	6d5b      	ldr	r3, [r3, #84]	@ 0x54
 8001d0e:	f043 0201 	orr.w	r2, r3, #1
 8001d12:	687b      	ldr	r3, [r7, #4]
 8001d14:	655a      	str	r2, [r3, #84]	@ 0x54
 8001d16:	e00b      	b.n	8001d30 <HAL_ADC_IRQHandler+0x2d4>
 8001d18:	687b      	ldr	r3, [r7, #4]
 8001d1a:	6d5b      	ldr	r3, [r3, #84]	@ 0x54
 8001d1c:	f043 0210 	orr.w	r2, r3, #16
 8001d20:	687b      	ldr	r3, [r7, #4]
 8001d22:	655a      	str	r2, [r3, #84]	@ 0x54
 8001d24:	687b      	ldr	r3, [r7, #4]
 8001d26:	6d9b      	ldr	r3, [r3, #88]	@ 0x58
 8001d28:	f043 0201 	orr.w	r2, r3, #1
 8001d2c:	687b      	ldr	r3, [r7, #4]
 8001d2e:	659a      	str	r2, [r3, #88]	@ 0x58
 8001d30:	6878      	ldr	r0, [r7, #4]
 8001d32:	f000 fe95 	bl	8002a60 <HAL_ADCEx_InjectedConvCpltCallback>
 8001d36:	687b      	ldr	r3, [r7, #4]
 8001d38:	681b      	ldr	r3, [r3, #0]
 8001d3a:	2260      	movs	r2, #96	@ 0x60
 8001d3c:	601a      	str	r2, [r3, #0]
 8001d3e:	69fb      	ldr	r3, [r7, #28]
 8001d40:	f003 0380 	and.w	r3, r3, #128	@ 0x80
 8001d44:	2b00      	cmp	r3, #0
 8001d46:	d011      	beq.n	8001d6c <HAL_ADC_IRQHandler+0x310>
 8001d48:	69bb      	ldr	r3, [r7, #24]
 8001d4a:	f003 0380 	and.w	r3, r3, #128	@ 0x80
 8001d4e:	2b00      	cmp	r3, #0
 8001d50:	d00c      	beq.n	8001d6c <HAL_ADC_IRQHandler+0x310>
 8001d52:	687b      	ldr	r3, [r7, #4]
 8001d54:	6d5b      	ldr	r3, [r3, #84]	@ 0x54
 8001d56:	f443 3280 	orr.w	r2, r3, #65536	@ 0x10000
 8001d5a:	687b      	ldr	r3, [r7, #4]
 8001d5c:	655a      	str	r2, [r3, #84]	@ 0x54
 8001d5e:	6878      	ldr	r0, [r7, #4]
 8001d60:	f000 f896 	bl	8001e90 <HAL_ADC_LevelOutOfWindowCallback>
 8001d64:	687b      	ldr	r3, [r7, #4]
 8001d66:	681b      	ldr	r3, [r3, #0]
 8001d68:	2280      	movs	r2, #128	@ 0x80
 8001d6a:	601a      	str	r2, [r3, #0]
 8001d6c:	69fb      	ldr	r3, [r7, #28]
 8001d6e:	f403 7380 	and.w	r3, r3, #256	@ 0x100
 8001d72:	2b00      	cmp	r3, #0
 8001d74:	d012      	beq.n	8001d9c <HAL_ADC_IRQHandler+0x340>
 8001d76:	69bb      	ldr	r3, [r7, #24]
 8001d78:	f403 7380 	and.w	r3, r3, #256	@ 0x100
 8001d7c:	2b00      	cmp	r3, #0
 8001d7e:	d00d      	beq.n	8001d9c <HAL_ADC_IRQHandler+0x340>
 8001d80:	687b      	ldr	r3, [r7, #4]
 8001d82:	6d5b      	ldr	r3, [r3, #84]	@ 0x54
 8001d84:	f443 3200 	orr.w	r2, r3, #131072	@ 0x20000
 8001d88:	687b      	ldr	r3, [r7, #4]
 8001d8a:	655a      	str	r2, [r3, #84]	@ 0x54
 8001d8c:	6878      	ldr	r0, [r7, #4]
 8001d8e:	f000 fe7b 	bl	8002a88 <HAL_ADCEx_LevelOutOfWindow2Callback>
 8001d92:	687b      	ldr	r3, [r7, #4]
 8001d94:	681b      	ldr	r3, [r3, #0]
 8001d96:	f44f 7280 	mov.w	r2, #256	@ 0x100
 8001d9a:	601a      	str	r2, [r3, #0]
 8001d9c:	69fb      	ldr	r3, [r7, #28]
 8001d9e:	f403 7300 	and.w	r3, r3, #512	@ 0x200
 8001da2:	2b00      	cmp	r3, #0
 8001da4:	d012      	beq.n	8001dcc <HAL_ADC_IRQHandler+0x370>
 8001da6:	69bb      	ldr	r3, [r7, #24]
 8001da8:	f403 7300 	and.w	r3, r3, #512	@ 0x200
 8001dac:	2b00      	cmp	r3, #0
 8001dae:	d00d      	beq.n	8001dcc <HAL_ADC_IRQHandler+0x370>
 8001db0:	687b      	ldr	r3, [r7, #4]
 8001db2:	6d5b      	ldr	r3, [r3, #84]	@ 0x54
 8001db4:	f443 2280 	orr.w	r2, r3, #262144	@ 0x40000
 8001db8:	687b      	ldr	r3, [r7, #4]
 8001dba:	655a      	str	r2, [r3, #84]	@ 0x54
 8001dbc:	6878      	ldr	r0, [r7, #4]
 8001dbe:	f000 fe6d 	bl	8002a9c <HAL_ADCEx_LevelOutOfWindow3Callback>
 8001dc2:	687b      	ldr	r3, [r7, #4]
 8001dc4:	681b      	ldr	r3, [r3, #0]
 8001dc6:	f44f 7200 	mov.w	r2, #512	@ 0x200
 8001dca:	601a      	str	r2, [r3, #0]
 8001dcc:	69fb      	ldr	r3, [r7, #28]
 8001dce:	f003 0310 	and.w	r3, r3, #16
 8001dd2:	2b00      	cmp	r3, #0
 8001dd4:	d036      	beq.n	8001e44 <HAL_ADC_IRQHandler+0x3e8>
 8001dd6:	69bb      	ldr	r3, [r7, #24]
 8001dd8:	f003 0310 	and.w	r3, r3, #16
 8001ddc:	2b00      	cmp	r3, #0
 8001dde:	d031      	beq.n	8001e44 <HAL_ADC_IRQHandler+0x3e8>
 8001de0:	687b      	ldr	r3, [r7, #4]
 8001de2:	6b1b      	ldr	r3, [r3, #48]	@ 0x30
 8001de4:	2b00      	cmp	r3, #0
 8001de6:	d102      	bne.n	8001dee <HAL_ADC_IRQHandler+0x392>
 8001de8:	2301      	movs	r3, #1
 8001dea:	627b      	str	r3, [r7, #36]	@ 0x24
 8001dec:	e014      	b.n	8001e18 <HAL_ADC_IRQHandler+0x3bc>
 8001dee:	697b      	ldr	r3, [r7, #20]
 8001df0:	2b00      	cmp	r3, #0
 8001df2:	d008      	beq.n	8001e06 <HAL_ADC_IRQHandler+0x3aa>
 8001df4:	4825      	ldr	r0, [pc, #148]	@ (8001e8c <HAL_ADC_IRQHandler+0x430>)
 8001df6:	f7ff fb5f 	bl	80014b8 <LL_ADC_GetMultiDMATransfer>
 8001dfa:	4603      	mov	r3, r0
 8001dfc:	2b00      	cmp	r3, #0
 8001dfe:	d00b      	beq.n	8001e18 <HAL_ADC_IRQHandler+0x3bc>
 8001e00:	2301      	movs	r3, #1
 8001e02:	627b      	str	r3, [r7, #36]	@ 0x24
 8001e04:	e008      	b.n	8001e18 <HAL_ADC_IRQHandler+0x3bc>
 8001e06:	687b      	ldr	r3, [r7, #4]
 8001e08:	681b      	ldr	r3, [r3, #0]
 8001e0a:	68db      	ldr	r3, [r3, #12]
 8001e0c:	f003 0303 	and.w	r3, r3, #3
 8001e10:	2b00      	cmp	r3, #0
 8001e12:	d001      	beq.n	8001e18 <HAL_ADC_IRQHandler+0x3bc>
 8001e14:	2301      	movs	r3, #1
 8001e16:	627b      	str	r3, [r7, #36]	@ 0x24
 8001e18:	6a7b      	ldr	r3, [r7, #36]	@ 0x24
 8001e1a:	2b01      	cmp	r3, #1
 8001e1c:	d10e      	bne.n	8001e3c <HAL_ADC_IRQHandler+0x3e0>
 8001e1e:	687b      	ldr	r3, [r7, #4]
 8001e20:	6d5b      	ldr	r3, [r3, #84]	@ 0x54
 8001e22:	f443 6280 	orr.w	r2, r3, #1024	@ 0x400
 8001e26:	687b      	ldr	r3, [r7, #4]
 8001e28:	655a      	str	r2, [r3, #84]	@ 0x54
 8001e2a:	687b      	ldr	r3, [r7, #4]
 8001e2c:	6d9b      	ldr	r3, [r3, #88]	@ 0x58
 8001e2e:	f043 0202 	orr.w	r2, r3, #2
 8001e32:	687b      	ldr	r3, [r7, #4]
 8001e34:	659a      	str	r2, [r3, #88]	@ 0x58
 8001e36:	6878      	ldr	r0, [r7, #4]
 8001e38:	f000 f834 	bl	8001ea4 <HAL_ADC_ErrorCallback>
 8001e3c:	687b      	ldr	r3, [r7, #4]
 8001e3e:	681b      	ldr	r3, [r3, #0]
 8001e40:	2210      	movs	r2, #16
 8001e42:	601a      	str	r2, [r3, #0]
 8001e44:	69fb      	ldr	r3, [r7, #28]
 8001e46:	f403 6380 	and.w	r3, r3, #1024	@ 0x400
 8001e4a:	2b00      	cmp	r3, #0
 8001e4c:	d018      	beq.n	8001e80 <HAL_ADC_IRQHandler+0x424>
 8001e4e:	69bb      	ldr	r3, [r7, #24]
 8001e50:	f403 6380 	and.w	r3, r3, #1024	@ 0x400
 8001e54:	2b00      	cmp	r3, #0
 8001e56:	d013      	beq.n	8001e80 <HAL_ADC_IRQHandler+0x424>
 8001e58:	687b      	ldr	r3, [r7, #4]
 8001e5a:	6d5b      	ldr	r3, [r3, #84]	@ 0x54
 8001e5c:	f443 4280 	orr.w	r2, r3, #16384	@ 0x4000
 8001e60:	687b      	ldr	r3, [r7, #4]
 8001e62:	655a      	str	r2, [r3, #84]	@ 0x54
 8001e64:	687b      	ldr	r3, [r7, #4]
 8001e66:	6d9b      	ldr	r3, [r3, #88]	@ 0x58
 8001e68:	f043 0208 	orr.w	r2, r3, #8
 8001e6c:	687b      	ldr	r3, [r7, #4]
 8001e6e:	659a      	str	r2, [r3, #88]	@ 0x58
 8001e70:	687b      	ldr	r3, [r7, #4]
 8001e72:	681b      	ldr	r3, [r3, #0]
 8001e74:	f44f 6280 	mov.w	r2, #1024	@ 0x400
 8001e78:	601a      	str	r2, [r3, #0]
 8001e7a:	6878      	ldr	r0, [r7, #4]
 8001e7c:	f000 fdfa 	bl	8002a74 <HAL_ADCEx_InjectedQueueOverflowCallback>
 8001e80:	bf00      	nop
 8001e82:	3728      	adds	r7, #40	@ 0x28
 8001e84:	46bd      	mov	sp, r7
 8001e86:	bd80      	pop	{r7, pc}
 8001e88:	40022000 	.word	0x40022000
 8001e8c:	40022300 	.word	0x40022300

08001e90 <HAL_ADC_LevelOutOfWindowCallback>:
 8001e90:	b480      	push	{r7}
 8001e92:	b083      	sub	sp, #12
 8001e94:	af00      	add	r7, sp, #0
 8001e96:	6078      	str	r0, [r7, #4]
 8001e98:	bf00      	nop
 8001e9a:	370c      	adds	r7, #12
 8001e9c:	46bd      	mov	sp, r7
 8001e9e:	f85d 7b04 	ldr.w	r7, [sp], #4
 8001ea2:	4770      	bx	lr

08001ea4 <HAL_ADC_ErrorCallback>:
 8001ea4:	b480      	push	{r7}
 8001ea6:	b083      	sub	sp, #12
 8001ea8:	af00      	add	r7, sp, #0
 8001eaa:	6078      	str	r0, [r7, #4]
 8001eac:	bf00      	nop
 8001eae:	370c      	adds	r7, #12
 8001eb0:	46bd      	mov	sp, r7
 8001eb2:	f85d 7b04 	ldr.w	r7, [sp], #4
 8001eb6:	4770      	bx	lr

08001eb8 <HAL_ADC_ConfigChannel>:
 8001eb8:	b590      	push	{r4, r7, lr}
 8001eba:	b0a1      	sub	sp, #132	@ 0x84
 8001ebc:	af00      	add	r7, sp, #0
 8001ebe:	6078      	str	r0, [r7, #4]
 8001ec0:	6039      	str	r1, [r7, #0]
 8001ec2:	2300      	movs	r3, #0
 8001ec4:	f887 307f 	strb.w	r3, [r7, #127]	@ 0x7f
 8001ec8:	2300      	movs	r3, #0
 8001eca:	60bb      	str	r3, [r7, #8]
 8001ecc:	683b      	ldr	r3, [r7, #0]
 8001ece:	68db      	ldr	r3, [r3, #12]
 8001ed0:	4a95      	ldr	r2, [pc, #596]	@ (8002128 <HAL_ADC_ConfigChannel+0x270>)
 8001ed2:	4293      	cmp	r3, r2
 8001ed4:	687b      	ldr	r3, [r7, #4]
 8001ed6:	f893 3050 	ldrb.w	r3, [r3, #80]	@ 0x50
 8001eda:	2b01      	cmp	r3, #1
 8001edc:	d101      	bne.n	8001ee2 <HAL_ADC_ConfigChannel+0x2a>
 8001ede:	2302      	movs	r3, #2
 8001ee0:	e2c0      	b.n	8002464 <HAL_ADC_ConfigChannel+0x5ac>
 8001ee2:	687b      	ldr	r3, [r7, #4]
 8001ee4:	2201      	movs	r2, #1
 8001ee6:	f883 2050 	strb.w	r2, [r3, #80]	@ 0x50
 8001eea:	687b      	ldr	r3, [r7, #4]
 8001eec:	681b      	ldr	r3, [r3, #0]
 8001eee:	4618      	mov	r0, r3
 8001ef0:	f7ff fb7a 	bl	80015e8 <LL_ADC_REG_IsConversionOngoing>
 8001ef4:	4603      	mov	r3, r0
 8001ef6:	2b00      	cmp	r3, #0
 8001ef8:	f040 82a5 	bne.w	8002446 <HAL_ADC_ConfigChannel+0x58e>
 8001efc:	683b      	ldr	r3, [r7, #0]
 8001efe:	681b      	ldr	r3, [r3, #0]
 8001f00:	2b00      	cmp	r3, #0
 8001f02:	db2c      	blt.n	8001f5e <HAL_ADC_ConfigChannel+0xa6>
 8001f04:	683b      	ldr	r3, [r7, #0]
 8001f06:	681b      	ldr	r3, [r3, #0]
 8001f08:	f3c3 0313 	ubfx	r3, r3, #0, #20
 8001f0c:	2b00      	cmp	r3, #0
 8001f0e:	d108      	bne.n	8001f22 <HAL_ADC_ConfigChannel+0x6a>
 8001f10:	683b      	ldr	r3, [r7, #0]
 8001f12:	681b      	ldr	r3, [r3, #0]
 8001f14:	0e9b      	lsrs	r3, r3, #26
 8001f16:	f003 031f 	and.w	r3, r3, #31
 8001f1a:	2201      	movs	r2, #1
 8001f1c:	fa02 f303 	lsl.w	r3, r2, r3
 8001f20:	e016      	b.n	8001f50 <HAL_ADC_ConfigChannel+0x98>
 8001f22:	683b      	ldr	r3, [r7, #0]
 8001f24:	681b      	ldr	r3, [r3, #0]
 8001f26:	667b      	str	r3, [r7, #100]	@ 0x64
 8001f28:	6e7b      	ldr	r3, [r7, #100]	@ 0x64
 8001f2a:	fa93 f3a3 	rbit	r3, r3
 8001f2e:	663b      	str	r3, [r7, #96]	@ 0x60
 8001f30:	6e3b      	ldr	r3, [r7, #96]	@ 0x60
 8001f32:	66bb      	str	r3, [r7, #104]	@ 0x68
 8001f34:	6ebb      	ldr	r3, [r7, #104]	@ 0x68
 8001f36:	2b00      	cmp	r3, #0
 8001f38:	d101      	bne.n	8001f3e <HAL_ADC_ConfigChannel+0x86>
 8001f3a:	2320      	movs	r3, #32
 8001f3c:	e003      	b.n	8001f46 <HAL_ADC_ConfigChannel+0x8e>
 8001f3e:	6ebb      	ldr	r3, [r7, #104]	@ 0x68
 8001f40:	fab3 f383 	clz	r3, r3
 8001f44:	b2db      	uxtb	r3, r3
 8001f46:	f003 031f 	and.w	r3, r3, #31
 8001f4a:	2201      	movs	r2, #1
 8001f4c:	fa02 f303 	lsl.w	r3, r2, r3
 8001f50:	687a      	ldr	r2, [r7, #4]
 8001f52:	6812      	ldr	r2, [r2, #0]
 8001f54:	69d1      	ldr	r1, [r2, #28]
 8001f56:	687a      	ldr	r2, [r7, #4]
 8001f58:	6812      	ldr	r2, [r2, #0]
 8001f5a:	430b      	orrs	r3, r1
 8001f5c:	61d3      	str	r3, [r2, #28]
 8001f5e:	687b      	ldr	r3, [r7, #4]
 8001f60:	6818      	ldr	r0, [r3, #0]
 8001f62:	683b      	ldr	r3, [r7, #0]
 8001f64:	6859      	ldr	r1, [r3, #4]
 8001f66:	683b      	ldr	r3, [r7, #0]
 8001f68:	681b      	ldr	r3, [r3, #0]
 8001f6a:	461a      	mov	r2, r3
 8001f6c:	f7ff fa07 	bl	800137e <LL_ADC_REG_SetSequencerRanks>
 8001f70:	687b      	ldr	r3, [r7, #4]
 8001f72:	681b      	ldr	r3, [r3, #0]
 8001f74:	4618      	mov	r0, r3
 8001f76:	f7ff fb37 	bl	80015e8 <LL_ADC_REG_IsConversionOngoing>
 8001f7a:	67b8      	str	r0, [r7, #120]	@ 0x78
 8001f7c:	687b      	ldr	r3, [r7, #4]
 8001f7e:	681b      	ldr	r3, [r3, #0]
 8001f80:	4618      	mov	r0, r3
 8001f82:	f7ff fb44 	bl	800160e <LL_ADC_INJ_IsConversionOngoing>
 8001f86:	6778      	str	r0, [r7, #116]	@ 0x74
 8001f88:	6fbb      	ldr	r3, [r7, #120]	@ 0x78
 8001f8a:	2b00      	cmp	r3, #0
 8001f8c:	f040 80a0 	bne.w	80020d0 <HAL_ADC_ConfigChannel+0x218>
 8001f90:	6f7b      	ldr	r3, [r7, #116]	@ 0x74
 8001f92:	2b00      	cmp	r3, #0
 8001f94:	f040 809c 	bne.w	80020d0 <HAL_ADC_ConfigChannel+0x218>
 8001f98:	687b      	ldr	r3, [r7, #4]
 8001f9a:	6818      	ldr	r0, [r3, #0]
 8001f9c:	683b      	ldr	r3, [r7, #0]
 8001f9e:	6819      	ldr	r1, [r3, #0]
 8001fa0:	683b      	ldr	r3, [r7, #0]
 8001fa2:	689b      	ldr	r3, [r3, #8]
 8001fa4:	461a      	mov	r2, r3
 8001fa6:	f7ff fa29 	bl	80013fc <LL_ADC_SetChannelSamplingTime>
 8001faa:	687b      	ldr	r3, [r7, #4]
 8001fac:	681b      	ldr	r3, [r3, #0]
 8001fae:	68db      	ldr	r3, [r3, #12]
 8001fb0:	f003 0310 	and.w	r3, r3, #16
 8001fb4:	2b00      	cmp	r3, #0
 8001fb6:	d10b      	bne.n	8001fd0 <HAL_ADC_ConfigChannel+0x118>
 8001fb8:	683b      	ldr	r3, [r7, #0]
 8001fba:	695a      	ldr	r2, [r3, #20]
 8001fbc:	687b      	ldr	r3, [r7, #4]
 8001fbe:	681b      	ldr	r3, [r3, #0]
 8001fc0:	68db      	ldr	r3, [r3, #12]
 8001fc2:	089b      	lsrs	r3, r3, #2
 8001fc4:	f003 0307 	and.w	r3, r3, #7
 8001fc8:	005b      	lsls	r3, r3, #1
 8001fca:	fa02 f303 	lsl.w	r3, r2, r3
 8001fce:	e00a      	b.n	8001fe6 <HAL_ADC_ConfigChannel+0x12e>
 8001fd0:	683b      	ldr	r3, [r7, #0]
 8001fd2:	695a      	ldr	r2, [r3, #20]
 8001fd4:	687b      	ldr	r3, [r7, #4]
 8001fd6:	681b      	ldr	r3, [r3, #0]
 8001fd8:	68db      	ldr	r3, [r3, #12]
 8001fda:	089b      	lsrs	r3, r3, #2
 8001fdc:	f003 0304 	and.w	r3, r3, #4
 8001fe0:	005b      	lsls	r3, r3, #1
 8001fe2:	fa02 f303 	lsl.w	r3, r2, r3
 8001fe6:	673b      	str	r3, [r7, #112]	@ 0x70
 8001fe8:	683b      	ldr	r3, [r7, #0]
 8001fea:	691b      	ldr	r3, [r3, #16]
 8001fec:	2b04      	cmp	r3, #4
 8001fee:	d027      	beq.n	8002040 <HAL_ADC_ConfigChannel+0x188>
 8001ff0:	687b      	ldr	r3, [r7, #4]
 8001ff2:	6818      	ldr	r0, [r3, #0]
 8001ff4:	683b      	ldr	r3, [r7, #0]
 8001ff6:	6919      	ldr	r1, [r3, #16]
 8001ff8:	683b      	ldr	r3, [r7, #0]
 8001ffa:	681a      	ldr	r2, [r3, #0]
 8001ffc:	6f3b      	ldr	r3, [r7, #112]	@ 0x70
 8001ffe:	f7ff f957 	bl	80012b0 <LL_ADC_SetOffset>
 8002002:	687b      	ldr	r3, [r7, #4]
 8002004:	6818      	ldr	r0, [r3, #0]
 8002006:	683b      	ldr	r3, [r7, #0]
 8002008:	6919      	ldr	r1, [r3, #16]
 800200a:	683b      	ldr	r3, [r7, #0]
 800200c:	7e5b      	ldrb	r3, [r3, #25]
 800200e:	2b01      	cmp	r3, #1
 8002010:	d102      	bne.n	8002018 <HAL_ADC_ConfigChannel+0x160>
 8002012:	f04f 4300 	mov.w	r3, #2147483648	@ 0x80000000
 8002016:	e000      	b.n	800201a <HAL_ADC_ConfigChannel+0x162>
 8002018:	2300      	movs	r3, #0
 800201a:	461a      	mov	r2, r3
 800201c:	f7ff f981 	bl	8001322 <LL_ADC_SetOffsetSignedSaturation>
 8002020:	687b      	ldr	r3, [r7, #4]
 8002022:	6818      	ldr	r0, [r3, #0]
 8002024:	683b      	ldr	r3, [r7, #0]
 8002026:	6919      	ldr	r1, [r3, #16]
 8002028:	683b      	ldr	r3, [r7, #0]
 800202a:	7e1b      	ldrb	r3, [r3, #24]
 800202c:	2b01      	cmp	r3, #1
 800202e:	d102      	bne.n	8002036 <HAL_ADC_ConfigChannel+0x17e>
 8002030:	f44f 6300 	mov.w	r3, #2048	@ 0x800
 8002034:	e000      	b.n	8002038 <HAL_ADC_ConfigChannel+0x180>
 8002036:	2300      	movs	r3, #0
 8002038:	461a      	mov	r2, r3
 800203a:	f7ff f959 	bl	80012f0 <LL_ADC_SetDataRightShift>
 800203e:	e047      	b.n	80020d0 <HAL_ADC_ConfigChannel+0x218>
 8002040:	687b      	ldr	r3, [r7, #4]
 8002042:	681b      	ldr	r3, [r3, #0]
 8002044:	6e1b      	ldr	r3, [r3, #96]	@ 0x60
 8002046:	f003 42f8 	and.w	r2, r3, #2080374784	@ 0x7c000000
 800204a:	683b      	ldr	r3, [r7, #0]
 800204c:	681b      	ldr	r3, [r3, #0]
 800204e:	069b      	lsls	r3, r3, #26
 8002050:	429a      	cmp	r2, r3
 8002052:	d107      	bne.n	8002064 <HAL_ADC_ConfigChannel+0x1ac>
 8002054:	687b      	ldr	r3, [r7, #4]
 8002056:	681b      	ldr	r3, [r3, #0]
 8002058:	6e1a      	ldr	r2, [r3, #96]	@ 0x60
 800205a:	687b      	ldr	r3, [r7, #4]
 800205c:	681b      	ldr	r3, [r3, #0]
 800205e:	f022 4200 	bic.w	r2, r2, #2147483648	@ 0x80000000
 8002062:	661a      	str	r2, [r3, #96]	@ 0x60
 8002064:	687b      	ldr	r3, [r7, #4]
 8002066:	681b      	ldr	r3, [r3, #0]
 8002068:	6e5b      	ldr	r3, [r3, #100]	@ 0x64
 800206a:	f003 42f8 	and.w	r2, r3, #2080374784	@ 0x7c000000
 800206e:	683b      	ldr	r3, [r7, #0]
 8002070:	681b      	ldr	r3, [r3, #0]
 8002072:	069b      	lsls	r3, r3, #26
 8002074:	429a      	cmp	r2, r3
 8002076:	d107      	bne.n	8002088 <HAL_ADC_ConfigChannel+0x1d0>
 8002078:	687b      	ldr	r3, [r7, #4]
 800207a:	681b      	ldr	r3, [r3, #0]
 800207c:	6e5a      	ldr	r2, [r3, #100]	@ 0x64
 800207e:	687b      	ldr	r3, [r7, #4]
 8002080:	681b      	ldr	r3, [r3, #0]
 8002082:	f022 4200 	bic.w	r2, r2, #2147483648	@ 0x80000000
 8002086:	665a      	str	r2, [r3, #100]	@ 0x64
 8002088:	687b      	ldr	r3, [r7, #4]
 800208a:	681b      	ldr	r3, [r3, #0]
 800208c:	6e9b      	ldr	r3, [r3, #104]	@ 0x68
 800208e:	f003 42f8 	and.w	r2, r3, #2080374784	@ 0x7c000000
 8002092:	683b      	ldr	r3, [r7, #0]
 8002094:	681b      	ldr	r3, [r3, #0]
 8002096:	069b      	lsls	r3, r3, #26
 8002098:	429a      	cmp	r2, r3
 800209a:	d107      	bne.n	80020ac <HAL_ADC_ConfigChannel+0x1f4>
 800209c:	687b      	ldr	r3, [r7, #4]
 800209e:	681b      	ldr	r3, [r3, #0]
 80020a0:	6e9a      	ldr	r2, [r3, #104]	@ 0x68
 80020a2:	687b      	ldr	r3, [r7, #4]
 80020a4:	681b      	ldr	r3, [r3, #0]
 80020a6:	f022 4200 	bic.w	r2, r2, #2147483648	@ 0x80000000
 80020aa:	669a      	str	r2, [r3, #104]	@ 0x68
 80020ac:	687b      	ldr	r3, [r7, #4]
 80020ae:	681b      	ldr	r3, [r3, #0]
 80020b0:	6edb      	ldr	r3, [r3, #108]	@ 0x6c
 80020b2:	f003 42f8 	and.w	r2, r3, #2080374784	@ 0x7c000000
 80020b6:	683b      	ldr	r3, [r7, #0]
 80020b8:	681b      	ldr	r3, [r3, #0]
 80020ba:	069b      	lsls	r3, r3, #26
 80020bc:	429a      	cmp	r2, r3
 80020be:	d107      	bne.n	80020d0 <HAL_ADC_ConfigChannel+0x218>
 80020c0:	687b      	ldr	r3, [r7, #4]
 80020c2:	681b      	ldr	r3, [r3, #0]
 80020c4:	6eda      	ldr	r2, [r3, #108]	@ 0x6c
 80020c6:	687b      	ldr	r3, [r7, #4]
 80020c8:	681b      	ldr	r3, [r3, #0]
 80020ca:	f022 4200 	bic.w	r2, r2, #2147483648	@ 0x80000000
 80020ce:	66da      	str	r2, [r3, #108]	@ 0x6c
 80020d0:	687b      	ldr	r3, [r7, #4]
 80020d2:	681b      	ldr	r3, [r3, #0]
 80020d4:	4618      	mov	r0, r3
 80020d6:	f7ff fa5f 	bl	8001598 <LL_ADC_IsEnabled>
 80020da:	4603      	mov	r3, r0
 80020dc:	2b00      	cmp	r3, #0
 80020de:	f040 81bb 	bne.w	8002458 <HAL_ADC_ConfigChannel+0x5a0>
 80020e2:	687b      	ldr	r3, [r7, #4]
 80020e4:	6818      	ldr	r0, [r3, #0]
 80020e6:	683b      	ldr	r3, [r7, #0]
 80020e8:	6819      	ldr	r1, [r3, #0]
 80020ea:	683b      	ldr	r3, [r7, #0]
 80020ec:	68db      	ldr	r3, [r3, #12]
 80020ee:	461a      	mov	r2, r3
 80020f0:	f7ff f9b0 	bl	8001454 <LL_ADC_SetChannelSingleDiff>
 80020f4:	683b      	ldr	r3, [r7, #0]
 80020f6:	68db      	ldr	r3, [r3, #12]
 80020f8:	4a0b      	ldr	r2, [pc, #44]	@ (8002128 <HAL_ADC_ConfigChannel+0x270>)
 80020fa:	4293      	cmp	r3, r2
 80020fc:	f040 8130 	bne.w	8002360 <HAL_ADC_ConfigChannel+0x4a8>
 8002100:	687b      	ldr	r3, [r7, #4]
 8002102:	6818      	ldr	r0, [r3, #0]
 8002104:	683b      	ldr	r3, [r7, #0]
 8002106:	681b      	ldr	r3, [r3, #0]
 8002108:	f3c3 0313 	ubfx	r3, r3, #0, #20
 800210c:	2b00      	cmp	r3, #0
 800210e:	d10d      	bne.n	800212c <HAL_ADC_ConfigChannel+0x274>
 8002110:	683b      	ldr	r3, [r7, #0]
 8002112:	681b      	ldr	r3, [r3, #0]
 8002114:	0e9b      	lsrs	r3, r3, #26
 8002116:	3301      	adds	r3, #1
 8002118:	f003 031f 	and.w	r3, r3, #31
 800211c:	2b09      	cmp	r3, #9
 800211e:	bf94      	ite	ls
 8002120:	2301      	movls	r3, #1
 8002122:	2300      	movhi	r3, #0
 8002124:	b2db      	uxtb	r3, r3
 8002126:	e01b      	b.n	8002160 <HAL_ADC_ConfigChannel+0x2a8>
 8002128:	47ff0000 	.word	0x47ff0000
 800212c:	683b      	ldr	r3, [r7, #0]
 800212e:	681b      	ldr	r3, [r3, #0]
 8002130:	65bb      	str	r3, [r7, #88]	@ 0x58
 8002132:	6dbb      	ldr	r3, [r7, #88]	@ 0x58
 8002134:	fa93 f3a3 	rbit	r3, r3
 8002138:	657b      	str	r3, [r7, #84]	@ 0x54
 800213a:	6d7b      	ldr	r3, [r7, #84]	@ 0x54
 800213c:	65fb      	str	r3, [r7, #92]	@ 0x5c
 800213e:	6dfb      	ldr	r3, [r7, #92]	@ 0x5c
 8002140:	2b00      	cmp	r3, #0
 8002142:	d101      	bne.n	8002148 <HAL_ADC_ConfigChannel+0x290>
 8002144:	2320      	movs	r3, #32
 8002146:	e003      	b.n	8002150 <HAL_ADC_ConfigChannel+0x298>
 8002148:	6dfb      	ldr	r3, [r7, #92]	@ 0x5c
 800214a:	fab3 f383 	clz	r3, r3
 800214e:	b2db      	uxtb	r3, r3
 8002150:	3301      	adds	r3, #1
 8002152:	f003 031f 	and.w	r3, r3, #31
 8002156:	2b09      	cmp	r3, #9
 8002158:	bf94      	ite	ls
 800215a:	2301      	movls	r3, #1
 800215c:	2300      	movhi	r3, #0
 800215e:	b2db      	uxtb	r3, r3
 8002160:	2b00      	cmp	r3, #0
 8002162:	d079      	beq.n	8002258 <HAL_ADC_ConfigChannel+0x3a0>
 8002164:	683b      	ldr	r3, [r7, #0]
 8002166:	681b      	ldr	r3, [r3, #0]
 8002168:	f3c3 0313 	ubfx	r3, r3, #0, #20
 800216c:	2b00      	cmp	r3, #0
 800216e:	d107      	bne.n	8002180 <HAL_ADC_ConfigChannel+0x2c8>
 8002170:	683b      	ldr	r3, [r7, #0]
 8002172:	681b      	ldr	r3, [r3, #0]
 8002174:	0e9b      	lsrs	r3, r3, #26
 8002176:	3301      	adds	r3, #1
 8002178:	069b      	lsls	r3, r3, #26
 800217a:	f003 42f8 	and.w	r2, r3, #2080374784	@ 0x7c000000
 800217e:	e015      	b.n	80021ac <HAL_ADC_ConfigChannel+0x2f4>
 8002180:	683b      	ldr	r3, [r7, #0]
 8002182:	681b      	ldr	r3, [r3, #0]
 8002184:	64fb      	str	r3, [r7, #76]	@ 0x4c
 8002186:	6cfb      	ldr	r3, [r7, #76]	@ 0x4c
 8002188:	fa93 f3a3 	rbit	r3, r3
 800218c:	64bb      	str	r3, [r7, #72]	@ 0x48
 800218e:	6cbb      	ldr	r3, [r7, #72]	@ 0x48
 8002190:	653b      	str	r3, [r7, #80]	@ 0x50
 8002192:	6d3b      	ldr	r3, [r7, #80]	@ 0x50
 8002194:	2b00      	cmp	r3, #0
 8002196:	d101      	bne.n	800219c <HAL_ADC_ConfigChannel+0x2e4>
 8002198:	2320      	movs	r3, #32
 800219a:	e003      	b.n	80021a4 <HAL_ADC_ConfigChannel+0x2ec>
 800219c:	6d3b      	ldr	r3, [r7, #80]	@ 0x50
 800219e:	fab3 f383 	clz	r3, r3
 80021a2:	b2db      	uxtb	r3, r3
 80021a4:	3301      	adds	r3, #1
 80021a6:	069b      	lsls	r3, r3, #26
 80021a8:	f003 42f8 	and.w	r2, r3, #2080374784	@ 0x7c000000
 80021ac:	683b      	ldr	r3, [r7, #0]
 80021ae:	681b      	ldr	r3, [r3, #0]
 80021b0:	f3c3 0313 	ubfx	r3, r3, #0, #20
 80021b4:	2b00      	cmp	r3, #0
 80021b6:	d109      	bne.n	80021cc <HAL_ADC_ConfigChannel+0x314>
 80021b8:	683b      	ldr	r3, [r7, #0]
 80021ba:	681b      	ldr	r3, [r3, #0]
 80021bc:	0e9b      	lsrs	r3, r3, #26
 80021be:	3301      	adds	r3, #1
 80021c0:	f003 031f 	and.w	r3, r3, #31
 80021c4:	2101      	movs	r1, #1
 80021c6:	fa01 f303 	lsl.w	r3, r1, r3
 80021ca:	e017      	b.n	80021fc <HAL_ADC_ConfigChannel+0x344>
 80021cc:	683b      	ldr	r3, [r7, #0]
 80021ce:	681b      	ldr	r3, [r3, #0]
 80021d0:	643b      	str	r3, [r7, #64]	@ 0x40
 80021d2:	6c3b      	ldr	r3, [r7, #64]	@ 0x40
 80021d4:	fa93 f3a3 	rbit	r3, r3
 80021d8:	63fb      	str	r3, [r7, #60]	@ 0x3c
 80021da:	6bfb      	ldr	r3, [r7, #60]	@ 0x3c
 80021dc:	647b      	str	r3, [r7, #68]	@ 0x44
 80021de:	6c7b      	ldr	r3, [r7, #68]	@ 0x44
 80021e0:	2b00      	cmp	r3, #0
 80021e2:	d101      	bne.n	80021e8 <HAL_ADC_ConfigChannel+0x330>
 80021e4:	2320      	movs	r3, #32
 80021e6:	e003      	b.n	80021f0 <HAL_ADC_ConfigChannel+0x338>
 80021e8:	6c7b      	ldr	r3, [r7, #68]	@ 0x44
 80021ea:	fab3 f383 	clz	r3, r3
 80021ee:	b2db      	uxtb	r3, r3
 80021f0:	3301      	adds	r3, #1
 80021f2:	f003 031f 	and.w	r3, r3, #31
 80021f6:	2101      	movs	r1, #1
 80021f8:	fa01 f303 	lsl.w	r3, r1, r3
 80021fc:	ea42 0103 	orr.w	r1, r2, r3
 8002200:	683b      	ldr	r3, [r7, #0]
 8002202:	681b      	ldr	r3, [r3, #0]
 8002204:	f3c3 0313 	ubfx	r3, r3, #0, #20
 8002208:	2b00      	cmp	r3, #0
 800220a:	d10a      	bne.n	8002222 <HAL_ADC_ConfigChannel+0x36a>
 800220c:	683b      	ldr	r3, [r7, #0]
 800220e:	681b      	ldr	r3, [r3, #0]
 8002210:	0e9b      	lsrs	r3, r3, #26
 8002212:	3301      	adds	r3, #1
 8002214:	f003 021f 	and.w	r2, r3, #31
 8002218:	4613      	mov	r3, r2
 800221a:	005b      	lsls	r3, r3, #1
 800221c:	4413      	add	r3, r2
 800221e:	051b      	lsls	r3, r3, #20
 8002220:	e018      	b.n	8002254 <HAL_ADC_ConfigChannel+0x39c>
 8002222:	683b      	ldr	r3, [r7, #0]
 8002224:	681b      	ldr	r3, [r3, #0]
 8002226:	637b      	str	r3, [r7, #52]	@ 0x34
 8002228:	6b7b      	ldr	r3, [r7, #52]	@ 0x34
 800222a:	fa93 f3a3 	rbit	r3, r3
 800222e:	633b      	str	r3, [r7, #48]	@ 0x30
 8002230:	6b3b      	ldr	r3, [r7, #48]	@ 0x30
 8002232:	63bb      	str	r3, [r7, #56]	@ 0x38
 8002234:	6bbb      	ldr	r3, [r7, #56]	@ 0x38
 8002236:	2b00      	cmp	r3, #0
 8002238:	d101      	bne.n	800223e <HAL_ADC_ConfigChannel+0x386>
 800223a:	2320      	movs	r3, #32
 800223c:	e003      	b.n	8002246 <HAL_ADC_ConfigChannel+0x38e>
 800223e:	6bbb      	ldr	r3, [r7, #56]	@ 0x38
 8002240:	fab3 f383 	clz	r3, r3
 8002244:	b2db      	uxtb	r3, r3
 8002246:	3301      	adds	r3, #1
 8002248:	f003 021f 	and.w	r2, r3, #31
 800224c:	4613      	mov	r3, r2
 800224e:	005b      	lsls	r3, r3, #1
 8002250:	4413      	add	r3, r2
 8002252:	051b      	lsls	r3, r3, #20
 8002254:	430b      	orrs	r3, r1
 8002256:	e07e      	b.n	8002356 <HAL_ADC_ConfigChannel+0x49e>
 8002258:	683b      	ldr	r3, [r7, #0]
 800225a:	681b      	ldr	r3, [r3, #0]
 800225c:	f3c3 0313 	ubfx	r3, r3, #0, #20
 8002260:	2b00      	cmp	r3, #0
 8002262:	d107      	bne.n	8002274 <HAL_ADC_ConfigChannel+0x3bc>
 8002264:	683b      	ldr	r3, [r7, #0]
 8002266:	681b      	ldr	r3, [r3, #0]
 8002268:	0e9b      	lsrs	r3, r3, #26
 800226a:	3301      	adds	r3, #1
 800226c:	069b      	lsls	r3, r3, #26
 800226e:	f003 42f8 	and.w	r2, r3, #2080374784	@ 0x7c000000
 8002272:	e015      	b.n	80022a0 <HAL_ADC_ConfigChannel+0x3e8>
 8002274:	683b      	ldr	r3, [r7, #0]
 8002276:	681b      	ldr	r3, [r3, #0]
 8002278:	62bb      	str	r3, [r7, #40]	@ 0x28
 800227a:	6abb      	ldr	r3, [r7, #40]	@ 0x28
 800227c:	fa93 f3a3 	rbit	r3, r3
 8002280:	627b      	str	r3, [r7, #36]	@ 0x24
 8002282:	6a7b      	ldr	r3, [r7, #36]	@ 0x24
 8002284:	62fb      	str	r3, [r7, #44]	@ 0x2c
 8002286:	6afb      	ldr	r3, [r7, #44]	@ 0x2c
 8002288:	2b00      	cmp	r3, #0
 800228a:	d101      	bne.n	8002290 <HAL_ADC_ConfigChannel+0x3d8>
 800228c:	2320      	movs	r3, #32
 800228e:	e003      	b.n	8002298 <HAL_ADC_ConfigChannel+0x3e0>
 8002290:	6afb      	ldr	r3, [r7, #44]	@ 0x2c
 8002292:	fab3 f383 	clz	r3, r3
 8002296:	b2db      	uxtb	r3, r3
 8002298:	3301      	adds	r3, #1
 800229a:	069b      	lsls	r3, r3, #26
 800229c:	f003 42f8 	and.w	r2, r3, #2080374784	@ 0x7c000000
 80022a0:	683b      	ldr	r3, [r7, #0]
 80022a2:	681b      	ldr	r3, [r3, #0]
 80022a4:	f3c3 0313 	ubfx	r3, r3, #0, #20
 80022a8:	2b00      	cmp	r3, #0
 80022aa:	d109      	bne.n	80022c0 <HAL_ADC_ConfigChannel+0x408>
 80022ac:	683b      	ldr	r3, [r7, #0]
 80022ae:	681b      	ldr	r3, [r3, #0]
 80022b0:	0e9b      	lsrs	r3, r3, #26
 80022b2:	3301      	adds	r3, #1
 80022b4:	f003 031f 	and.w	r3, r3, #31
 80022b8:	2101      	movs	r1, #1
 80022ba:	fa01 f303 	lsl.w	r3, r1, r3
 80022be:	e017      	b.n	80022f0 <HAL_ADC_ConfigChannel+0x438>
 80022c0:	683b      	ldr	r3, [r7, #0]
 80022c2:	681b      	ldr	r3, [r3, #0]
 80022c4:	61fb      	str	r3, [r7, #28]
 80022c6:	69fb      	ldr	r3, [r7, #28]
 80022c8:	fa93 f3a3 	rbit	r3, r3
 80022cc:	61bb      	str	r3, [r7, #24]
 80022ce:	69bb      	ldr	r3, [r7, #24]
 80022d0:	623b      	str	r3, [r7, #32]
 80022d2:	6a3b      	ldr	r3, [r7, #32]
 80022d4:	2b00      	cmp	r3, #0
 80022d6:	d101      	bne.n	80022dc <HAL_ADC_ConfigChannel+0x424>
 80022d8:	2320      	movs	r3, #32
 80022da:	e003      	b.n	80022e4 <HAL_ADC_ConfigChannel+0x42c>
 80022dc:	6a3b      	ldr	r3, [r7, #32]
 80022de:	fab3 f383 	clz	r3, r3
 80022e2:	b2db      	uxtb	r3, r3
 80022e4:	3301      	adds	r3, #1
 80022e6:	f003 031f 	and.w	r3, r3, #31
 80022ea:	2101      	movs	r1, #1
 80022ec:	fa01 f303 	lsl.w	r3, r1, r3
 80022f0:	ea42 0103 	orr.w	r1, r2, r3
 80022f4:	683b      	ldr	r3, [r7, #0]
 80022f6:	681b      	ldr	r3, [r3, #0]
 80022f8:	f3c3 0313 	ubfx	r3, r3, #0, #20
 80022fc:	2b00      	cmp	r3, #0
 80022fe:	d10d      	bne.n	800231c <HAL_ADC_ConfigChannel+0x464>
 8002300:	683b      	ldr	r3, [r7, #0]
 8002302:	681b      	ldr	r3, [r3, #0]
 8002304:	0e9b      	lsrs	r3, r3, #26
 8002306:	3301      	adds	r3, #1
 8002308:	f003 021f 	and.w	r2, r3, #31
 800230c:	4613      	mov	r3, r2
 800230e:	005b      	lsls	r3, r3, #1
 8002310:	4413      	add	r3, r2
 8002312:	3b1e      	subs	r3, #30
 8002314:	051b      	lsls	r3, r3, #20
 8002316:	f043 7300 	orr.w	r3, r3, #33554432	@ 0x2000000
 800231a:	e01b      	b.n	8002354 <HAL_ADC_ConfigChannel+0x49c>
 800231c:	683b      	ldr	r3, [r7, #0]
 800231e:	681b      	ldr	r3, [r3, #0]
 8002320:	613b      	str	r3, [r7, #16]
 8002322:	693b      	ldr	r3, [r7, #16]
 8002324:	fa93 f3a3 	rbit	r3, r3
 8002328:	60fb      	str	r3, [r7, #12]
 800232a:	68fb      	ldr	r3, [r7, #12]
 800232c:	617b      	str	r3, [r7, #20]
 800232e:	697b      	ldr	r3, [r7, #20]
 8002330:	2b00      	cmp	r3, #0
 8002332:	d101      	bne.n	8002338 <HAL_ADC_ConfigChannel+0x480>
 8002334:	2320      	movs	r3, #32
 8002336:	e003      	b.n	8002340 <HAL_ADC_ConfigChannel+0x488>
 8002338:	697b      	ldr	r3, [r7, #20]
 800233a:	fab3 f383 	clz	r3, r3
 800233e:	b2db      	uxtb	r3, r3
 8002340:	3301      	adds	r3, #1
 8002342:	f003 021f 	and.w	r2, r3, #31
 8002346:	4613      	mov	r3, r2
 8002348:	005b      	lsls	r3, r3, #1
 800234a:	4413      	add	r3, r2
 800234c:	3b1e      	subs	r3, #30
 800234e:	051b      	lsls	r3, r3, #20
 8002350:	f043 7300 	orr.w	r3, r3, #33554432	@ 0x2000000
 8002354:	430b      	orrs	r3, r1
 8002356:	683a      	ldr	r2, [r7, #0]
 8002358:	6892      	ldr	r2, [r2, #8]
 800235a:	4619      	mov	r1, r3
 800235c:	f7ff f84e 	bl	80013fc <LL_ADC_SetChannelSamplingTime>
 8002360:	683b      	ldr	r3, [r7, #0]
 8002362:	681b      	ldr	r3, [r3, #0]
 8002364:	2b00      	cmp	r3, #0
 8002366:	da77      	bge.n	8002458 <HAL_ADC_ConfigChannel+0x5a0>
 8002368:	4840      	ldr	r0, [pc, #256]	@ (800246c <HAL_ADC_ConfigChannel+0x5b4>)
 800236a:	f7fe ff93 	bl	8001294 <LL_ADC_GetCommonPathInternalCh>
 800236e:	66f8      	str	r0, [r7, #108]	@ 0x6c
 8002370:	483f      	ldr	r0, [pc, #252]	@ (8002470 <HAL_ADC_ConfigChannel+0x5b8>)
 8002372:	f7ff f911 	bl	8001598 <LL_ADC_IsEnabled>
 8002376:	4604      	mov	r4, r0
 8002378:	483e      	ldr	r0, [pc, #248]	@ (8002474 <HAL_ADC_ConfigChannel+0x5bc>)
 800237a:	f7ff f90d 	bl	8001598 <LL_ADC_IsEnabled>
 800237e:	4603      	mov	r3, r0
 8002380:	4323      	orrs	r3, r4
 8002382:	2b00      	cmp	r3, #0
 8002384:	d155      	bne.n	8002432 <HAL_ADC_ConfigChannel+0x57a>
 8002386:	683b      	ldr	r3, [r7, #0]
 8002388:	681b      	ldr	r3, [r3, #0]
 800238a:	4a3b      	ldr	r2, [pc, #236]	@ (8002478 <HAL_ADC_ConfigChannel+0x5c0>)
 800238c:	4293      	cmp	r3, r2
 800238e:	d122      	bne.n	80023d6 <HAL_ADC_ConfigChannel+0x51e>
 8002390:	6efb      	ldr	r3, [r7, #108]	@ 0x6c
 8002392:	f403 0300 	and.w	r3, r3, #8388608	@ 0x800000
 8002396:	2b00      	cmp	r3, #0
 8002398:	d11d      	bne.n	80023d6 <HAL_ADC_ConfigChannel+0x51e>
 800239a:	687b      	ldr	r3, [r7, #4]
 800239c:	681b      	ldr	r3, [r3, #0]
 800239e:	4a35      	ldr	r2, [pc, #212]	@ (8002474 <HAL_ADC_ConfigChannel+0x5bc>)
 80023a0:	4293      	cmp	r3, r2
 80023a2:	d159      	bne.n	8002458 <HAL_ADC_ConfigChannel+0x5a0>
 80023a4:	6efb      	ldr	r3, [r7, #108]	@ 0x6c
 80023a6:	f443 0300 	orr.w	r3, r3, #8388608	@ 0x800000
 80023aa:	4619      	mov	r1, r3
 80023ac:	482f      	ldr	r0, [pc, #188]	@ (800246c <HAL_ADC_ConfigChannel+0x5b4>)
 80023ae:	f7fe ff5e 	bl	800126e <LL_ADC_SetCommonPathInternalCh>
 80023b2:	4b32      	ldr	r3, [pc, #200]	@ (800247c <HAL_ADC_ConfigChannel+0x5c4>)
 80023b4:	681b      	ldr	r3, [r3, #0]
 80023b6:	099b      	lsrs	r3, r3, #6
 80023b8:	4a31      	ldr	r2, [pc, #196]	@ (8002480 <HAL_ADC_ConfigChannel+0x5c8>)
 80023ba:	fba2 2303 	umull	r2, r3, r2, r3
 80023be:	099b      	lsrs	r3, r3, #6
 80023c0:	3301      	adds	r3, #1
 80023c2:	005b      	lsls	r3, r3, #1
 80023c4:	60bb      	str	r3, [r7, #8]
 80023c6:	e002      	b.n	80023ce <HAL_ADC_ConfigChannel+0x516>
 80023c8:	68bb      	ldr	r3, [r7, #8]
 80023ca:	3b01      	subs	r3, #1
 80023cc:	60bb      	str	r3, [r7, #8]
 80023ce:	68bb      	ldr	r3, [r7, #8]
 80023d0:	2b00      	cmp	r3, #0
 80023d2:	d1f9      	bne.n	80023c8 <HAL_ADC_ConfigChannel+0x510>
 80023d4:	e040      	b.n	8002458 <HAL_ADC_ConfigChannel+0x5a0>
 80023d6:	683b      	ldr	r3, [r7, #0]
 80023d8:	681b      	ldr	r3, [r3, #0]
 80023da:	4a2a      	ldr	r2, [pc, #168]	@ (8002484 <HAL_ADC_ConfigChannel+0x5cc>)
 80023dc:	4293      	cmp	r3, r2
 80023de:	d111      	bne.n	8002404 <HAL_ADC_ConfigChannel+0x54c>
 80023e0:	6efb      	ldr	r3, [r7, #108]	@ 0x6c
 80023e2:	f003 7380 	and.w	r3, r3, #16777216	@ 0x1000000
 80023e6:	2b00      	cmp	r3, #0
 80023e8:	d10c      	bne.n	8002404 <HAL_ADC_ConfigChannel+0x54c>
 80023ea:	687b      	ldr	r3, [r7, #4]
 80023ec:	681b      	ldr	r3, [r3, #0]
 80023ee:	4a21      	ldr	r2, [pc, #132]	@ (8002474 <HAL_ADC_ConfigChannel+0x5bc>)
 80023f0:	4293      	cmp	r3, r2
 80023f2:	d131      	bne.n	8002458 <HAL_ADC_ConfigChannel+0x5a0>
 80023f4:	6efb      	ldr	r3, [r7, #108]	@ 0x6c
 80023f6:	f043 7380 	orr.w	r3, r3, #16777216	@ 0x1000000
 80023fa:	4619      	mov	r1, r3
 80023fc:	481b      	ldr	r0, [pc, #108]	@ (800246c <HAL_ADC_ConfigChannel+0x5b4>)
 80023fe:	f7fe ff36 	bl	800126e <LL_ADC_SetCommonPathInternalCh>
 8002402:	e029      	b.n	8002458 <HAL_ADC_ConfigChannel+0x5a0>
 8002404:	683b      	ldr	r3, [r7, #0]
 8002406:	681b      	ldr	r3, [r3, #0]
 8002408:	4a1f      	ldr	r2, [pc, #124]	@ (8002488 <HAL_ADC_ConfigChannel+0x5d0>)
 800240a:	4293      	cmp	r3, r2
 800240c:	d124      	bne.n	8002458 <HAL_ADC_ConfigChannel+0x5a0>
 800240e:	6efb      	ldr	r3, [r7, #108]	@ 0x6c
 8002410:	f403 0380 	and.w	r3, r3, #4194304	@ 0x400000
 8002414:	2b00      	cmp	r3, #0
 8002416:	d11f      	bne.n	8002458 <HAL_ADC_ConfigChannel+0x5a0>
 8002418:	687b      	ldr	r3, [r7, #4]
 800241a:	681b      	ldr	r3, [r3, #0]
 800241c:	4a15      	ldr	r2, [pc, #84]	@ (8002474 <HAL_ADC_ConfigChannel+0x5bc>)
 800241e:	4293      	cmp	r3, r2
 8002420:	d11a      	bne.n	8002458 <HAL_ADC_ConfigChannel+0x5a0>
 8002422:	6efb      	ldr	r3, [r7, #108]	@ 0x6c
 8002424:	f443 0380 	orr.w	r3, r3, #4194304	@ 0x400000
 8002428:	4619      	mov	r1, r3
 800242a:	4810      	ldr	r0, [pc, #64]	@ (800246c <HAL_ADC_ConfigChannel+0x5b4>)
 800242c:	f7fe ff1f 	bl	800126e <LL_ADC_SetCommonPathInternalCh>
 8002430:	e012      	b.n	8002458 <HAL_ADC_ConfigChannel+0x5a0>
 8002432:	687b      	ldr	r3, [r7, #4]
 8002434:	6d5b      	ldr	r3, [r3, #84]	@ 0x54
 8002436:	f043 0220 	orr.w	r2, r3, #32
 800243a:	687b      	ldr	r3, [r7, #4]
 800243c:	655a      	str	r2, [r3, #84]	@ 0x54
 800243e:	2301      	movs	r3, #1
 8002440:	f887 307f 	strb.w	r3, [r7, #127]	@ 0x7f
 8002444:	e008      	b.n	8002458 <HAL_ADC_ConfigChannel+0x5a0>
 8002446:	687b      	ldr	r3, [r7, #4]
 8002448:	6d5b      	ldr	r3, [r3, #84]	@ 0x54
 800244a:	f043 0220 	orr.w	r2, r3, #32
 800244e:	687b      	ldr	r3, [r7, #4]
 8002450:	655a      	str	r2, [r3, #84]	@ 0x54
 8002452:	2301      	movs	r3, #1
 8002454:	f887 307f 	strb.w	r3, [r7, #127]	@ 0x7f
 8002458:	687b      	ldr	r3, [r7, #4]
 800245a:	2200      	movs	r2, #0
 800245c:	f883 2050 	strb.w	r2, [r3, #80]	@ 0x50
 8002460:	f897 307f 	ldrb.w	r3, [r7, #127]	@ 0x7f
 8002464:	4618      	mov	r0, r3
 8002466:	3784      	adds	r7, #132	@ 0x84
 8002468:	46bd      	mov	sp, r7
 800246a:	bd90      	pop	{r4, r7, pc}
 800246c:	40022300 	.word	0x40022300
 8002470:	40022000 	.word	0x40022000
 8002474:	40022100 	.word	0x40022100
 8002478:	cb840000 	.word	0xcb840000
 800247c:	24000000 	.word	0x24000000
 8002480:	053e2d63 	.word	0x053e2d63
 8002484:	bac04000 	.word	0xbac04000
 8002488:	cfb80000 	.word	0xcfb80000

0800248c <ADC_Enable>:
 800248c:	b580      	push	{r7, lr}
 800248e:	b084      	sub	sp, #16
 8002490:	af00      	add	r7, sp, #0
 8002492:	6078      	str	r0, [r7, #4]
 8002494:	687b      	ldr	r3, [r7, #4]
 8002496:	681b      	ldr	r3, [r3, #0]
 8002498:	4618      	mov	r0, r3
 800249a:	f7ff f87d 	bl	8001598 <LL_ADC_IsEnabled>
 800249e:	4603      	mov	r3, r0
 80024a0:	2b00      	cmp	r3, #0
 80024a2:	d161      	bne.n	8002568 <ADC_Enable+0xdc>
 80024a4:	687b      	ldr	r3, [r7, #4]
 80024a6:	681b      	ldr	r3, [r3, #0]
 80024a8:	689a      	ldr	r2, [r3, #8]
 80024aa:	4b32      	ldr	r3, [pc, #200]	@ (8002574 <ADC_Enable+0xe8>)
 80024ac:	4013      	ands	r3, r2
 80024ae:	2b00      	cmp	r3, #0
 80024b0:	d00d      	beq.n	80024ce <ADC_Enable+0x42>
 80024b2:	687b      	ldr	r3, [r7, #4]
 80024b4:	6d5b      	ldr	r3, [r3, #84]	@ 0x54
 80024b6:	f043 0210 	orr.w	r2, r3, #16
 80024ba:	687b      	ldr	r3, [r7, #4]
 80024bc:	655a      	str	r2, [r3, #84]	@ 0x54
 80024be:	687b      	ldr	r3, [r7, #4]
 80024c0:	6d9b      	ldr	r3, [r3, #88]	@ 0x58
 80024c2:	f043 0201 	orr.w	r2, r3, #1
 80024c6:	687b      	ldr	r3, [r7, #4]
 80024c8:	659a      	str	r2, [r3, #88]	@ 0x58
 80024ca:	2301      	movs	r3, #1
 80024cc:	e04d      	b.n	800256a <ADC_Enable+0xde>
 80024ce:	687b      	ldr	r3, [r7, #4]
 80024d0:	681b      	ldr	r3, [r3, #0]
 80024d2:	4618      	mov	r0, r3
 80024d4:	f7ff f84c 	bl	8001570 <LL_ADC_Enable>
 80024d8:	f7fe fe9e 	bl	8001218 <HAL_GetTick>
 80024dc:	60f8      	str	r0, [r7, #12]
 80024de:	4826      	ldr	r0, [pc, #152]	@ (8002578 <ADC_Enable+0xec>)
 80024e0:	f7fe ffdc 	bl	800149c <LL_ADC_GetMultimode>
 80024e4:	60b8      	str	r0, [r7, #8]
 80024e6:	687b      	ldr	r3, [r7, #4]
 80024e8:	681b      	ldr	r3, [r3, #0]
 80024ea:	4a24      	ldr	r2, [pc, #144]	@ (800257c <ADC_Enable+0xf0>)
 80024ec:	4293      	cmp	r3, r2
 80024ee:	d002      	beq.n	80024f6 <ADC_Enable+0x6a>
 80024f0:	687b      	ldr	r3, [r7, #4]
 80024f2:	681b      	ldr	r3, [r3, #0]
 80024f4:	e000      	b.n	80024f8 <ADC_Enable+0x6c>
 80024f6:	4b22      	ldr	r3, [pc, #136]	@ (8002580 <ADC_Enable+0xf4>)
 80024f8:	687a      	ldr	r2, [r7, #4]
 80024fa:	6812      	ldr	r2, [r2, #0]
 80024fc:	4293      	cmp	r3, r2
 80024fe:	d02c      	beq.n	800255a <ADC_Enable+0xce>
 8002500:	68bb      	ldr	r3, [r7, #8]
 8002502:	2b00      	cmp	r3, #0
 8002504:	d130      	bne.n	8002568 <ADC_Enable+0xdc>
 8002506:	e028      	b.n	800255a <ADC_Enable+0xce>
 8002508:	687b      	ldr	r3, [r7, #4]
 800250a:	681b      	ldr	r3, [r3, #0]
 800250c:	4618      	mov	r0, r3
 800250e:	f7ff f843 	bl	8001598 <LL_ADC_IsEnabled>
 8002512:	4603      	mov	r3, r0
 8002514:	2b00      	cmp	r3, #0
 8002516:	d104      	bne.n	8002522 <ADC_Enable+0x96>
 8002518:	687b      	ldr	r3, [r7, #4]
 800251a:	681b      	ldr	r3, [r3, #0]
 800251c:	4618      	mov	r0, r3
 800251e:	f7ff f827 	bl	8001570 <LL_ADC_Enable>
 8002522:	f7fe fe79 	bl	8001218 <HAL_GetTick>
 8002526:	4602      	mov	r2, r0
 8002528:	68fb      	ldr	r3, [r7, #12]
 800252a:	1ad3      	subs	r3, r2, r3
 800252c:	2b02      	cmp	r3, #2
 800252e:	d914      	bls.n	800255a <ADC_Enable+0xce>
 8002530:	687b      	ldr	r3, [r7, #4]
 8002532:	681b      	ldr	r3, [r3, #0]
 8002534:	681b      	ldr	r3, [r3, #0]
 8002536:	f003 0301 	and.w	r3, r3, #1
 800253a:	2b01      	cmp	r3, #1
 800253c:	d00d      	beq.n	800255a <ADC_Enable+0xce>
 800253e:	687b      	ldr	r3, [r7, #4]
 8002540:	6d5b      	ldr	r3, [r3, #84]	@ 0x54
 8002542:	f043 0210 	orr.w	r2, r3, #16
 8002546:	687b      	ldr	r3, [r7, #4]
 8002548:	655a      	str	r2, [r3, #84]	@ 0x54
 800254a:	687b      	ldr	r3, [r7, #4]
 800254c:	6d9b      	ldr	r3, [r3, #88]	@ 0x58
 800254e:	f043 0201 	orr.w	r2, r3, #1
 8002552:	687b      	ldr	r3, [r7, #4]
 8002554:	659a      	str	r2, [r3, #88]	@ 0x58
 8002556:	2301      	movs	r3, #1
 8002558:	e007      	b.n	800256a <ADC_Enable+0xde>
 800255a:	687b      	ldr	r3, [r7, #4]
 800255c:	681b      	ldr	r3, [r3, #0]
 800255e:	681b      	ldr	r3, [r3, #0]
 8002560:	f003 0301 	and.w	r3, r3, #1
 8002564:	2b01      	cmp	r3, #1
 8002566:	d1cf      	bne.n	8002508 <ADC_Enable+0x7c>
 8002568:	2300      	movs	r3, #0
 800256a:	4618      	mov	r0, r3
 800256c:	3710      	adds	r7, #16
 800256e:	46bd      	mov	sp, r7
 8002570:	bd80      	pop	{r7, pc}
 8002572:	bf00      	nop
 8002574:	8000003f 	.word	0x8000003f
 8002578:	40022300 	.word	0x40022300
 800257c:	40022100 	.word	0x40022100
 8002580:	40022000 	.word	0x40022000

08002584 <ADC_DMAConvCplt>:
 8002584:	b580      	push	{r7, lr}
 8002586:	b084      	sub	sp, #16
 8002588:	af00      	add	r7, sp, #0
 800258a:	6078      	str	r0, [r7, #4]
 800258c:	687b      	ldr	r3, [r7, #4]
 800258e:	6b9b      	ldr	r3, [r3, #56]	@ 0x38
 8002590:	60fb      	str	r3, [r7, #12]
 8002592:	68fb      	ldr	r3, [r7, #12]
 8002594:	6d5b      	ldr	r3, [r3, #84]	@ 0x54
 8002596:	f003 0350 	and.w	r3, r3, #80	@ 0x50
 800259a:	2b00      	cmp	r3, #0
 800259c:	d14b      	bne.n	8002636 <ADC_DMAConvCplt+0xb2>
 800259e:	68fb      	ldr	r3, [r7, #12]
 80025a0:	6d5b      	ldr	r3, [r3, #84]	@ 0x54
 80025a2:	f443 7200 	orr.w	r2, r3, #512	@ 0x200
 80025a6:	68fb      	ldr	r3, [r7, #12]
 80025a8:	655a      	str	r2, [r3, #84]	@ 0x54
 80025aa:	68fb      	ldr	r3, [r7, #12]
 80025ac:	681b      	ldr	r3, [r3, #0]
 80025ae:	681b      	ldr	r3, [r3, #0]
 80025b0:	f003 0308 	and.w	r3, r3, #8
 80025b4:	2b00      	cmp	r3, #0
 80025b6:	d021      	beq.n	80025fc <ADC_DMAConvCplt+0x78>
 80025b8:	68fb      	ldr	r3, [r7, #12]
 80025ba:	681b      	ldr	r3, [r3, #0]
 80025bc:	4618      	mov	r0, r3
 80025be:	f7fe fecb 	bl	8001358 <LL_ADC_REG_IsTriggerSourceSWStart>
 80025c2:	4603      	mov	r3, r0
 80025c4:	2b00      	cmp	r3, #0
 80025c6:	d032      	beq.n	800262e <ADC_DMAConvCplt+0xaa>
 80025c8:	68fb      	ldr	r3, [r7, #12]
 80025ca:	681b      	ldr	r3, [r3, #0]
 80025cc:	68db      	ldr	r3, [r3, #12]
 80025ce:	f403 5300 	and.w	r3, r3, #8192	@ 0x2000
 80025d2:	2b00      	cmp	r3, #0
 80025d4:	d12b      	bne.n	800262e <ADC_DMAConvCplt+0xaa>
 80025d6:	68fb      	ldr	r3, [r7, #12]
 80025d8:	6d5b      	ldr	r3, [r3, #84]	@ 0x54
 80025da:	f423 7280 	bic.w	r2, r3, #256	@ 0x100
 80025de:	68fb      	ldr	r3, [r7, #12]
 80025e0:	655a      	str	r2, [r3, #84]	@ 0x54
 80025e2:	68fb      	ldr	r3, [r7, #12]
 80025e4:	6d5b      	ldr	r3, [r3, #84]	@ 0x54
 80025e6:	f403 5380 	and.w	r3, r3, #4096	@ 0x1000
 80025ea:	2b00      	cmp	r3, #0
 80025ec:	d11f      	bne.n	800262e <ADC_DMAConvCplt+0xaa>
 80025ee:	68fb      	ldr	r3, [r7, #12]
 80025f0:	6d5b      	ldr	r3, [r3, #84]	@ 0x54
 80025f2:	f043 0201 	orr.w	r2, r3, #1
 80025f6:	68fb      	ldr	r3, [r7, #12]
 80025f8:	655a      	str	r2, [r3, #84]	@ 0x54
 80025fa:	e018      	b.n	800262e <ADC_DMAConvCplt+0xaa>
 80025fc:	68fb      	ldr	r3, [r7, #12]
 80025fe:	681b      	ldr	r3, [r3, #0]
 8002600:	68db      	ldr	r3, [r3, #12]
 8002602:	f003 0303 	and.w	r3, r3, #3
 8002606:	2b00      	cmp	r3, #0
 8002608:	d111      	bne.n	800262e <ADC_DMAConvCplt+0xaa>
 800260a:	68fb      	ldr	r3, [r7, #12]
 800260c:	6d5b      	ldr	r3, [r3, #84]	@ 0x54
 800260e:	f423 7280 	bic.w	r2, r3, #256	@ 0x100
 8002612:	68fb      	ldr	r3, [r7, #12]
 8002614:	655a      	str	r2, [r3, #84]	@ 0x54
 8002616:	68fb      	ldr	r3, [r7, #12]
 8002618:	6d5b      	ldr	r3, [r3, #84]	@ 0x54
 800261a:	f403 5380 	and.w	r3, r3, #4096	@ 0x1000
 800261e:	2b00      	cmp	r3, #0
 8002620:	d105      	bne.n	800262e <ADC_DMAConvCplt+0xaa>
 8002622:	68fb      	ldr	r3, [r7, #12]
 8002624:	6d5b      	ldr	r3, [r3, #84]	@ 0x54
 8002626:	f043 0201 	orr.w	r2, r3, #1
 800262a:	68fb      	ldr	r3, [r7, #12]
 800262c:	655a      	str	r2, [r3, #84]	@ 0x54
 800262e:	68f8      	ldr	r0, [r7, #12]
 8002630:	f7fe fada 	bl	8000be8 <HAL_ADC_ConvCpltCallback>
 8002634:	e00e      	b.n	8002654 <ADC_DMAConvCplt+0xd0>
 8002636:	68fb      	ldr	r3, [r7, #12]
 8002638:	6d5b      	ldr	r3, [r3, #84]	@ 0x54
 800263a:	f003 0310 	and.w	r3, r3, #16
 800263e:	2b00      	cmp	r3, #0
 8002640:	d003      	beq.n	800264a <ADC_DMAConvCplt+0xc6>
 8002642:	68f8      	ldr	r0, [r7, #12]
 8002644:	f7ff fc2e 	bl	8001ea4 <HAL_ADC_ErrorCallback>
 8002648:	e004      	b.n	8002654 <ADC_DMAConvCplt+0xd0>
 800264a:	68fb      	ldr	r3, [r7, #12]
 800264c:	6cdb      	ldr	r3, [r3, #76]	@ 0x4c
 800264e:	6cdb      	ldr	r3, [r3, #76]	@ 0x4c
 8002650:	6878      	ldr	r0, [r7, #4]
 8002652:	4798      	blx	r3
 8002654:	bf00      	nop
 8002656:	3710      	adds	r7, #16
 8002658:	46bd      	mov	sp, r7
 800265a:	bd80      	pop	{r7, pc}

0800265c <ADC_DMAHalfConvCplt>:
 800265c:	b580      	push	{r7, lr}
 800265e:	b084      	sub	sp, #16
 8002660:	af00      	add	r7, sp, #0
 8002662:	6078      	str	r0, [r7, #4]
 8002664:	687b      	ldr	r3, [r7, #4]
 8002666:	6b9b      	ldr	r3, [r3, #56]	@ 0x38
 8002668:	60fb      	str	r3, [r7, #12]
 800266a:	68f8      	ldr	r0, [r7, #12]
 800266c:	f7fe faac 	bl	8000bc8 <HAL_ADC_ConvHalfCpltCallback>
 8002670:	bf00      	nop
 8002672:	3710      	adds	r7, #16
 8002674:	46bd      	mov	sp, r7
 8002676:	bd80      	pop	{r7, pc}

08002678 <ADC_DMAError>:
 8002678:	b580      	push	{r7, lr}
 800267a:	b084      	sub	sp, #16
 800267c:	af00      	add	r7, sp, #0
 800267e:	6078      	str	r0, [r7, #4]
 8002680:	687b      	ldr	r3, [r7, #4]
 8002682:	6b9b      	ldr	r3, [r3, #56]	@ 0x38
 8002684:	60fb      	str	r3, [r7, #12]
 8002686:	68fb      	ldr	r3, [r7, #12]
 8002688:	6d5b      	ldr	r3, [r3, #84]	@ 0x54
 800268a:	f043 0240 	orr.w	r2, r3, #64	@ 0x40
 800268e:	68fb      	ldr	r3, [r7, #12]
 8002690:	655a      	str	r2, [r3, #84]	@ 0x54
 8002692:	68fb      	ldr	r3, [r7, #12]
 8002694:	6d9b      	ldr	r3, [r3, #88]	@ 0x58
 8002696:	f043 0204 	orr.w	r2, r3, #4
 800269a:	68fb      	ldr	r3, [r7, #12]
 800269c:	659a      	str	r2, [r3, #88]	@ 0x58
 800269e:	68f8      	ldr	r0, [r7, #12]
 80026a0:	f7ff fc00 	bl	8001ea4 <HAL_ADC_ErrorCallback>
 80026a4:	bf00      	nop
 80026a6:	3710      	adds	r7, #16
 80026a8:	46bd      	mov	sp, r7
 80026aa:	bd80      	pop	{r7, pc}

080026ac <ADC_ConfigureBoostMode>:
 80026ac:	b580      	push	{r7, lr}
 80026ae:	b084      	sub	sp, #16
 80026b0:	af00      	add	r7, sp, #0
 80026b2:	6078      	str	r0, [r7, #4]
 80026b4:	4b60      	ldr	r3, [pc, #384]	@ (8002838 <ADC_ConfigureBoostMode+0x18c>)
 80026b6:	689b      	ldr	r3, [r3, #8]
 80026b8:	f403 3340 	and.w	r3, r3, #196608	@ 0x30000
 80026bc:	2b00      	cmp	r3, #0
 80026be:	d01c      	beq.n	80026fa <ADC_ConfigureBoostMode+0x4e>
 80026c0:	f004 fd02 	bl	80070c8 <HAL_RCC_GetHCLKFreq>
 80026c4:	60f8      	str	r0, [r7, #12]
 80026c6:	687b      	ldr	r3, [r7, #4]
 80026c8:	685b      	ldr	r3, [r3, #4]
 80026ca:	f5b3 3f40 	cmp.w	r3, #196608	@ 0x30000
 80026ce:	d010      	beq.n	80026f2 <ADC_ConfigureBoostMode+0x46>
 80026d0:	f5b3 3f40 	cmp.w	r3, #196608	@ 0x30000
 80026d4:	d873      	bhi.n	80027be <ADC_ConfigureBoostMode+0x112>
 80026d6:	f5b3 3f80 	cmp.w	r3, #65536	@ 0x10000
 80026da:	d002      	beq.n	80026e2 <ADC_ConfigureBoostMode+0x36>
 80026dc:	f5b3 3f00 	cmp.w	r3, #131072	@ 0x20000
 80026e0:	d16d      	bne.n	80027be <ADC_ConfigureBoostMode+0x112>
 80026e2:	687b      	ldr	r3, [r7, #4]
 80026e4:	685b      	ldr	r3, [r3, #4]
 80026e6:	0c1b      	lsrs	r3, r3, #16
 80026e8:	68fa      	ldr	r2, [r7, #12]
 80026ea:	fbb2 f3f3 	udiv	r3, r2, r3
 80026ee:	60fb      	str	r3, [r7, #12]
 80026f0:	e068      	b.n	80027c4 <ADC_ConfigureBoostMode+0x118>
 80026f2:	68fb      	ldr	r3, [r7, #12]
 80026f4:	089b      	lsrs	r3, r3, #2
 80026f6:	60fb      	str	r3, [r7, #12]
 80026f8:	e064      	b.n	80027c4 <ADC_ConfigureBoostMode+0x118>
 80026fa:	f44f 2000 	mov.w	r0, #524288	@ 0x80000
 80026fe:	f04f 0100 	mov.w	r1, #0
 8002702:	f005 fefb 	bl	80084fc <HAL_RCCEx_GetPeriphCLKFreq>
 8002706:	60f8      	str	r0, [r7, #12]
 8002708:	687b      	ldr	r3, [r7, #4]
 800270a:	685b      	ldr	r3, [r3, #4]
 800270c:	f5b3 1f30 	cmp.w	r3, #2883584	@ 0x2c0000
 8002710:	d051      	beq.n	80027b6 <ADC_ConfigureBoostMode+0x10a>
 8002712:	f5b3 1f30 	cmp.w	r3, #2883584	@ 0x2c0000
 8002716:	d854      	bhi.n	80027c2 <ADC_ConfigureBoostMode+0x116>
 8002718:	f5b3 1f20 	cmp.w	r3, #2621440	@ 0x280000
 800271c:	d047      	beq.n	80027ae <ADC_ConfigureBoostMode+0x102>
 800271e:	f5b3 1f20 	cmp.w	r3, #2621440	@ 0x280000
 8002722:	d84e      	bhi.n	80027c2 <ADC_ConfigureBoostMode+0x116>
 8002724:	f5b3 1f10 	cmp.w	r3, #2359296	@ 0x240000
 8002728:	d03d      	beq.n	80027a6 <ADC_ConfigureBoostMode+0xfa>
 800272a:	f5b3 1f10 	cmp.w	r3, #2359296	@ 0x240000
 800272e:	d848      	bhi.n	80027c2 <ADC_ConfigureBoostMode+0x116>
 8002730:	f5b3 1f00 	cmp.w	r3, #2097152	@ 0x200000
 8002734:	d033      	beq.n	800279e <ADC_ConfigureBoostMode+0xf2>
 8002736:	f5b3 1f00 	cmp.w	r3, #2097152	@ 0x200000
 800273a:	d842      	bhi.n	80027c2 <ADC_ConfigureBoostMode+0x116>
 800273c:	f5b3 1fe0 	cmp.w	r3, #1835008	@ 0x1c0000
 8002740:	d029      	beq.n	8002796 <ADC_ConfigureBoostMode+0xea>
 8002742:	f5b3 1fe0 	cmp.w	r3, #1835008	@ 0x1c0000
 8002746:	d83c      	bhi.n	80027c2 <ADC_ConfigureBoostMode+0x116>
 8002748:	f5b3 1fc0 	cmp.w	r3, #1572864	@ 0x180000
 800274c:	d01a      	beq.n	8002784 <ADC_ConfigureBoostMode+0xd8>
 800274e:	f5b3 1fc0 	cmp.w	r3, #1572864	@ 0x180000
 8002752:	d836      	bhi.n	80027c2 <ADC_ConfigureBoostMode+0x116>
 8002754:	f5b3 1fa0 	cmp.w	r3, #1310720	@ 0x140000
 8002758:	d014      	beq.n	8002784 <ADC_ConfigureBoostMode+0xd8>
 800275a:	f5b3 1fa0 	cmp.w	r3, #1310720	@ 0x140000
 800275e:	d830      	bhi.n	80027c2 <ADC_ConfigureBoostMode+0x116>
 8002760:	f5b3 1f80 	cmp.w	r3, #1048576	@ 0x100000
 8002764:	d00e      	beq.n	8002784 <ADC_ConfigureBoostMode+0xd8>
 8002766:	f5b3 1f80 	cmp.w	r3, #1048576	@ 0x100000
 800276a:	d82a      	bhi.n	80027c2 <ADC_ConfigureBoostMode+0x116>
 800276c:	f5b3 2f40 	cmp.w	r3, #786432	@ 0xc0000
 8002770:	d008      	beq.n	8002784 <ADC_ConfigureBoostMode+0xd8>
 8002772:	f5b3 2f40 	cmp.w	r3, #786432	@ 0xc0000
 8002776:	d824      	bhi.n	80027c2 <ADC_ConfigureBoostMode+0x116>
 8002778:	f5b3 2f80 	cmp.w	r3, #262144	@ 0x40000
 800277c:	d002      	beq.n	8002784 <ADC_ConfigureBoostMode+0xd8>
 800277e:	f5b3 2f00 	cmp.w	r3, #524288	@ 0x80000
 8002782:	d11e      	bne.n	80027c2 <ADC_ConfigureBoostMode+0x116>
 8002784:	687b      	ldr	r3, [r7, #4]
 8002786:	685b      	ldr	r3, [r3, #4]
 8002788:	0c9b      	lsrs	r3, r3, #18
 800278a:	005b      	lsls	r3, r3, #1
 800278c:	68fa      	ldr	r2, [r7, #12]
 800278e:	fbb2 f3f3 	udiv	r3, r2, r3
 8002792:	60fb      	str	r3, [r7, #12]
 8002794:	e016      	b.n	80027c4 <ADC_ConfigureBoostMode+0x118>
 8002796:	68fb      	ldr	r3, [r7, #12]
 8002798:	091b      	lsrs	r3, r3, #4
 800279a:	60fb      	str	r3, [r7, #12]
 800279c:	e012      	b.n	80027c4 <ADC_ConfigureBoostMode+0x118>
 800279e:	68fb      	ldr	r3, [r7, #12]
 80027a0:	095b      	lsrs	r3, r3, #5
 80027a2:	60fb      	str	r3, [r7, #12]
 80027a4:	e00e      	b.n	80027c4 <ADC_ConfigureBoostMode+0x118>
 80027a6:	68fb      	ldr	r3, [r7, #12]
 80027a8:	099b      	lsrs	r3, r3, #6
 80027aa:	60fb      	str	r3, [r7, #12]
 80027ac:	e00a      	b.n	80027c4 <ADC_ConfigureBoostMode+0x118>
 80027ae:	68fb      	ldr	r3, [r7, #12]
 80027b0:	09db      	lsrs	r3, r3, #7
 80027b2:	60fb      	str	r3, [r7, #12]
 80027b4:	e006      	b.n	80027c4 <ADC_ConfigureBoostMode+0x118>
 80027b6:	68fb      	ldr	r3, [r7, #12]
 80027b8:	0a1b      	lsrs	r3, r3, #8
 80027ba:	60fb      	str	r3, [r7, #12]
 80027bc:	e002      	b.n	80027c4 <ADC_ConfigureBoostMode+0x118>
 80027be:	bf00      	nop
 80027c0:	e000      	b.n	80027c4 <ADC_ConfigureBoostMode+0x118>
 80027c2:	bf00      	nop
 80027c4:	68fb      	ldr	r3, [r7, #12]
 80027c6:	085b      	lsrs	r3, r3, #1
 80027c8:	60fb      	str	r3, [r7, #12]
 80027ca:	68fb      	ldr	r3, [r7, #12]
 80027cc:	4a1b      	ldr	r2, [pc, #108]	@ (800283c <ADC_ConfigureBoostMode+0x190>)
 80027ce:	4293      	cmp	r3, r2
 80027d0:	d808      	bhi.n	80027e4 <ADC_ConfigureBoostMode+0x138>
 80027d2:	687b      	ldr	r3, [r7, #4]
 80027d4:	681b      	ldr	r3, [r3, #0]
 80027d6:	689a      	ldr	r2, [r3, #8]
 80027d8:	687b      	ldr	r3, [r7, #4]
 80027da:	681b      	ldr	r3, [r3, #0]
 80027dc:	f422 7240 	bic.w	r2, r2, #768	@ 0x300
 80027e0:	609a      	str	r2, [r3, #8]
 80027e2:	e025      	b.n	8002830 <ADC_ConfigureBoostMode+0x184>
 80027e4:	68fb      	ldr	r3, [r7, #12]
 80027e6:	4a16      	ldr	r2, [pc, #88]	@ (8002840 <ADC_ConfigureBoostMode+0x194>)
 80027e8:	4293      	cmp	r3, r2
 80027ea:	d80a      	bhi.n	8002802 <ADC_ConfigureBoostMode+0x156>
 80027ec:	687b      	ldr	r3, [r7, #4]
 80027ee:	681b      	ldr	r3, [r3, #0]
 80027f0:	689b      	ldr	r3, [r3, #8]
 80027f2:	f423 7240 	bic.w	r2, r3, #768	@ 0x300
 80027f6:	687b      	ldr	r3, [r7, #4]
 80027f8:	681b      	ldr	r3, [r3, #0]
 80027fa:	f442 7280 	orr.w	r2, r2, #256	@ 0x100
 80027fe:	609a      	str	r2, [r3, #8]
 8002800:	e016      	b.n	8002830 <ADC_ConfigureBoostMode+0x184>
 8002802:	68fb      	ldr	r3, [r7, #12]
 8002804:	4a0f      	ldr	r2, [pc, #60]	@ (8002844 <ADC_ConfigureBoostMode+0x198>)
 8002806:	4293      	cmp	r3, r2
 8002808:	d80a      	bhi.n	8002820 <ADC_ConfigureBoostMode+0x174>
 800280a:	687b      	ldr	r3, [r7, #4]
 800280c:	681b      	ldr	r3, [r3, #0]
 800280e:	689b      	ldr	r3, [r3, #8]
 8002810:	f423 7240 	bic.w	r2, r3, #768	@ 0x300
 8002814:	687b      	ldr	r3, [r7, #4]
 8002816:	681b      	ldr	r3, [r3, #0]
 8002818:	f442 7200 	orr.w	r2, r2, #512	@ 0x200
 800281c:	609a      	str	r2, [r3, #8]
 800281e:	e007      	b.n	8002830 <ADC_ConfigureBoostMode+0x184>
 8002820:	687b      	ldr	r3, [r7, #4]
 8002822:	681b      	ldr	r3, [r3, #0]
 8002824:	689a      	ldr	r2, [r3, #8]
 8002826:	687b      	ldr	r3, [r7, #4]
 8002828:	681b      	ldr	r3, [r3, #0]
 800282a:	f442 7240 	orr.w	r2, r2, #768	@ 0x300
 800282e:	609a      	str	r2, [r3, #8]
 8002830:	bf00      	nop
 8002832:	3710      	adds	r7, #16
 8002834:	46bd      	mov	sp, r7
 8002836:	bd80      	pop	{r7, pc}
 8002838:	40022300 	.word	0x40022300
 800283c:	005f5e10 	.word	0x005f5e10
 8002840:	00bebc20 	.word	0x00bebc20
 8002844:	017d7840 	.word	0x017d7840

08002848 <LL_ADC_IsEnabled>:
 8002848:	b480      	push	{r7}
 800284a:	b083      	sub	sp, #12
 800284c:	af00      	add	r7, sp, #0
 800284e:	6078      	str	r0, [r7, #4]
 8002850:	687b      	ldr	r3, [r7, #4]
 8002852:	689b      	ldr	r3, [r3, #8]
 8002854:	f003 0301 	and.w	r3, r3, #1
 8002858:	2b01      	cmp	r3, #1
 800285a:	d101      	bne.n	8002860 <LL_ADC_IsEnabled+0x18>
 800285c:	2301      	movs	r3, #1
 800285e:	e000      	b.n	8002862 <LL_ADC_IsEnabled+0x1a>
 8002860:	2300      	movs	r3, #0
 8002862:	4618      	mov	r0, r3
 8002864:	370c      	adds	r7, #12
 8002866:	46bd      	mov	sp, r7
 8002868:	f85d 7b04 	ldr.w	r7, [sp], #4
 800286c:	4770      	bx	lr
	...

08002870 <LL_ADC_REG_StartConversion>:
 8002870:	b480      	push	{r7}
 8002872:	b083      	sub	sp, #12
 8002874:	af00      	add	r7, sp, #0
 8002876:	6078      	str	r0, [r7, #4]
 8002878:	687b      	ldr	r3, [r7, #4]
 800287a:	689a      	ldr	r2, [r3, #8]
 800287c:	4b05      	ldr	r3, [pc, #20]	@ (8002894 <LL_ADC_REG_StartConversion+0x24>)
 800287e:	4013      	ands	r3, r2
 8002880:	f043 0204 	orr.w	r2, r3, #4
 8002884:	687b      	ldr	r3, [r7, #4]
 8002886:	609a      	str	r2, [r3, #8]
 8002888:	bf00      	nop
 800288a:	370c      	adds	r7, #12
 800288c:	46bd      	mov	sp, r7
 800288e:	f85d 7b04 	ldr.w	r7, [sp], #4
 8002892:	4770      	bx	lr
 8002894:	7fffffc0 	.word	0x7fffffc0

08002898 <LL_ADC_REG_IsConversionOngoing>:
 8002898:	b480      	push	{r7}
 800289a:	b083      	sub	sp, #12
 800289c:	af00      	add	r7, sp, #0
 800289e:	6078      	str	r0, [r7, #4]
 80028a0:	687b      	ldr	r3, [r7, #4]
 80028a2:	689b      	ldr	r3, [r3, #8]
 80028a4:	f003 0304 	and.w	r3, r3, #4
 80028a8:	2b04      	cmp	r3, #4
 80028aa:	d101      	bne.n	80028b0 <LL_ADC_REG_IsConversionOngoing+0x18>
 80028ac:	2301      	movs	r3, #1
 80028ae:	e000      	b.n	80028b2 <LL_ADC_REG_IsConversionOngoing+0x1a>
 80028b0:	2300      	movs	r3, #0
 80028b2:	4618      	mov	r0, r3
 80028b4:	370c      	adds	r7, #12
 80028b6:	46bd      	mov	sp, r7
 80028b8:	f85d 7b04 	ldr.w	r7, [sp], #4
 80028bc:	4770      	bx	lr
	...

080028c0 <HAL_ADCEx_MultiModeStart_DMA>:
 80028c0:	b580      	push	{r7, lr}
 80028c2:	b0a0      	sub	sp, #128	@ 0x80
 80028c4:	af00      	add	r7, sp, #0
 80028c6:	60f8      	str	r0, [r7, #12]
 80028c8:	60b9      	str	r1, [r7, #8]
 80028ca:	607a      	str	r2, [r7, #4]
 80028cc:	68fb      	ldr	r3, [r7, #12]
 80028ce:	681b      	ldr	r3, [r3, #0]
 80028d0:	4618      	mov	r0, r3
 80028d2:	f7ff ffe1 	bl	8002898 <LL_ADC_REG_IsConversionOngoing>
 80028d6:	4603      	mov	r3, r0
 80028d8:	2b00      	cmp	r3, #0
 80028da:	d001      	beq.n	80028e0 <HAL_ADCEx_MultiModeStart_DMA+0x20>
 80028dc:	2302      	movs	r3, #2
 80028de:	e0ad      	b.n	8002a3c <HAL_ADCEx_MultiModeStart_DMA+0x17c>
 80028e0:	68fb      	ldr	r3, [r7, #12]
 80028e2:	f893 3050 	ldrb.w	r3, [r3, #80]	@ 0x50
 80028e6:	2b01      	cmp	r3, #1
 80028e8:	d101      	bne.n	80028ee <HAL_ADCEx_MultiModeStart_DMA+0x2e>
 80028ea:	2302      	movs	r3, #2
 80028ec:	e0a6      	b.n	8002a3c <HAL_ADCEx_MultiModeStart_DMA+0x17c>
 80028ee:	68fb      	ldr	r3, [r7, #12]
 80028f0:	2201      	movs	r2, #1
 80028f2:	f883 2050 	strb.w	r2, [r3, #80]	@ 0x50
 80028f6:	68fb      	ldr	r3, [r7, #12]
 80028f8:	681b      	ldr	r3, [r3, #0]
 80028fa:	4a52      	ldr	r2, [pc, #328]	@ (8002a44 <HAL_ADCEx_MultiModeStart_DMA+0x184>)
 80028fc:	4293      	cmp	r3, r2
 80028fe:	d002      	beq.n	8002906 <HAL_ADCEx_MultiModeStart_DMA+0x46>
 8002900:	68fb      	ldr	r3, [r7, #12]
 8002902:	681b      	ldr	r3, [r3, #0]
 8002904:	e000      	b.n	8002908 <HAL_ADCEx_MultiModeStart_DMA+0x48>
 8002906:	4b50      	ldr	r3, [pc, #320]	@ (8002a48 <HAL_ADCEx_MultiModeStart_DMA+0x188>)
 8002908:	68fa      	ldr	r2, [r7, #12]
 800290a:	6812      	ldr	r2, [r2, #0]
 800290c:	4293      	cmp	r3, r2
 800290e:	d006      	beq.n	800291e <HAL_ADCEx_MultiModeStart_DMA+0x5e>
 8002910:	68f8      	ldr	r0, [r7, #12]
 8002912:	f7ff fdbb 	bl	800248c <ADC_Enable>
 8002916:	4603      	mov	r3, r0
 8002918:	f887 307f 	strb.w	r3, [r7, #127]	@ 0x7f
 800291c:	e02e      	b.n	800297c <HAL_ADCEx_MultiModeStart_DMA+0xbc>
 800291e:	2300      	movs	r3, #0
 8002920:	66bb      	str	r3, [r7, #104]	@ 0x68
 8002922:	2300      	movs	r3, #0
 8002924:	66fb      	str	r3, [r7, #108]	@ 0x6c
 8002926:	68fb      	ldr	r3, [r7, #12]
 8002928:	681b      	ldr	r3, [r3, #0]
 800292a:	4a47      	ldr	r2, [pc, #284]	@ (8002a48 <HAL_ADCEx_MultiModeStart_DMA+0x188>)
 800292c:	4293      	cmp	r3, r2
 800292e:	d102      	bne.n	8002936 <HAL_ADCEx_MultiModeStart_DMA+0x76>
 8002930:	4b44      	ldr	r3, [pc, #272]	@ (8002a44 <HAL_ADCEx_MultiModeStart_DMA+0x184>)
 8002932:	617b      	str	r3, [r7, #20]
 8002934:	e001      	b.n	800293a <HAL_ADCEx_MultiModeStart_DMA+0x7a>
 8002936:	2300      	movs	r3, #0
 8002938:	617b      	str	r3, [r7, #20]
 800293a:	697b      	ldr	r3, [r7, #20]
 800293c:	2b00      	cmp	r3, #0
 800293e:	d10b      	bne.n	8002958 <HAL_ADCEx_MultiModeStart_DMA+0x98>
 8002940:	68fb      	ldr	r3, [r7, #12]
 8002942:	6d5b      	ldr	r3, [r3, #84]	@ 0x54
 8002944:	f043 0220 	orr.w	r2, r3, #32
 8002948:	68fb      	ldr	r3, [r7, #12]
 800294a:	655a      	str	r2, [r3, #84]	@ 0x54
 800294c:	68fb      	ldr	r3, [r7, #12]
 800294e:	2200      	movs	r2, #0
 8002950:	f883 2050 	strb.w	r2, [r3, #80]	@ 0x50
 8002954:	2301      	movs	r3, #1
 8002956:	e071      	b.n	8002a3c <HAL_ADCEx_MultiModeStart_DMA+0x17c>
 8002958:	68f8      	ldr	r0, [r7, #12]
 800295a:	f7ff fd97 	bl	800248c <ADC_Enable>
 800295e:	4603      	mov	r3, r0
 8002960:	f887 307f 	strb.w	r3, [r7, #127]	@ 0x7f
 8002964:	f897 307f 	ldrb.w	r3, [r7, #127]	@ 0x7f
 8002968:	2b00      	cmp	r3, #0
 800296a:	d107      	bne.n	800297c <HAL_ADCEx_MultiModeStart_DMA+0xbc>
 800296c:	f107 0314 	add.w	r3, r7, #20
 8002970:	4618      	mov	r0, r3
 8002972:	f7ff fd8b 	bl	800248c <ADC_Enable>
 8002976:	4603      	mov	r3, r0
 8002978:	f887 307f 	strb.w	r3, [r7, #127]	@ 0x7f
 800297c:	f897 307f 	ldrb.w	r3, [r7, #127]	@ 0x7f
 8002980:	2b00      	cmp	r3, #0
 8002982:	d155      	bne.n	8002a30 <HAL_ADCEx_MultiModeStart_DMA+0x170>
 8002984:	68fb      	ldr	r3, [r7, #12]
 8002986:	6d5a      	ldr	r2, [r3, #84]	@ 0x54
 8002988:	4b30      	ldr	r3, [pc, #192]	@ (8002a4c <HAL_ADCEx_MultiModeStart_DMA+0x18c>)
 800298a:	4013      	ands	r3, r2
 800298c:	f443 7280 	orr.w	r2, r3, #256	@ 0x100
 8002990:	68fb      	ldr	r3, [r7, #12]
 8002992:	655a      	str	r2, [r3, #84]	@ 0x54
 8002994:	68fb      	ldr	r3, [r7, #12]
 8002996:	2200      	movs	r2, #0
 8002998:	659a      	str	r2, [r3, #88]	@ 0x58
 800299a:	68fb      	ldr	r3, [r7, #12]
 800299c:	6cdb      	ldr	r3, [r3, #76]	@ 0x4c
 800299e:	4a2c      	ldr	r2, [pc, #176]	@ (8002a50 <HAL_ADCEx_MultiModeStart_DMA+0x190>)
 80029a0:	63da      	str	r2, [r3, #60]	@ 0x3c
 80029a2:	68fb      	ldr	r3, [r7, #12]
 80029a4:	6cdb      	ldr	r3, [r3, #76]	@ 0x4c
 80029a6:	4a2b      	ldr	r2, [pc, #172]	@ (8002a54 <HAL_ADCEx_MultiModeStart_DMA+0x194>)
 80029a8:	641a      	str	r2, [r3, #64]	@ 0x40
 80029aa:	68fb      	ldr	r3, [r7, #12]
 80029ac:	6cdb      	ldr	r3, [r3, #76]	@ 0x4c
 80029ae:	4a2a      	ldr	r2, [pc, #168]	@ (8002a58 <HAL_ADCEx_MultiModeStart_DMA+0x198>)
 80029b0:	64da      	str	r2, [r3, #76]	@ 0x4c
 80029b2:	68fb      	ldr	r3, [r7, #12]
 80029b4:	681b      	ldr	r3, [r3, #0]
 80029b6:	221c      	movs	r2, #28
 80029b8:	601a      	str	r2, [r3, #0]
 80029ba:	68fb      	ldr	r3, [r7, #12]
 80029bc:	2200      	movs	r2, #0
 80029be:	f883 2050 	strb.w	r2, [r3, #80]	@ 0x50
 80029c2:	68fb      	ldr	r3, [r7, #12]
 80029c4:	681b      	ldr	r3, [r3, #0]
 80029c6:	685a      	ldr	r2, [r3, #4]
 80029c8:	68fb      	ldr	r3, [r7, #12]
 80029ca:	681b      	ldr	r3, [r3, #0]
 80029cc:	f042 0210 	orr.w	r2, r2, #16
 80029d0:	605a      	str	r2, [r3, #4]
 80029d2:	68fb      	ldr	r3, [r7, #12]
 80029d4:	681b      	ldr	r3, [r3, #0]
 80029d6:	4a1b      	ldr	r2, [pc, #108]	@ (8002a44 <HAL_ADCEx_MultiModeStart_DMA+0x184>)
 80029d8:	4293      	cmp	r3, r2
 80029da:	d002      	beq.n	80029e2 <HAL_ADCEx_MultiModeStart_DMA+0x122>
 80029dc:	68fb      	ldr	r3, [r7, #12]
 80029de:	681b      	ldr	r3, [r3, #0]
 80029e0:	e000      	b.n	80029e4 <HAL_ADCEx_MultiModeStart_DMA+0x124>
 80029e2:	4b19      	ldr	r3, [pc, #100]	@ (8002a48 <HAL_ADCEx_MultiModeStart_DMA+0x188>)
 80029e4:	68fa      	ldr	r2, [r7, #12]
 80029e6:	6812      	ldr	r2, [r2, #0]
 80029e8:	4293      	cmp	r3, r2
 80029ea:	d00d      	beq.n	8002a08 <HAL_ADCEx_MultiModeStart_DMA+0x148>
 80029ec:	68fb      	ldr	r3, [r7, #12]
 80029ee:	6cd8      	ldr	r0, [r3, #76]	@ 0x4c
 80029f0:	68fb      	ldr	r3, [r7, #12]
 80029f2:	681b      	ldr	r3, [r3, #0]
 80029f4:	3340      	adds	r3, #64	@ 0x40
 80029f6:	4619      	mov	r1, r3
 80029f8:	68ba      	ldr	r2, [r7, #8]
 80029fa:	687b      	ldr	r3, [r7, #4]
 80029fc:	f000 fe14 	bl	8003628 <HAL_DMA_Start_IT>
 8002a00:	4603      	mov	r3, r0
 8002a02:	f887 307f 	strb.w	r3, [r7, #127]	@ 0x7f
 8002a06:	e017      	b.n	8002a38 <HAL_ADCEx_MultiModeStart_DMA+0x178>
 8002a08:	4b14      	ldr	r3, [pc, #80]	@ (8002a5c <HAL_ADCEx_MultiModeStart_DMA+0x19c>)
 8002a0a:	67bb      	str	r3, [r7, #120]	@ 0x78
 8002a0c:	68fb      	ldr	r3, [r7, #12]
 8002a0e:	6cd8      	ldr	r0, [r3, #76]	@ 0x4c
 8002a10:	6fbb      	ldr	r3, [r7, #120]	@ 0x78
 8002a12:	330c      	adds	r3, #12
 8002a14:	4619      	mov	r1, r3
 8002a16:	68ba      	ldr	r2, [r7, #8]
 8002a18:	687b      	ldr	r3, [r7, #4]
 8002a1a:	f000 fe05 	bl	8003628 <HAL_DMA_Start_IT>
 8002a1e:	4603      	mov	r3, r0
 8002a20:	f887 307f 	strb.w	r3, [r7, #127]	@ 0x7f
 8002a24:	68fb      	ldr	r3, [r7, #12]
 8002a26:	681b      	ldr	r3, [r3, #0]
 8002a28:	4618      	mov	r0, r3
 8002a2a:	f7ff ff21 	bl	8002870 <LL_ADC_REG_StartConversion>
 8002a2e:	e003      	b.n	8002a38 <HAL_ADCEx_MultiModeStart_DMA+0x178>
 8002a30:	68fb      	ldr	r3, [r7, #12]
 8002a32:	2200      	movs	r2, #0
 8002a34:	f883 2050 	strb.w	r2, [r3, #80]	@ 0x50
 8002a38:	f897 307f 	ldrb.w	r3, [r7, #127]	@ 0x7f
 8002a3c:	4618      	mov	r0, r3
 8002a3e:	3780      	adds	r7, #128	@ 0x80
 8002a40:	46bd      	mov	sp, r7
 8002a42:	bd80      	pop	{r7, pc}
 8002a44:	40022100 	.word	0x40022100
 8002a48:	40022000 	.word	0x40022000
 8002a4c:	fffff0fe 	.word	0xfffff0fe
 8002a50:	08002585 	.word	0x08002585
 8002a54:	0800265d 	.word	0x0800265d
 8002a58:	08002679 	.word	0x08002679
 8002a5c:	40022300 	.word	0x40022300

08002a60 <HAL_ADCEx_InjectedConvCpltCallback>:
 8002a60:	b480      	push	{r7}
 8002a62:	b083      	sub	sp, #12
 8002a64:	af00      	add	r7, sp, #0
 8002a66:	6078      	str	r0, [r7, #4]
 8002a68:	bf00      	nop
 8002a6a:	370c      	adds	r7, #12
 8002a6c:	46bd      	mov	sp, r7
 8002a6e:	f85d 7b04 	ldr.w	r7, [sp], #4
 8002a72:	4770      	bx	lr

08002a74 <HAL_ADCEx_InjectedQueueOverflowCallback>:
 8002a74:	b480      	push	{r7}
 8002a76:	b083      	sub	sp, #12
 8002a78:	af00      	add	r7, sp, #0
 8002a7a:	6078      	str	r0, [r7, #4]
 8002a7c:	bf00      	nop
 8002a7e:	370c      	adds	r7, #12
 8002a80:	46bd      	mov	sp, r7
 8002a82:	f85d 7b04 	ldr.w	r7, [sp], #4
 8002a86:	4770      	bx	lr

08002a88 <HAL_ADCEx_LevelOutOfWindow2Callback>:
 8002a88:	b480      	push	{r7}
 8002a8a:	b083      	sub	sp, #12
 8002a8c:	af00      	add	r7, sp, #0
 8002a8e:	6078      	str	r0, [r7, #4]
 8002a90:	bf00      	nop
 8002a92:	370c      	adds	r7, #12
 8002a94:	46bd      	mov	sp, r7
 8002a96:	f85d 7b04 	ldr.w	r7, [sp], #4
 8002a9a:	4770      	bx	lr

08002a9c <HAL_ADCEx_LevelOutOfWindow3Callback>:
 8002a9c:	b480      	push	{r7}
 8002a9e:	b083      	sub	sp, #12
 8002aa0:	af00      	add	r7, sp, #0
 8002aa2:	6078      	str	r0, [r7, #4]
 8002aa4:	bf00      	nop
 8002aa6:	370c      	adds	r7, #12
 8002aa8:	46bd      	mov	sp, r7
 8002aaa:	f85d 7b04 	ldr.w	r7, [sp], #4
 8002aae:	4770      	bx	lr

08002ab0 <HAL_ADCEx_EndOfSamplingCallback>:
 8002ab0:	b480      	push	{r7}
 8002ab2:	b083      	sub	sp, #12
 8002ab4:	af00      	add	r7, sp, #0
 8002ab6:	6078      	str	r0, [r7, #4]
 8002ab8:	bf00      	nop
 8002aba:	370c      	adds	r7, #12
 8002abc:	46bd      	mov	sp, r7
 8002abe:	f85d 7b04 	ldr.w	r7, [sp], #4
 8002ac2:	4770      	bx	lr

08002ac4 <HAL_ADCEx_MultiModeConfigChannel>:
 8002ac4:	b590      	push	{r4, r7, lr}
 8002ac6:	b09f      	sub	sp, #124	@ 0x7c
 8002ac8:	af00      	add	r7, sp, #0
 8002aca:	6078      	str	r0, [r7, #4]
 8002acc:	6039      	str	r1, [r7, #0]
 8002ace:	2300      	movs	r3, #0
 8002ad0:	f887 3077 	strb.w	r3, [r7, #119]	@ 0x77
 8002ad4:	687b      	ldr	r3, [r7, #4]
 8002ad6:	f893 3050 	ldrb.w	r3, [r3, #80]	@ 0x50
 8002ada:	2b01      	cmp	r3, #1
 8002adc:	d101      	bne.n	8002ae2 <HAL_ADCEx_MultiModeConfigChannel+0x1e>
 8002ade:	2302      	movs	r3, #2
 8002ae0:	e080      	b.n	8002be4 <HAL_ADCEx_MultiModeConfigChannel+0x120>
 8002ae2:	687b      	ldr	r3, [r7, #4]
 8002ae4:	2201      	movs	r2, #1
 8002ae6:	f883 2050 	strb.w	r2, [r3, #80]	@ 0x50
 8002aea:	2300      	movs	r3, #0
 8002aec:	65fb      	str	r3, [r7, #92]	@ 0x5c
 8002aee:	2300      	movs	r3, #0
 8002af0:	663b      	str	r3, [r7, #96]	@ 0x60
 8002af2:	687b      	ldr	r3, [r7, #4]
 8002af4:	681b      	ldr	r3, [r3, #0]
 8002af6:	4a3d      	ldr	r2, [pc, #244]	@ (8002bec <HAL_ADCEx_MultiModeConfigChannel+0x128>)
 8002af8:	4293      	cmp	r3, r2
 8002afa:	d102      	bne.n	8002b02 <HAL_ADCEx_MultiModeConfigChannel+0x3e>
 8002afc:	4b3c      	ldr	r3, [pc, #240]	@ (8002bf0 <HAL_ADCEx_MultiModeConfigChannel+0x12c>)
 8002afe:	60bb      	str	r3, [r7, #8]
 8002b00:	e001      	b.n	8002b06 <HAL_ADCEx_MultiModeConfigChannel+0x42>
 8002b02:	2300      	movs	r3, #0
 8002b04:	60bb      	str	r3, [r7, #8]
 8002b06:	68bb      	ldr	r3, [r7, #8]
 8002b08:	2b00      	cmp	r3, #0
 8002b0a:	d10b      	bne.n	8002b24 <HAL_ADCEx_MultiModeConfigChannel+0x60>
 8002b0c:	687b      	ldr	r3, [r7, #4]
 8002b0e:	6d5b      	ldr	r3, [r3, #84]	@ 0x54
 8002b10:	f043 0220 	orr.w	r2, r3, #32
 8002b14:	687b      	ldr	r3, [r7, #4]
 8002b16:	655a      	str	r2, [r3, #84]	@ 0x54
 8002b18:	687b      	ldr	r3, [r7, #4]
 8002b1a:	2200      	movs	r2, #0
 8002b1c:	f883 2050 	strb.w	r2, [r3, #80]	@ 0x50
 8002b20:	2301      	movs	r3, #1
 8002b22:	e05f      	b.n	8002be4 <HAL_ADCEx_MultiModeConfigChannel+0x120>
 8002b24:	68bb      	ldr	r3, [r7, #8]
 8002b26:	4618      	mov	r0, r3
 8002b28:	f7ff feb6 	bl	8002898 <LL_ADC_REG_IsConversionOngoing>
 8002b2c:	6738      	str	r0, [r7, #112]	@ 0x70
 8002b2e:	687b      	ldr	r3, [r7, #4]
 8002b30:	681b      	ldr	r3, [r3, #0]
 8002b32:	4618      	mov	r0, r3
 8002b34:	f7ff feb0 	bl	8002898 <LL_ADC_REG_IsConversionOngoing>
 8002b38:	4603      	mov	r3, r0
 8002b3a:	2b00      	cmp	r3, #0
 8002b3c:	d141      	bne.n	8002bc2 <HAL_ADCEx_MultiModeConfigChannel+0xfe>
 8002b3e:	6f3b      	ldr	r3, [r7, #112]	@ 0x70
 8002b40:	2b00      	cmp	r3, #0
 8002b42:	d13e      	bne.n	8002bc2 <HAL_ADCEx_MultiModeConfigChannel+0xfe>
 8002b44:	4b2b      	ldr	r3, [pc, #172]	@ (8002bf4 <HAL_ADCEx_MultiModeConfigChannel+0x130>)
 8002b46:	66fb      	str	r3, [r7, #108]	@ 0x6c
 8002b48:	683b      	ldr	r3, [r7, #0]
 8002b4a:	681b      	ldr	r3, [r3, #0]
 8002b4c:	2b00      	cmp	r3, #0
 8002b4e:	d020      	beq.n	8002b92 <HAL_ADCEx_MultiModeConfigChannel+0xce>
 8002b50:	6efb      	ldr	r3, [r7, #108]	@ 0x6c
 8002b52:	689b      	ldr	r3, [r3, #8]
 8002b54:	f423 4240 	bic.w	r2, r3, #49152	@ 0xc000
 8002b58:	683b      	ldr	r3, [r7, #0]
 8002b5a:	685b      	ldr	r3, [r3, #4]
 8002b5c:	431a      	orrs	r2, r3
 8002b5e:	6efb      	ldr	r3, [r7, #108]	@ 0x6c
 8002b60:	609a      	str	r2, [r3, #8]
 8002b62:	4822      	ldr	r0, [pc, #136]	@ (8002bec <HAL_ADCEx_MultiModeConfigChannel+0x128>)
 8002b64:	f7ff fe70 	bl	8002848 <LL_ADC_IsEnabled>
 8002b68:	4604      	mov	r4, r0
 8002b6a:	4821      	ldr	r0, [pc, #132]	@ (8002bf0 <HAL_ADCEx_MultiModeConfigChannel+0x12c>)
 8002b6c:	f7ff fe6c 	bl	8002848 <LL_ADC_IsEnabled>
 8002b70:	4603      	mov	r3, r0
 8002b72:	4323      	orrs	r3, r4
 8002b74:	2b00      	cmp	r3, #0
 8002b76:	d12e      	bne.n	8002bd6 <HAL_ADCEx_MultiModeConfigChannel+0x112>
 8002b78:	6efb      	ldr	r3, [r7, #108]	@ 0x6c
 8002b7a:	689a      	ldr	r2, [r3, #8]
 8002b7c:	4b1e      	ldr	r3, [pc, #120]	@ (8002bf8 <HAL_ADCEx_MultiModeConfigChannel+0x134>)
 8002b7e:	4013      	ands	r3, r2
 8002b80:	683a      	ldr	r2, [r7, #0]
 8002b82:	6811      	ldr	r1, [r2, #0]
 8002b84:	683a      	ldr	r2, [r7, #0]
 8002b86:	6892      	ldr	r2, [r2, #8]
 8002b88:	430a      	orrs	r2, r1
 8002b8a:	431a      	orrs	r2, r3
 8002b8c:	6efb      	ldr	r3, [r7, #108]	@ 0x6c
 8002b8e:	609a      	str	r2, [r3, #8]
 8002b90:	e021      	b.n	8002bd6 <HAL_ADCEx_MultiModeConfigChannel+0x112>
 8002b92:	6efb      	ldr	r3, [r7, #108]	@ 0x6c
 8002b94:	689b      	ldr	r3, [r3, #8]
 8002b96:	f423 4240 	bic.w	r2, r3, #49152	@ 0xc000
 8002b9a:	6efb      	ldr	r3, [r7, #108]	@ 0x6c
 8002b9c:	609a      	str	r2, [r3, #8]
 8002b9e:	4813      	ldr	r0, [pc, #76]	@ (8002bec <HAL_ADCEx_MultiModeConfigChannel+0x128>)
 8002ba0:	f7ff fe52 	bl	8002848 <LL_ADC_IsEnabled>
 8002ba4:	4604      	mov	r4, r0
 8002ba6:	4812      	ldr	r0, [pc, #72]	@ (8002bf0 <HAL_ADCEx_MultiModeConfigChannel+0x12c>)
 8002ba8:	f7ff fe4e 	bl	8002848 <LL_ADC_IsEnabled>
 8002bac:	4603      	mov	r3, r0
 8002bae:	4323      	orrs	r3, r4
 8002bb0:	2b00      	cmp	r3, #0
 8002bb2:	d110      	bne.n	8002bd6 <HAL_ADCEx_MultiModeConfigChannel+0x112>
 8002bb4:	6efb      	ldr	r3, [r7, #108]	@ 0x6c
 8002bb6:	689a      	ldr	r2, [r3, #8]
 8002bb8:	4b0f      	ldr	r3, [pc, #60]	@ (8002bf8 <HAL_ADCEx_MultiModeConfigChannel+0x134>)
 8002bba:	4013      	ands	r3, r2
 8002bbc:	6efa      	ldr	r2, [r7, #108]	@ 0x6c
 8002bbe:	6093      	str	r3, [r2, #8]
 8002bc0:	e009      	b.n	8002bd6 <HAL_ADCEx_MultiModeConfigChannel+0x112>
 8002bc2:	687b      	ldr	r3, [r7, #4]
 8002bc4:	6d5b      	ldr	r3, [r3, #84]	@ 0x54
 8002bc6:	f043 0220 	orr.w	r2, r3, #32
 8002bca:	687b      	ldr	r3, [r7, #4]
 8002bcc:	655a      	str	r2, [r3, #84]	@ 0x54
 8002bce:	2301      	movs	r3, #1
 8002bd0:	f887 3077 	strb.w	r3, [r7, #119]	@ 0x77
 8002bd4:	e000      	b.n	8002bd8 <HAL_ADCEx_MultiModeConfigChannel+0x114>
 8002bd6:	bf00      	nop
 8002bd8:	687b      	ldr	r3, [r7, #4]
 8002bda:	2200      	movs	r2, #0
 8002bdc:	f883 2050 	strb.w	r2, [r3, #80]	@ 0x50
 8002be0:	f897 3077 	ldrb.w	r3, [r7, #119]	@ 0x77
 8002be4:	4618      	mov	r0, r3
 8002be6:	377c      	adds	r7, #124	@ 0x7c
 8002be8:	46bd      	mov	sp, r7
 8002bea:	bd90      	pop	{r4, r7, pc}
 8002bec:	40022000 	.word	0x40022000
 8002bf0:	40022100 	.word	0x40022100
 8002bf4:	40022300 	.word	0x40022300
 8002bf8:	fffff0e0 	.word	0xfffff0e0

08002bfc <__NVIC_SetPriorityGrouping>:
 8002bfc:	b480      	push	{r7}
 8002bfe:	b085      	sub	sp, #20
 8002c00:	af00      	add	r7, sp, #0
 8002c02:	6078      	str	r0, [r7, #4]
 8002c04:	687b      	ldr	r3, [r7, #4]
 8002c06:	f003 0307 	and.w	r3, r3, #7
 8002c0a:	60fb      	str	r3, [r7, #12]
 8002c0c:	4b0b      	ldr	r3, [pc, #44]	@ (8002c3c <__NVIC_SetPriorityGrouping+0x40>)
 8002c0e:	68db      	ldr	r3, [r3, #12]
 8002c10:	60bb      	str	r3, [r7, #8]
 8002c12:	68ba      	ldr	r2, [r7, #8]
 8002c14:	f64f 03ff 	movw	r3, #63743	@ 0xf8ff
 8002c18:	4013      	ands	r3, r2
 8002c1a:	60bb      	str	r3, [r7, #8]
 8002c1c:	68fb      	ldr	r3, [r7, #12]
 8002c1e:	021a      	lsls	r2, r3, #8
 8002c20:	68bb      	ldr	r3, [r7, #8]
 8002c22:	431a      	orrs	r2, r3
 8002c24:	4b06      	ldr	r3, [pc, #24]	@ (8002c40 <__NVIC_SetPriorityGrouping+0x44>)
 8002c26:	4313      	orrs	r3, r2
 8002c28:	60bb      	str	r3, [r7, #8]
 8002c2a:	4a04      	ldr	r2, [pc, #16]	@ (8002c3c <__NVIC_SetPriorityGrouping+0x40>)
 8002c2c:	68bb      	ldr	r3, [r7, #8]
 8002c2e:	60d3      	str	r3, [r2, #12]
 8002c30:	bf00      	nop
 8002c32:	3714      	adds	r7, #20
 8002c34:	46bd      	mov	sp, r7
 8002c36:	f85d 7b04 	ldr.w	r7, [sp], #4
 8002c3a:	4770      	bx	lr
 8002c3c:	e000ed00 	.word	0xe000ed00
 8002c40:	05fa0000 	.word	0x05fa0000

08002c44 <__NVIC_GetPriorityGrouping>:
 8002c44:	b480      	push	{r7}
 8002c46:	af00      	add	r7, sp, #0
 8002c48:	4b04      	ldr	r3, [pc, #16]	@ (8002c5c <__NVIC_GetPriorityGrouping+0x18>)
 8002c4a:	68db      	ldr	r3, [r3, #12]
 8002c4c:	0a1b      	lsrs	r3, r3, #8
 8002c4e:	f003 0307 	and.w	r3, r3, #7
 8002c52:	4618      	mov	r0, r3
 8002c54:	46bd      	mov	sp, r7
 8002c56:	f85d 7b04 	ldr.w	r7, [sp], #4
 8002c5a:	4770      	bx	lr
 8002c5c:	e000ed00 	.word	0xe000ed00

08002c60 <__NVIC_EnableIRQ>:
 8002c60:	b480      	push	{r7}
 8002c62:	b083      	sub	sp, #12
 8002c64:	af00      	add	r7, sp, #0
 8002c66:	4603      	mov	r3, r0
 8002c68:	80fb      	strh	r3, [r7, #6]
 8002c6a:	f9b7 3006 	ldrsh.w	r3, [r7, #6]
 8002c6e:	2b00      	cmp	r3, #0
 8002c70:	db0b      	blt.n	8002c8a <__NVIC_EnableIRQ+0x2a>
 8002c72:	88fb      	ldrh	r3, [r7, #6]
 8002c74:	f003 021f 	and.w	r2, r3, #31
 8002c78:	4907      	ldr	r1, [pc, #28]	@ (8002c98 <__NVIC_EnableIRQ+0x38>)
 8002c7a:	f9b7 3006 	ldrsh.w	r3, [r7, #6]
 8002c7e:	095b      	lsrs	r3, r3, #5
 8002c80:	2001      	movs	r0, #1
 8002c82:	fa00 f202 	lsl.w	r2, r0, r2
 8002c86:	f841 2023 	str.w	r2, [r1, r3, lsl #2]
 8002c8a:	bf00      	nop
 8002c8c:	370c      	adds	r7, #12
 8002c8e:	46bd      	mov	sp, r7
 8002c90:	f85d 7b04 	ldr.w	r7, [sp], #4
 8002c94:	4770      	bx	lr
 8002c96:	bf00      	nop
 8002c98:	e000e100 	.word	0xe000e100

08002c9c <__NVIC_SetPriority>:
 8002c9c:	b480      	push	{r7}
 8002c9e:	b083      	sub	sp, #12
 8002ca0:	af00      	add	r7, sp, #0
 8002ca2:	4603      	mov	r3, r0
 8002ca4:	6039      	str	r1, [r7, #0]
 8002ca6:	80fb      	strh	r3, [r7, #6]
 8002ca8:	f9b7 3006 	ldrsh.w	r3, [r7, #6]
 8002cac:	2b00      	cmp	r3, #0
 8002cae:	db0a      	blt.n	8002cc6 <__NVIC_SetPriority+0x2a>
 8002cb0:	683b      	ldr	r3, [r7, #0]
 8002cb2:	b2da      	uxtb	r2, r3
 8002cb4:	490c      	ldr	r1, [pc, #48]	@ (8002ce8 <__NVIC_SetPriority+0x4c>)
 8002cb6:	f9b7 3006 	ldrsh.w	r3, [r7, #6]
 8002cba:	0112      	lsls	r2, r2, #4
 8002cbc:	b2d2      	uxtb	r2, r2
 8002cbe:	440b      	add	r3, r1
 8002cc0:	f883 2300 	strb.w	r2, [r3, #768]	@ 0x300
 8002cc4:	e00a      	b.n	8002cdc <__NVIC_SetPriority+0x40>
 8002cc6:	683b      	ldr	r3, [r7, #0]
 8002cc8:	b2da      	uxtb	r2, r3
 8002cca:	4908      	ldr	r1, [pc, #32]	@ (8002cec <__NVIC_SetPriority+0x50>)
 8002ccc:	88fb      	ldrh	r3, [r7, #6]
 8002cce:	f003 030f 	and.w	r3, r3, #15
 8002cd2:	3b04      	subs	r3, #4
 8002cd4:	0112      	lsls	r2, r2, #4
 8002cd6:	b2d2      	uxtb	r2, r2
 8002cd8:	440b      	add	r3, r1
 8002cda:	761a      	strb	r2, [r3, #24]
 8002cdc:	bf00      	nop
 8002cde:	370c      	adds	r7, #12
 8002ce0:	46bd      	mov	sp, r7
 8002ce2:	f85d 7b04 	ldr.w	r7, [sp], #4
 8002ce6:	4770      	bx	lr
 8002ce8:	e000e100 	.word	0xe000e100
 8002cec:	e000ed00 	.word	0xe000ed00

08002cf0 <NVIC_EncodePriority>:
 8002cf0:	b480      	push	{r7}
 8002cf2:	b089      	sub	sp, #36	@ 0x24
 8002cf4:	af00      	add	r7, sp, #0
 8002cf6:	60f8      	str	r0, [r7, #12]
 8002cf8:	60b9      	str	r1, [r7, #8]
 8002cfa:	607a      	str	r2, [r7, #4]
 8002cfc:	68fb      	ldr	r3, [r7, #12]
 8002cfe:	f003 0307 	and.w	r3, r3, #7
 8002d02:	61fb      	str	r3, [r7, #28]
 8002d04:	69fb      	ldr	r3, [r7, #28]
 8002d06:	f1c3 0307 	rsb	r3, r3, #7
 8002d0a:	2b04      	cmp	r3, #4
 8002d0c:	bf28      	it	cs
 8002d0e:	2304      	movcs	r3, #4
 8002d10:	61bb      	str	r3, [r7, #24]
 8002d12:	69fb      	ldr	r3, [r7, #28]
 8002d14:	3304      	adds	r3, #4
 8002d16:	2b06      	cmp	r3, #6
 8002d18:	d902      	bls.n	8002d20 <NVIC_EncodePriority+0x30>
 8002d1a:	69fb      	ldr	r3, [r7, #28]
 8002d1c:	3b03      	subs	r3, #3
 8002d1e:	e000      	b.n	8002d22 <NVIC_EncodePriority+0x32>
 8002d20:	2300      	movs	r3, #0
 8002d22:	617b      	str	r3, [r7, #20]
 8002d24:	f04f 32ff 	mov.w	r2, #4294967295
 8002d28:	69bb      	ldr	r3, [r7, #24]
 8002d2a:	fa02 f303 	lsl.w	r3, r2, r3
 8002d2e:	43da      	mvns	r2, r3
 8002d30:	68bb      	ldr	r3, [r7, #8]
 8002d32:	401a      	ands	r2, r3
 8002d34:	697b      	ldr	r3, [r7, #20]
 8002d36:	409a      	lsls	r2, r3
 8002d38:	f04f 31ff 	mov.w	r1, #4294967295
 8002d3c:	697b      	ldr	r3, [r7, #20]
 8002d3e:	fa01 f303 	lsl.w	r3, r1, r3
 8002d42:	43d9      	mvns	r1, r3
 8002d44:	687b      	ldr	r3, [r7, #4]
 8002d46:	400b      	ands	r3, r1
 8002d48:	4313      	orrs	r3, r2
 8002d4a:	4618      	mov	r0, r3
 8002d4c:	3724      	adds	r7, #36	@ 0x24
 8002d4e:	46bd      	mov	sp, r7
 8002d50:	f85d 7b04 	ldr.w	r7, [sp], #4
 8002d54:	4770      	bx	lr
	...

08002d58 <SysTick_Config>:
 8002d58:	b580      	push	{r7, lr}
 8002d5a:	b082      	sub	sp, #8
 8002d5c:	af00      	add	r7, sp, #0
 8002d5e:	6078      	str	r0, [r7, #4]
 8002d60:	687b      	ldr	r3, [r7, #4]
 8002d62:	3b01      	subs	r3, #1
 8002d64:	f1b3 7f80 	cmp.w	r3, #16777216	@ 0x1000000
 8002d68:	d301      	bcc.n	8002d6e <SysTick_Config+0x16>
 8002d6a:	2301      	movs	r3, #1
 8002d6c:	e00f      	b.n	8002d8e <SysTick_Config+0x36>
 8002d6e:	4a0a      	ldr	r2, [pc, #40]	@ (8002d98 <SysTick_Config+0x40>)
 8002d70:	687b      	ldr	r3, [r7, #4]
 8002d72:	3b01      	subs	r3, #1
 8002d74:	6053      	str	r3, [r2, #4]
 8002d76:	210f      	movs	r1, #15
 8002d78:	f04f 30ff 	mov.w	r0, #4294967295
 8002d7c:	f7ff ff8e 	bl	8002c9c <__NVIC_SetPriority>
 8002d80:	4b05      	ldr	r3, [pc, #20]	@ (8002d98 <SysTick_Config+0x40>)
 8002d82:	2200      	movs	r2, #0
 8002d84:	609a      	str	r2, [r3, #8]
 8002d86:	4b04      	ldr	r3, [pc, #16]	@ (8002d98 <SysTick_Config+0x40>)
 8002d88:	2207      	movs	r2, #7
 8002d8a:	601a      	str	r2, [r3, #0]
 8002d8c:	2300      	movs	r3, #0
 8002d8e:	4618      	mov	r0, r3
 8002d90:	3708      	adds	r7, #8
 8002d92:	46bd      	mov	sp, r7
 8002d94:	bd80      	pop	{r7, pc}
 8002d96:	bf00      	nop
 8002d98:	e000e010 	.word	0xe000e010

08002d9c <HAL_NVIC_SetPriorityGrouping>:
 8002d9c:	b580      	push	{r7, lr}
 8002d9e:	b082      	sub	sp, #8
 8002da0:	af00      	add	r7, sp, #0
 8002da2:	6078      	str	r0, [r7, #4]
 8002da4:	6878      	ldr	r0, [r7, #4]
 8002da6:	f7ff ff29 	bl	8002bfc <__NVIC_SetPriorityGrouping>
 8002daa:	bf00      	nop
 8002dac:	3708      	adds	r7, #8
 8002dae:	46bd      	mov	sp, r7
 8002db0:	bd80      	pop	{r7, pc}

08002db2 <HAL_NVIC_SetPriority>:
 8002db2:	b580      	push	{r7, lr}
 8002db4:	b086      	sub	sp, #24
 8002db6:	af00      	add	r7, sp, #0
 8002db8:	4603      	mov	r3, r0
 8002dba:	60b9      	str	r1, [r7, #8]
 8002dbc:	607a      	str	r2, [r7, #4]
 8002dbe:	81fb      	strh	r3, [r7, #14]
 8002dc0:	f7ff ff40 	bl	8002c44 <__NVIC_GetPriorityGrouping>
 8002dc4:	6178      	str	r0, [r7, #20]
 8002dc6:	687a      	ldr	r2, [r7, #4]
 8002dc8:	68b9      	ldr	r1, [r7, #8]
 8002dca:	6978      	ldr	r0, [r7, #20]
 8002dcc:	f7ff ff90 	bl	8002cf0 <NVIC_EncodePriority>
 8002dd0:	4602      	mov	r2, r0
 8002dd2:	f9b7 300e 	ldrsh.w	r3, [r7, #14]
 8002dd6:	4611      	mov	r1, r2
 8002dd8:	4618      	mov	r0, r3
 8002dda:	f7ff ff5f 	bl	8002c9c <__NVIC_SetPriority>
 8002dde:	bf00      	nop
 8002de0:	3718      	adds	r7, #24
 8002de2:	46bd      	mov	sp, r7
 8002de4:	bd80      	pop	{r7, pc}

08002de6 <HAL_NVIC_EnableIRQ>:
 8002de6:	b580      	push	{r7, lr}
 8002de8:	b082      	sub	sp, #8
 8002dea:	af00      	add	r7, sp, #0
 8002dec:	4603      	mov	r3, r0
 8002dee:	80fb      	strh	r3, [r7, #6]
 8002df0:	f9b7 3006 	ldrsh.w	r3, [r7, #6]
 8002df4:	4618      	mov	r0, r3
 8002df6:	f7ff ff33 	bl	8002c60 <__NVIC_EnableIRQ>
 8002dfa:	bf00      	nop
 8002dfc:	3708      	adds	r7, #8
 8002dfe:	46bd      	mov	sp, r7
 8002e00:	bd80      	pop	{r7, pc}

08002e02 <HAL_SYSTICK_Config>:
 8002e02:	b580      	push	{r7, lr}
 8002e04:	b082      	sub	sp, #8
 8002e06:	af00      	add	r7, sp, #0
 8002e08:	6078      	str	r0, [r7, #4]
 8002e0a:	6878      	ldr	r0, [r7, #4]
 8002e0c:	f7ff ffa4 	bl	8002d58 <SysTick_Config>
 8002e10:	4603      	mov	r3, r0
 8002e12:	4618      	mov	r0, r3
 8002e14:	3708      	adds	r7, #8
 8002e16:	46bd      	mov	sp, r7
 8002e18:	bd80      	pop	{r7, pc}
	...

08002e1c <HAL_MPU_Disable>:
 8002e1c:	b480      	push	{r7}
 8002e1e:	af00      	add	r7, sp, #0
 8002e20:	f3bf 8f5f 	dmb	sy
 8002e24:	bf00      	nop
 8002e26:	4b07      	ldr	r3, [pc, #28]	@ (8002e44 <HAL_MPU_Disable+0x28>)
 8002e28:	6a5b      	ldr	r3, [r3, #36]	@ 0x24
 8002e2a:	4a06      	ldr	r2, [pc, #24]	@ (8002e44 <HAL_MPU_Disable+0x28>)
 8002e2c:	f423 3380 	bic.w	r3, r3, #65536	@ 0x10000
 8002e30:	6253      	str	r3, [r2, #36]	@ 0x24
 8002e32:	4b05      	ldr	r3, [pc, #20]	@ (8002e48 <HAL_MPU_Disable+0x2c>)
 8002e34:	2200      	movs	r2, #0
 8002e36:	605a      	str	r2, [r3, #4]
 8002e38:	bf00      	nop
 8002e3a:	46bd      	mov	sp, r7
 8002e3c:	f85d 7b04 	ldr.w	r7, [sp], #4
 8002e40:	4770      	bx	lr
 8002e42:	bf00      	nop
 8002e44:	e000ed00 	.word	0xe000ed00
 8002e48:	e000ed90 	.word	0xe000ed90

08002e4c <HAL_MPU_Enable>:
 8002e4c:	b480      	push	{r7}
 8002e4e:	b083      	sub	sp, #12
 8002e50:	af00      	add	r7, sp, #0
 8002e52:	6078      	str	r0, [r7, #4]
 8002e54:	4a0b      	ldr	r2, [pc, #44]	@ (8002e84 <HAL_MPU_Enable+0x38>)
 8002e56:	687b      	ldr	r3, [r7, #4]
 8002e58:	f043 0301 	orr.w	r3, r3, #1
 8002e5c:	6053      	str	r3, [r2, #4]
 8002e5e:	4b0a      	ldr	r3, [pc, #40]	@ (8002e88 <HAL_MPU_Enable+0x3c>)
 8002e60:	6a5b      	ldr	r3, [r3, #36]	@ 0x24
 8002e62:	4a09      	ldr	r2, [pc, #36]	@ (8002e88 <HAL_MPU_Enable+0x3c>)
 8002e64:	f443 3380 	orr.w	r3, r3, #65536	@ 0x10000
 8002e68:	6253      	str	r3, [r2, #36]	@ 0x24
 8002e6a:	f3bf 8f4f 	dsb	sy
 8002e6e:	bf00      	nop
 8002e70:	f3bf 8f6f 	isb	sy
 8002e74:	bf00      	nop
 8002e76:	bf00      	nop
 8002e78:	370c      	adds	r7, #12
 8002e7a:	46bd      	mov	sp, r7
 8002e7c:	f85d 7b04 	ldr.w	r7, [sp], #4
 8002e80:	4770      	bx	lr
 8002e82:	bf00      	nop
 8002e84:	e000ed90 	.word	0xe000ed90
 8002e88:	e000ed00 	.word	0xe000ed00

08002e8c <HAL_MPU_ConfigRegion>:
 8002e8c:	b480      	push	{r7}
 8002e8e:	b083      	sub	sp, #12
 8002e90:	af00      	add	r7, sp, #0
 8002e92:	6078      	str	r0, [r7, #4]
 8002e94:	687b      	ldr	r3, [r7, #4]
 8002e96:	785a      	ldrb	r2, [r3, #1]
 8002e98:	4b1b      	ldr	r3, [pc, #108]	@ (8002f08 <HAL_MPU_ConfigRegion+0x7c>)
 8002e9a:	609a      	str	r2, [r3, #8]
 8002e9c:	4b1a      	ldr	r3, [pc, #104]	@ (8002f08 <HAL_MPU_ConfigRegion+0x7c>)
 8002e9e:	691b      	ldr	r3, [r3, #16]
 8002ea0:	4a19      	ldr	r2, [pc, #100]	@ (8002f08 <HAL_MPU_ConfigRegion+0x7c>)
 8002ea2:	f023 0301 	bic.w	r3, r3, #1
 8002ea6:	6113      	str	r3, [r2, #16]
 8002ea8:	4a17      	ldr	r2, [pc, #92]	@ (8002f08 <HAL_MPU_ConfigRegion+0x7c>)
 8002eaa:	687b      	ldr	r3, [r7, #4]
 8002eac:	685b      	ldr	r3, [r3, #4]
 8002eae:	60d3      	str	r3, [r2, #12]
 8002eb0:	687b      	ldr	r3, [r7, #4]
 8002eb2:	7b1b      	ldrb	r3, [r3, #12]
 8002eb4:	071a      	lsls	r2, r3, #28
 8002eb6:	687b      	ldr	r3, [r7, #4]
 8002eb8:	7adb      	ldrb	r3, [r3, #11]
 8002eba:	061b      	lsls	r3, r3, #24
 8002ebc:	431a      	orrs	r2, r3
 8002ebe:	687b      	ldr	r3, [r7, #4]
 8002ec0:	7a9b      	ldrb	r3, [r3, #10]
 8002ec2:	04db      	lsls	r3, r3, #19
 8002ec4:	431a      	orrs	r2, r3
 8002ec6:	687b      	ldr	r3, [r7, #4]
 8002ec8:	7b5b      	ldrb	r3, [r3, #13]
 8002eca:	049b      	lsls	r3, r3, #18
 8002ecc:	431a      	orrs	r2, r3
 8002ece:	687b      	ldr	r3, [r7, #4]
 8002ed0:	7b9b      	ldrb	r3, [r3, #14]
 8002ed2:	045b      	lsls	r3, r3, #17
 8002ed4:	431a      	orrs	r2, r3
 8002ed6:	687b      	ldr	r3, [r7, #4]
 8002ed8:	7bdb      	ldrb	r3, [r3, #15]
 8002eda:	041b      	lsls	r3, r3, #16
 8002edc:	431a      	orrs	r2, r3
 8002ede:	687b      	ldr	r3, [r7, #4]
 8002ee0:	7a5b      	ldrb	r3, [r3, #9]
 8002ee2:	021b      	lsls	r3, r3, #8
 8002ee4:	431a      	orrs	r2, r3
 8002ee6:	687b      	ldr	r3, [r7, #4]
 8002ee8:	7a1b      	ldrb	r3, [r3, #8]
 8002eea:	005b      	lsls	r3, r3, #1
 8002eec:	4313      	orrs	r3, r2
 8002eee:	687a      	ldr	r2, [r7, #4]
 8002ef0:	7812      	ldrb	r2, [r2, #0]
 8002ef2:	4611      	mov	r1, r2
 8002ef4:	4a04      	ldr	r2, [pc, #16]	@ (8002f08 <HAL_MPU_ConfigRegion+0x7c>)
 8002ef6:	430b      	orrs	r3, r1
 8002ef8:	6113      	str	r3, [r2, #16]
 8002efa:	bf00      	nop
 8002efc:	370c      	adds	r7, #12
 8002efe:	46bd      	mov	sp, r7
 8002f00:	f85d 7b04 	ldr.w	r7, [sp], #4
 8002f04:	4770      	bx	lr
 8002f06:	bf00      	nop
 8002f08:	e000ed90 	.word	0xe000ed90

08002f0c <HAL_DMA_Init>:
 8002f0c:	b580      	push	{r7, lr}
 8002f0e:	b086      	sub	sp, #24
 8002f10:	af00      	add	r7, sp, #0
 8002f12:	6078      	str	r0, [r7, #4]
 8002f14:	f7fe f980 	bl	8001218 <HAL_GetTick>
 8002f18:	6138      	str	r0, [r7, #16]
 8002f1a:	687b      	ldr	r3, [r7, #4]
 8002f1c:	2b00      	cmp	r3, #0
 8002f1e:	d101      	bne.n	8002f24 <HAL_DMA_Init+0x18>
 8002f20:	2301      	movs	r3, #1
 8002f22:	e37d      	b.n	8003620 <HAL_DMA_Init+0x714>
 8002f24:	687b      	ldr	r3, [r7, #4]
 8002f26:	681b      	ldr	r3, [r3, #0]
 8002f28:	4a66      	ldr	r2, [pc, #408]	@ (80030c4 <HAL_DMA_Init+0x1b8>)
 8002f2a:	4293      	cmp	r3, r2
 8002f2c:	d04a      	beq.n	8002fc4 <HAL_DMA_Init+0xb8>
 8002f2e:	687b      	ldr	r3, [r7, #4]
 8002f30:	681b      	ldr	r3, [r3, #0]
 8002f32:	4a65      	ldr	r2, [pc, #404]	@ (80030c8 <HAL_DMA_Init+0x1bc>)
 8002f34:	4293      	cmp	r3, r2
 8002f36:	d045      	beq.n	8002fc4 <HAL_DMA_Init+0xb8>
 8002f38:	687b      	ldr	r3, [r7, #4]
 8002f3a:	681b      	ldr	r3, [r3, #0]
 8002f3c:	4a63      	ldr	r2, [pc, #396]	@ (80030cc <HAL_DMA_Init+0x1c0>)
 8002f3e:	4293      	cmp	r3, r2
 8002f40:	d040      	beq.n	8002fc4 <HAL_DMA_Init+0xb8>
 8002f42:	687b      	ldr	r3, [r7, #4]
 8002f44:	681b      	ldr	r3, [r3, #0]
 8002f46:	4a62      	ldr	r2, [pc, #392]	@ (80030d0 <HAL_DMA_Init+0x1c4>)
 8002f48:	4293      	cmp	r3, r2
 8002f4a:	d03b      	beq.n	8002fc4 <HAL_DMA_Init+0xb8>
 8002f4c:	687b      	ldr	r3, [r7, #4]
 8002f4e:	681b      	ldr	r3, [r3, #0]
 8002f50:	4a60      	ldr	r2, [pc, #384]	@ (80030d4 <HAL_DMA_Init+0x1c8>)
 8002f52:	4293      	cmp	r3, r2
 8002f54:	d036      	beq.n	8002fc4 <HAL_DMA_Init+0xb8>
 8002f56:	687b      	ldr	r3, [r7, #4]
 8002f58:	681b      	ldr	r3, [r3, #0]
 8002f5a:	4a5f      	ldr	r2, [pc, #380]	@ (80030d8 <HAL_DMA_Init+0x1cc>)
 8002f5c:	4293      	cmp	r3, r2
 8002f5e:	d031      	beq.n	8002fc4 <HAL_DMA_Init+0xb8>
 8002f60:	687b      	ldr	r3, [r7, #4]
 8002f62:	681b      	ldr	r3, [r3, #0]
 8002f64:	4a5d      	ldr	r2, [pc, #372]	@ (80030dc <HAL_DMA_Init+0x1d0>)
 8002f66:	4293      	cmp	r3, r2
 8002f68:	d02c      	beq.n	8002fc4 <HAL_DMA_Init+0xb8>
 8002f6a:	687b      	ldr	r3, [r7, #4]
 8002f6c:	681b      	ldr	r3, [r3, #0]
 8002f6e:	4a5c      	ldr	r2, [pc, #368]	@ (80030e0 <HAL_DMA_Init+0x1d4>)
 8002f70:	4293      	cmp	r3, r2
 8002f72:	d027      	beq.n	8002fc4 <HAL_DMA_Init+0xb8>
 8002f74:	687b      	ldr	r3, [r7, #4]
 8002f76:	681b      	ldr	r3, [r3, #0]
 8002f78:	4a5a      	ldr	r2, [pc, #360]	@ (80030e4 <HAL_DMA_Init+0x1d8>)
 8002f7a:	4293      	cmp	r3, r2
 8002f7c:	d022      	beq.n	8002fc4 <HAL_DMA_Init+0xb8>
 8002f7e:	687b      	ldr	r3, [r7, #4]
 8002f80:	681b      	ldr	r3, [r3, #0]
 8002f82:	4a59      	ldr	r2, [pc, #356]	@ (80030e8 <HAL_DMA_Init+0x1dc>)
 8002f84:	4293      	cmp	r3, r2
 8002f86:	d01d      	beq.n	8002fc4 <HAL_DMA_Init+0xb8>
 8002f88:	687b      	ldr	r3, [r7, #4]
 8002f8a:	681b      	ldr	r3, [r3, #0]
 8002f8c:	4a57      	ldr	r2, [pc, #348]	@ (80030ec <HAL_DMA_Init+0x1e0>)
 8002f8e:	4293      	cmp	r3, r2
 8002f90:	d018      	beq.n	8002fc4 <HAL_DMA_Init+0xb8>
 8002f92:	687b      	ldr	r3, [r7, #4]
 8002f94:	681b      	ldr	r3, [r3, #0]
 8002f96:	4a56      	ldr	r2, [pc, #344]	@ (80030f0 <HAL_DMA_Init+0x1e4>)
 8002f98:	4293      	cmp	r3, r2
 8002f9a:	d013      	beq.n	8002fc4 <HAL_DMA_Init+0xb8>
 8002f9c:	687b      	ldr	r3, [r7, #4]
 8002f9e:	681b      	ldr	r3, [r3, #0]
 8002fa0:	4a54      	ldr	r2, [pc, #336]	@ (80030f4 <HAL_DMA_Init+0x1e8>)
 8002fa2:	4293      	cmp	r3, r2
 8002fa4:	d00e      	beq.n	8002fc4 <HAL_DMA_Init+0xb8>
 8002fa6:	687b      	ldr	r3, [r7, #4]
 8002fa8:	681b      	ldr	r3, [r3, #0]
 8002faa:	4a53      	ldr	r2, [pc, #332]	@ (80030f8 <HAL_DMA_Init+0x1ec>)
 8002fac:	4293      	cmp	r3, r2
 8002fae:	d009      	beq.n	8002fc4 <HAL_DMA_Init+0xb8>
 8002fb0:	687b      	ldr	r3, [r7, #4]
 8002fb2:	681b      	ldr	r3, [r3, #0]
 8002fb4:	4a51      	ldr	r2, [pc, #324]	@ (80030fc <HAL_DMA_Init+0x1f0>)
 8002fb6:	4293      	cmp	r3, r2
 8002fb8:	d004      	beq.n	8002fc4 <HAL_DMA_Init+0xb8>
 8002fba:	687b      	ldr	r3, [r7, #4]
 8002fbc:	681b      	ldr	r3, [r3, #0]
 8002fbe:	4a50      	ldr	r2, [pc, #320]	@ (8003100 <HAL_DMA_Init+0x1f4>)
 8002fc0:	4293      	cmp	r3, r2
 8002fc2:	d101      	bne.n	8002fc8 <HAL_DMA_Init+0xbc>
 8002fc4:	2301      	movs	r3, #1
 8002fc6:	e000      	b.n	8002fca <HAL_DMA_Init+0xbe>
 8002fc8:	2300      	movs	r3, #0
 8002fca:	2b00      	cmp	r3, #0
 8002fcc:	f000 813c 	beq.w	8003248 <HAL_DMA_Init+0x33c>
 8002fd0:	687b      	ldr	r3, [r7, #4]
 8002fd2:	2202      	movs	r2, #2
 8002fd4:	f883 2035 	strb.w	r2, [r3, #53]	@ 0x35
 8002fd8:	687b      	ldr	r3, [r7, #4]
 8002fda:	2200      	movs	r2, #0
 8002fdc:	f883 2034 	strb.w	r2, [r3, #52]	@ 0x34
 8002fe0:	687b      	ldr	r3, [r7, #4]
 8002fe2:	681b      	ldr	r3, [r3, #0]
 8002fe4:	4a37      	ldr	r2, [pc, #220]	@ (80030c4 <HAL_DMA_Init+0x1b8>)
 8002fe6:	4293      	cmp	r3, r2
 8002fe8:	d04a      	beq.n	8003080 <HAL_DMA_Init+0x174>
 8002fea:	687b      	ldr	r3, [r7, #4]
 8002fec:	681b      	ldr	r3, [r3, #0]
 8002fee:	4a36      	ldr	r2, [pc, #216]	@ (80030c8 <HAL_DMA_Init+0x1bc>)
 8002ff0:	4293      	cmp	r3, r2
 8002ff2:	d045      	beq.n	8003080 <HAL_DMA_Init+0x174>
 8002ff4:	687b      	ldr	r3, [r7, #4]
 8002ff6:	681b      	ldr	r3, [r3, #0]
 8002ff8:	4a34      	ldr	r2, [pc, #208]	@ (80030cc <HAL_DMA_Init+0x1c0>)
 8002ffa:	4293      	cmp	r3, r2
 8002ffc:	d040      	beq.n	8003080 <HAL_DMA_Init+0x174>
 8002ffe:	687b      	ldr	r3, [r7, #4]
 8003000:	681b      	ldr	r3, [r3, #0]
 8003002:	4a33      	ldr	r2, [pc, #204]	@ (80030d0 <HAL_DMA_Init+0x1c4>)
 8003004:	4293      	cmp	r3, r2
 8003006:	d03b      	beq.n	8003080 <HAL_DMA_Init+0x174>
 8003008:	687b      	ldr	r3, [r7, #4]
 800300a:	681b      	ldr	r3, [r3, #0]
 800300c:	4a31      	ldr	r2, [pc, #196]	@ (80030d4 <HAL_DMA_Init+0x1c8>)
 800300e:	4293      	cmp	r3, r2
 8003010:	d036      	beq.n	8003080 <HAL_DMA_Init+0x174>
 8003012:	687b      	ldr	r3, [r7, #4]
 8003014:	681b      	ldr	r3, [r3, #0]
 8003016:	4a30      	ldr	r2, [pc, #192]	@ (80030d8 <HAL_DMA_Init+0x1cc>)
 8003018:	4293      	cmp	r3, r2
 800301a:	d031      	beq.n	8003080 <HAL_DMA_Init+0x174>
 800301c:	687b      	ldr	r3, [r7, #4]
 800301e:	681b      	ldr	r3, [r3, #0]
 8003020:	4a2e      	ldr	r2, [pc, #184]	@ (80030dc <HAL_DMA_Init+0x1d0>)
 8003022:	4293      	cmp	r3, r2
 8003024:	d02c      	beq.n	8003080 <HAL_DMA_Init+0x174>
 8003026:	687b      	ldr	r3, [r7, #4]
 8003028:	681b      	ldr	r3, [r3, #0]
 800302a:	4a2d      	ldr	r2, [pc, #180]	@ (80030e0 <HAL_DMA_Init+0x1d4>)
 800302c:	4293      	cmp	r3, r2
 800302e:	d027      	beq.n	8003080 <HAL_DMA_Init+0x174>
 8003030:	687b      	ldr	r3, [r7, #4]
 8003032:	681b      	ldr	r3, [r3, #0]
 8003034:	4a2b      	ldr	r2, [pc, #172]	@ (80030e4 <HAL_DMA_Init+0x1d8>)
 8003036:	4293      	cmp	r3, r2
 8003038:	d022      	beq.n	8003080 <HAL_DMA_Init+0x174>
 800303a:	687b      	ldr	r3, [r7, #4]
 800303c:	681b      	ldr	r3, [r3, #0]
 800303e:	4a2a      	ldr	r2, [pc, #168]	@ (80030e8 <HAL_DMA_Init+0x1dc>)
 8003040:	4293      	cmp	r3, r2
 8003042:	d01d      	beq.n	8003080 <HAL_DMA_Init+0x174>
 8003044:	687b      	ldr	r3, [r7, #4]
 8003046:	681b      	ldr	r3, [r3, #0]
 8003048:	4a28      	ldr	r2, [pc, #160]	@ (80030ec <HAL_DMA_Init+0x1e0>)
 800304a:	4293      	cmp	r3, r2
 800304c:	d018      	beq.n	8003080 <HAL_DMA_Init+0x174>
 800304e:	687b      	ldr	r3, [r7, #4]
 8003050:	681b      	ldr	r3, [r3, #0]
 8003052:	4a27      	ldr	r2, [pc, #156]	@ (80030f0 <HAL_DMA_Init+0x1e4>)
 8003054:	4293      	cmp	r3, r2
 8003056:	d013      	beq.n	8003080 <HAL_DMA_Init+0x174>
 8003058:	687b      	ldr	r3, [r7, #4]
 800305a:	681b      	ldr	r3, [r3, #0]
 800305c:	4a25      	ldr	r2, [pc, #148]	@ (80030f4 <HAL_DMA_Init+0x1e8>)
 800305e:	4293      	cmp	r3, r2
 8003060:	d00e      	beq.n	8003080 <HAL_DMA_Init+0x174>
 8003062:	687b      	ldr	r3, [r7, #4]
 8003064:	681b      	ldr	r3, [r3, #0]
 8003066:	4a24      	ldr	r2, [pc, #144]	@ (80030f8 <HAL_DMA_Init+0x1ec>)
 8003068:	4293      	cmp	r3, r2
 800306a:	d009      	beq.n	8003080 <HAL_DMA_Init+0x174>
 800306c:	687b      	ldr	r3, [r7, #4]
 800306e:	681b      	ldr	r3, [r3, #0]
 8003070:	4a22      	ldr	r2, [pc, #136]	@ (80030fc <HAL_DMA_Init+0x1f0>)
 8003072:	4293      	cmp	r3, r2
 8003074:	d004      	beq.n	8003080 <HAL_DMA_Init+0x174>
 8003076:	687b      	ldr	r3, [r7, #4]
 8003078:	681b      	ldr	r3, [r3, #0]
 800307a:	4a21      	ldr	r2, [pc, #132]	@ (8003100 <HAL_DMA_Init+0x1f4>)
 800307c:	4293      	cmp	r3, r2
 800307e:	d108      	bne.n	8003092 <HAL_DMA_Init+0x186>
 8003080:	687b      	ldr	r3, [r7, #4]
 8003082:	681b      	ldr	r3, [r3, #0]
 8003084:	681a      	ldr	r2, [r3, #0]
 8003086:	687b      	ldr	r3, [r7, #4]
 8003088:	681b      	ldr	r3, [r3, #0]
 800308a:	f022 0201 	bic.w	r2, r2, #1
 800308e:	601a      	str	r2, [r3, #0]
 8003090:	e007      	b.n	80030a2 <HAL_DMA_Init+0x196>
 8003092:	687b      	ldr	r3, [r7, #4]
 8003094:	681b      	ldr	r3, [r3, #0]
 8003096:	681a      	ldr	r2, [r3, #0]
 8003098:	687b      	ldr	r3, [r7, #4]
 800309a:	681b      	ldr	r3, [r3, #0]
 800309c:	f022 0201 	bic.w	r2, r2, #1
 80030a0:	601a      	str	r2, [r3, #0]
 80030a2:	e02f      	b.n	8003104 <HAL_DMA_Init+0x1f8>
 80030a4:	f7fe f8b8 	bl	8001218 <HAL_GetTick>
 80030a8:	4602      	mov	r2, r0
 80030aa:	693b      	ldr	r3, [r7, #16]
 80030ac:	1ad3      	subs	r3, r2, r3
 80030ae:	2b05      	cmp	r3, #5
 80030b0:	d928      	bls.n	8003104 <HAL_DMA_Init+0x1f8>
 80030b2:	687b      	ldr	r3, [r7, #4]
 80030b4:	2220      	movs	r2, #32
 80030b6:	655a      	str	r2, [r3, #84]	@ 0x54
 80030b8:	687b      	ldr	r3, [r7, #4]
 80030ba:	2203      	movs	r2, #3
 80030bc:	f883 2035 	strb.w	r2, [r3, #53]	@ 0x35
 80030c0:	2301      	movs	r3, #1
 80030c2:	e2ad      	b.n	8003620 <HAL_DMA_Init+0x714>
 80030c4:	40020010 	.word	0x40020010
 80030c8:	40020028 	.word	0x40020028
 80030cc:	40020040 	.word	0x40020040
 80030d0:	40020058 	.word	0x40020058
 80030d4:	40020070 	.word	0x40020070
 80030d8:	40020088 	.word	0x40020088
 80030dc:	400200a0 	.word	0x400200a0
 80030e0:	400200b8 	.word	0x400200b8
 80030e4:	40020410 	.word	0x40020410
 80030e8:	40020428 	.word	0x40020428
 80030ec:	40020440 	.word	0x40020440
 80030f0:	40020458 	.word	0x40020458
 80030f4:	40020470 	.word	0x40020470
 80030f8:	40020488 	.word	0x40020488
 80030fc:	400204a0 	.word	0x400204a0
 8003100:	400204b8 	.word	0x400204b8
 8003104:	687b      	ldr	r3, [r7, #4]
 8003106:	681b      	ldr	r3, [r3, #0]
 8003108:	681b      	ldr	r3, [r3, #0]
 800310a:	f003 0301 	and.w	r3, r3, #1
 800310e:	2b00      	cmp	r3, #0
 8003110:	d1c8      	bne.n	80030a4 <HAL_DMA_Init+0x198>
 8003112:	687b      	ldr	r3, [r7, #4]
 8003114:	681b      	ldr	r3, [r3, #0]
 8003116:	681b      	ldr	r3, [r3, #0]
 8003118:	617b      	str	r3, [r7, #20]
 800311a:	697a      	ldr	r2, [r7, #20]
 800311c:	4b73      	ldr	r3, [pc, #460]	@ (80032ec <HAL_DMA_Init+0x3e0>)
 800311e:	4013      	ands	r3, r2
 8003120:	617b      	str	r3, [r7, #20]
 8003122:	687b      	ldr	r3, [r7, #4]
 8003124:	689a      	ldr	r2, [r3, #8]
 8003126:	687b      	ldr	r3, [r7, #4]
 8003128:	68db      	ldr	r3, [r3, #12]
 800312a:	431a      	orrs	r2, r3
 800312c:	687b      	ldr	r3, [r7, #4]
 800312e:	691b      	ldr	r3, [r3, #16]
 8003130:	431a      	orrs	r2, r3
 8003132:	687b      	ldr	r3, [r7, #4]
 8003134:	695b      	ldr	r3, [r3, #20]
 8003136:	431a      	orrs	r2, r3
 8003138:	687b      	ldr	r3, [r7, #4]
 800313a:	699b      	ldr	r3, [r3, #24]
 800313c:	431a      	orrs	r2, r3
 800313e:	687b      	ldr	r3, [r7, #4]
 8003140:	69db      	ldr	r3, [r3, #28]
 8003142:	431a      	orrs	r2, r3
 8003144:	687b      	ldr	r3, [r7, #4]
 8003146:	6a1b      	ldr	r3, [r3, #32]
 8003148:	4313      	orrs	r3, r2
 800314a:	697a      	ldr	r2, [r7, #20]
 800314c:	4313      	orrs	r3, r2
 800314e:	617b      	str	r3, [r7, #20]
 8003150:	687b      	ldr	r3, [r7, #4]
 8003152:	6a5b      	ldr	r3, [r3, #36]	@ 0x24
 8003154:	2b04      	cmp	r3, #4
 8003156:	d107      	bne.n	8003168 <HAL_DMA_Init+0x25c>
 8003158:	687b      	ldr	r3, [r7, #4]
 800315a:	6ada      	ldr	r2, [r3, #44]	@ 0x2c
 800315c:	687b      	ldr	r3, [r7, #4]
 800315e:	6b1b      	ldr	r3, [r3, #48]	@ 0x30
 8003160:	4313      	orrs	r3, r2
 8003162:	697a      	ldr	r2, [r7, #20]
 8003164:	4313      	orrs	r3, r2
 8003166:	617b      	str	r3, [r7, #20]
 8003168:	687b      	ldr	r3, [r7, #4]
 800316a:	685b      	ldr	r3, [r3, #4]
 800316c:	2b28      	cmp	r3, #40	@ 0x28
 800316e:	d903      	bls.n	8003178 <HAL_DMA_Init+0x26c>
 8003170:	687b      	ldr	r3, [r7, #4]
 8003172:	685b      	ldr	r3, [r3, #4]
 8003174:	2b2e      	cmp	r3, #46	@ 0x2e
 8003176:	d91f      	bls.n	80031b8 <HAL_DMA_Init+0x2ac>
 8003178:	687b      	ldr	r3, [r7, #4]
 800317a:	685b      	ldr	r3, [r3, #4]
 800317c:	2b3e      	cmp	r3, #62	@ 0x3e
 800317e:	d903      	bls.n	8003188 <HAL_DMA_Init+0x27c>
 8003180:	687b      	ldr	r3, [r7, #4]
 8003182:	685b      	ldr	r3, [r3, #4]
 8003184:	2b42      	cmp	r3, #66	@ 0x42
 8003186:	d917      	bls.n	80031b8 <HAL_DMA_Init+0x2ac>
 8003188:	687b      	ldr	r3, [r7, #4]
 800318a:	685b      	ldr	r3, [r3, #4]
 800318c:	2b46      	cmp	r3, #70	@ 0x46
 800318e:	d903      	bls.n	8003198 <HAL_DMA_Init+0x28c>
 8003190:	687b      	ldr	r3, [r7, #4]
 8003192:	685b      	ldr	r3, [r3, #4]
 8003194:	2b48      	cmp	r3, #72	@ 0x48
 8003196:	d90f      	bls.n	80031b8 <HAL_DMA_Init+0x2ac>
 8003198:	687b      	ldr	r3, [r7, #4]
 800319a:	685b      	ldr	r3, [r3, #4]
 800319c:	2b4e      	cmp	r3, #78	@ 0x4e
 800319e:	d903      	bls.n	80031a8 <HAL_DMA_Init+0x29c>
 80031a0:	687b      	ldr	r3, [r7, #4]
 80031a2:	685b      	ldr	r3, [r3, #4]
 80031a4:	2b52      	cmp	r3, #82	@ 0x52
 80031a6:	d907      	bls.n	80031b8 <HAL_DMA_Init+0x2ac>
 80031a8:	687b      	ldr	r3, [r7, #4]
 80031aa:	685b      	ldr	r3, [r3, #4]
 80031ac:	2b73      	cmp	r3, #115	@ 0x73
 80031ae:	d905      	bls.n	80031bc <HAL_DMA_Init+0x2b0>
 80031b0:	687b      	ldr	r3, [r7, #4]
 80031b2:	685b      	ldr	r3, [r3, #4]
 80031b4:	2b77      	cmp	r3, #119	@ 0x77
 80031b6:	d801      	bhi.n	80031bc <HAL_DMA_Init+0x2b0>
 80031b8:	2301      	movs	r3, #1
 80031ba:	e000      	b.n	80031be <HAL_DMA_Init+0x2b2>
 80031bc:	2300      	movs	r3, #0
 80031be:	2b00      	cmp	r3, #0
 80031c0:	d003      	beq.n	80031ca <HAL_DMA_Init+0x2be>
 80031c2:	697b      	ldr	r3, [r7, #20]
 80031c4:	f443 1380 	orr.w	r3, r3, #1048576	@ 0x100000
 80031c8:	617b      	str	r3, [r7, #20]
 80031ca:	687b      	ldr	r3, [r7, #4]
 80031cc:	681b      	ldr	r3, [r3, #0]
 80031ce:	697a      	ldr	r2, [r7, #20]
 80031d0:	601a      	str	r2, [r3, #0]
 80031d2:	687b      	ldr	r3, [r7, #4]
 80031d4:	681b      	ldr	r3, [r3, #0]
 80031d6:	695b      	ldr	r3, [r3, #20]
 80031d8:	617b      	str	r3, [r7, #20]
 80031da:	697b      	ldr	r3, [r7, #20]
 80031dc:	f023 0307 	bic.w	r3, r3, #7
 80031e0:	617b      	str	r3, [r7, #20]
 80031e2:	687b      	ldr	r3, [r7, #4]
 80031e4:	6a5b      	ldr	r3, [r3, #36]	@ 0x24
 80031e6:	697a      	ldr	r2, [r7, #20]
 80031e8:	4313      	orrs	r3, r2
 80031ea:	617b      	str	r3, [r7, #20]
 80031ec:	687b      	ldr	r3, [r7, #4]
 80031ee:	6a5b      	ldr	r3, [r3, #36]	@ 0x24
 80031f0:	2b04      	cmp	r3, #4
 80031f2:	d117      	bne.n	8003224 <HAL_DMA_Init+0x318>
 80031f4:	687b      	ldr	r3, [r7, #4]
 80031f6:	6a9b      	ldr	r3, [r3, #40]	@ 0x28
 80031f8:	697a      	ldr	r2, [r7, #20]
 80031fa:	4313      	orrs	r3, r2
 80031fc:	617b      	str	r3, [r7, #20]
 80031fe:	687b      	ldr	r3, [r7, #4]
 8003200:	6adb      	ldr	r3, [r3, #44]	@ 0x2c
 8003202:	2b00      	cmp	r3, #0
 8003204:	d00e      	beq.n	8003224 <HAL_DMA_Init+0x318>
 8003206:	6878      	ldr	r0, [r7, #4]
 8003208:	f002 fbd4 	bl	80059b4 <DMA_CheckFifoParam>
 800320c:	4603      	mov	r3, r0
 800320e:	2b00      	cmp	r3, #0
 8003210:	d008      	beq.n	8003224 <HAL_DMA_Init+0x318>
 8003212:	687b      	ldr	r3, [r7, #4]
 8003214:	2240      	movs	r2, #64	@ 0x40
 8003216:	655a      	str	r2, [r3, #84]	@ 0x54
 8003218:	687b      	ldr	r3, [r7, #4]
 800321a:	2201      	movs	r2, #1
 800321c:	f883 2035 	strb.w	r2, [r3, #53]	@ 0x35
 8003220:	2301      	movs	r3, #1
 8003222:	e1fd      	b.n	8003620 <HAL_DMA_Init+0x714>
 8003224:	687b      	ldr	r3, [r7, #4]
 8003226:	681b      	ldr	r3, [r3, #0]
 8003228:	697a      	ldr	r2, [r7, #20]
 800322a:	615a      	str	r2, [r3, #20]
 800322c:	6878      	ldr	r0, [r7, #4]
 800322e:	f002 fb0f 	bl	8005850 <DMA_CalcBaseAndBitshift>
 8003232:	4603      	mov	r3, r0
 8003234:	60bb      	str	r3, [r7, #8]
 8003236:	687b      	ldr	r3, [r7, #4]
 8003238:	6ddb      	ldr	r3, [r3, #92]	@ 0x5c
 800323a:	f003 031f 	and.w	r3, r3, #31
 800323e:	223f      	movs	r2, #63	@ 0x3f
 8003240:	409a      	lsls	r2, r3
 8003242:	68bb      	ldr	r3, [r7, #8]
 8003244:	609a      	str	r2, [r3, #8]
 8003246:	e0fd      	b.n	8003444 <HAL_DMA_Init+0x538>
 8003248:	687b      	ldr	r3, [r7, #4]
 800324a:	681b      	ldr	r3, [r3, #0]
 800324c:	4a28      	ldr	r2, [pc, #160]	@ (80032f0 <HAL_DMA_Init+0x3e4>)
 800324e:	4293      	cmp	r3, r2
 8003250:	d04a      	beq.n	80032e8 <HAL_DMA_Init+0x3dc>
 8003252:	687b      	ldr	r3, [r7, #4]
 8003254:	681b      	ldr	r3, [r3, #0]
 8003256:	4a27      	ldr	r2, [pc, #156]	@ (80032f4 <HAL_DMA_Init+0x3e8>)
 8003258:	4293      	cmp	r3, r2
 800325a:	d045      	beq.n	80032e8 <HAL_DMA_Init+0x3dc>
 800325c:	687b      	ldr	r3, [r7, #4]
 800325e:	681b      	ldr	r3, [r3, #0]
 8003260:	4a25      	ldr	r2, [pc, #148]	@ (80032f8 <HAL_DMA_Init+0x3ec>)
 8003262:	4293      	cmp	r3, r2
 8003264:	d040      	beq.n	80032e8 <HAL_DMA_Init+0x3dc>
 8003266:	687b      	ldr	r3, [r7, #4]
 8003268:	681b      	ldr	r3, [r3, #0]
 800326a:	4a24      	ldr	r2, [pc, #144]	@ (80032fc <HAL_DMA_Init+0x3f0>)
 800326c:	4293      	cmp	r3, r2
 800326e:	d03b      	beq.n	80032e8 <HAL_DMA_Init+0x3dc>
 8003270:	687b      	ldr	r3, [r7, #4]
 8003272:	681b      	ldr	r3, [r3, #0]
 8003274:	4a22      	ldr	r2, [pc, #136]	@ (8003300 <HAL_DMA_Init+0x3f4>)
 8003276:	4293      	cmp	r3, r2
 8003278:	d036      	beq.n	80032e8 <HAL_DMA_Init+0x3dc>
 800327a:	687b      	ldr	r3, [r7, #4]
 800327c:	681b      	ldr	r3, [r3, #0]
 800327e:	4a21      	ldr	r2, [pc, #132]	@ (8003304 <HAL_DMA_Init+0x3f8>)
 8003280:	4293      	cmp	r3, r2
 8003282:	d031      	beq.n	80032e8 <HAL_DMA_Init+0x3dc>
 8003284:	687b      	ldr	r3, [r7, #4]
 8003286:	681b      	ldr	r3, [r3, #0]
 8003288:	4a1f      	ldr	r2, [pc, #124]	@ (8003308 <HAL_DMA_Init+0x3fc>)
 800328a:	4293      	cmp	r3, r2
 800328c:	d02c      	beq.n	80032e8 <HAL_DMA_Init+0x3dc>
 800328e:	687b      	ldr	r3, [r7, #4]
 8003290:	681b      	ldr	r3, [r3, #0]
 8003292:	4a1e      	ldr	r2, [pc, #120]	@ (800330c <HAL_DMA_Init+0x400>)
 8003294:	4293      	cmp	r3, r2
 8003296:	d027      	beq.n	80032e8 <HAL_DMA_Init+0x3dc>
 8003298:	687b      	ldr	r3, [r7, #4]
 800329a:	681b      	ldr	r3, [r3, #0]
 800329c:	4a1c      	ldr	r2, [pc, #112]	@ (8003310 <HAL_DMA_Init+0x404>)
 800329e:	4293      	cmp	r3, r2
 80032a0:	d022      	beq.n	80032e8 <HAL_DMA_Init+0x3dc>
 80032a2:	687b      	ldr	r3, [r7, #4]
 80032a4:	681b      	ldr	r3, [r3, #0]
 80032a6:	4a1b      	ldr	r2, [pc, #108]	@ (8003314 <HAL_DMA_Init+0x408>)
 80032a8:	4293      	cmp	r3, r2
 80032aa:	d01d      	beq.n	80032e8 <HAL_DMA_Init+0x3dc>
 80032ac:	687b      	ldr	r3, [r7, #4]
 80032ae:	681b      	ldr	r3, [r3, #0]
 80032b0:	4a19      	ldr	r2, [pc, #100]	@ (8003318 <HAL_DMA_Init+0x40c>)
 80032b2:	4293      	cmp	r3, r2
 80032b4:	d018      	beq.n	80032e8 <HAL_DMA_Init+0x3dc>
 80032b6:	687b      	ldr	r3, [r7, #4]
 80032b8:	681b      	ldr	r3, [r3, #0]
 80032ba:	4a18      	ldr	r2, [pc, #96]	@ (800331c <HAL_DMA_Init+0x410>)
 80032bc:	4293      	cmp	r3, r2
 80032be:	d013      	beq.n	80032e8 <HAL_DMA_Init+0x3dc>
 80032c0:	687b      	ldr	r3, [r7, #4]
 80032c2:	681b      	ldr	r3, [r3, #0]
 80032c4:	4a16      	ldr	r2, [pc, #88]	@ (8003320 <HAL_DMA_Init+0x414>)
 80032c6:	4293      	cmp	r3, r2
 80032c8:	d00e      	beq.n	80032e8 <HAL_DMA_Init+0x3dc>
 80032ca:	687b      	ldr	r3, [r7, #4]
 80032cc:	681b      	ldr	r3, [r3, #0]
 80032ce:	4a15      	ldr	r2, [pc, #84]	@ (8003324 <HAL_DMA_Init+0x418>)
 80032d0:	4293      	cmp	r3, r2
 80032d2:	d009      	beq.n	80032e8 <HAL_DMA_Init+0x3dc>
 80032d4:	687b      	ldr	r3, [r7, #4]
 80032d6:	681b      	ldr	r3, [r3, #0]
 80032d8:	4a13      	ldr	r2, [pc, #76]	@ (8003328 <HAL_DMA_Init+0x41c>)
 80032da:	4293      	cmp	r3, r2
 80032dc:	d004      	beq.n	80032e8 <HAL_DMA_Init+0x3dc>
 80032de:	687b      	ldr	r3, [r7, #4]
 80032e0:	681b      	ldr	r3, [r3, #0]
 80032e2:	4a12      	ldr	r2, [pc, #72]	@ (800332c <HAL_DMA_Init+0x420>)
 80032e4:	4293      	cmp	r3, r2
 80032e6:	d123      	bne.n	8003330 <HAL_DMA_Init+0x424>
 80032e8:	2301      	movs	r3, #1
 80032ea:	e022      	b.n	8003332 <HAL_DMA_Init+0x426>
 80032ec:	fe10803f 	.word	0xfe10803f
 80032f0:	48022c08 	.word	0x48022c08
 80032f4:	48022c1c 	.word	0x48022c1c
 80032f8:	48022c30 	.word	0x48022c30
 80032fc:	48022c44 	.word	0x48022c44
 8003300:	48022c58 	.word	0x48022c58
 8003304:	48022c6c 	.word	0x48022c6c
 8003308:	48022c80 	.word	0x48022c80
 800330c:	48022c94 	.word	0x48022c94
 8003310:	58025408 	.word	0x58025408
 8003314:	5802541c 	.word	0x5802541c
 8003318:	58025430 	.word	0x58025430
 800331c:	58025444 	.word	0x58025444
 8003320:	58025458 	.word	0x58025458
 8003324:	5802546c 	.word	0x5802546c
 8003328:	58025480 	.word	0x58025480
 800332c:	58025494 	.word	0x58025494
 8003330:	2300      	movs	r3, #0
 8003332:	2b00      	cmp	r3, #0
 8003334:	d07d      	beq.n	8003432 <HAL_DMA_Init+0x526>
 8003336:	687b      	ldr	r3, [r7, #4]
 8003338:	681b      	ldr	r3, [r3, #0]
 800333a:	4a7f      	ldr	r2, [pc, #508]	@ (8003538 <HAL_DMA_Init+0x62c>)
 800333c:	4293      	cmp	r3, r2
 800333e:	d021      	beq.n	8003384 <HAL_DMA_Init+0x478>
 8003340:	687b      	ldr	r3, [r7, #4]
 8003342:	681b      	ldr	r3, [r3, #0]
 8003344:	4a7d      	ldr	r2, [pc, #500]	@ (800353c <HAL_DMA_Init+0x630>)
 8003346:	4293      	cmp	r3, r2
 8003348:	d01c      	beq.n	8003384 <HAL_DMA_Init+0x478>
 800334a:	687b      	ldr	r3, [r7, #4]
 800334c:	681b      	ldr	r3, [r3, #0]
 800334e:	4a7c      	ldr	r2, [pc, #496]	@ (8003540 <HAL_DMA_Init+0x634>)
 8003350:	4293      	cmp	r3, r2
 8003352:	d017      	beq.n	8003384 <HAL_DMA_Init+0x478>
 8003354:	687b      	ldr	r3, [r7, #4]
 8003356:	681b      	ldr	r3, [r3, #0]
 8003358:	4a7a      	ldr	r2, [pc, #488]	@ (8003544 <HAL_DMA_Init+0x638>)
 800335a:	4293      	cmp	r3, r2
 800335c:	d012      	beq.n	8003384 <HAL_DMA_Init+0x478>
 800335e:	687b      	ldr	r3, [r7, #4]
 8003360:	681b      	ldr	r3, [r3, #0]
 8003362:	4a79      	ldr	r2, [pc, #484]	@ (8003548 <HAL_DMA_Init+0x63c>)
 8003364:	4293      	cmp	r3, r2
 8003366:	d00d      	beq.n	8003384 <HAL_DMA_Init+0x478>
 8003368:	687b      	ldr	r3, [r7, #4]
 800336a:	681b      	ldr	r3, [r3, #0]
 800336c:	4a77      	ldr	r2, [pc, #476]	@ (800354c <HAL_DMA_Init+0x640>)
 800336e:	4293      	cmp	r3, r2
 8003370:	d008      	beq.n	8003384 <HAL_DMA_Init+0x478>
 8003372:	687b      	ldr	r3, [r7, #4]
 8003374:	681b      	ldr	r3, [r3, #0]
 8003376:	4a76      	ldr	r2, [pc, #472]	@ (8003550 <HAL_DMA_Init+0x644>)
 8003378:	4293      	cmp	r3, r2
 800337a:	d003      	beq.n	8003384 <HAL_DMA_Init+0x478>
 800337c:	687b      	ldr	r3, [r7, #4]
 800337e:	681b      	ldr	r3, [r3, #0]
 8003380:	4a74      	ldr	r2, [pc, #464]	@ (8003554 <HAL_DMA_Init+0x648>)
 8003382:	4293      	cmp	r3, r2
 8003384:	687b      	ldr	r3, [r7, #4]
 8003386:	2202      	movs	r2, #2
 8003388:	f883 2035 	strb.w	r2, [r3, #53]	@ 0x35
 800338c:	687b      	ldr	r3, [r7, #4]
 800338e:	2200      	movs	r2, #0
 8003390:	f883 2034 	strb.w	r2, [r3, #52]	@ 0x34
 8003394:	687b      	ldr	r3, [r7, #4]
 8003396:	681b      	ldr	r3, [r3, #0]
 8003398:	681b      	ldr	r3, [r3, #0]
 800339a:	617b      	str	r3, [r7, #20]
 800339c:	697a      	ldr	r2, [r7, #20]
 800339e:	4b6e      	ldr	r3, [pc, #440]	@ (8003558 <HAL_DMA_Init+0x64c>)
 80033a0:	4013      	ands	r3, r2
 80033a2:	617b      	str	r3, [r7, #20]
 80033a4:	687b      	ldr	r3, [r7, #4]
 80033a6:	689b      	ldr	r3, [r3, #8]
 80033a8:	2b40      	cmp	r3, #64	@ 0x40
 80033aa:	d008      	beq.n	80033be <HAL_DMA_Init+0x4b2>
 80033ac:	687b      	ldr	r3, [r7, #4]
 80033ae:	689b      	ldr	r3, [r3, #8]
 80033b0:	2b80      	cmp	r3, #128	@ 0x80
 80033b2:	d102      	bne.n	80033ba <HAL_DMA_Init+0x4ae>
 80033b4:	f44f 4380 	mov.w	r3, #16384	@ 0x4000
 80033b8:	e002      	b.n	80033c0 <HAL_DMA_Init+0x4b4>
 80033ba:	2300      	movs	r3, #0
 80033bc:	e000      	b.n	80033c0 <HAL_DMA_Init+0x4b4>
 80033be:	2310      	movs	r3, #16
 80033c0:	687a      	ldr	r2, [r7, #4]
 80033c2:	68d2      	ldr	r2, [r2, #12]
 80033c4:	08d2      	lsrs	r2, r2, #3
 80033c6:	431a      	orrs	r2, r3
 80033c8:	687b      	ldr	r3, [r7, #4]
 80033ca:	691b      	ldr	r3, [r3, #16]
 80033cc:	08db      	lsrs	r3, r3, #3
 80033ce:	431a      	orrs	r2, r3
 80033d0:	687b      	ldr	r3, [r7, #4]
 80033d2:	695b      	ldr	r3, [r3, #20]
 80033d4:	08db      	lsrs	r3, r3, #3
 80033d6:	431a      	orrs	r2, r3
 80033d8:	687b      	ldr	r3, [r7, #4]
 80033da:	699b      	ldr	r3, [r3, #24]
 80033dc:	08db      	lsrs	r3, r3, #3
 80033de:	431a      	orrs	r2, r3
 80033e0:	687b      	ldr	r3, [r7, #4]
 80033e2:	69db      	ldr	r3, [r3, #28]
 80033e4:	08db      	lsrs	r3, r3, #3
 80033e6:	431a      	orrs	r2, r3
 80033e8:	687b      	ldr	r3, [r7, #4]
 80033ea:	6a1b      	ldr	r3, [r3, #32]
 80033ec:	091b      	lsrs	r3, r3, #4
 80033ee:	4313      	orrs	r3, r2
 80033f0:	697a      	ldr	r2, [r7, #20]
 80033f2:	4313      	orrs	r3, r2
 80033f4:	617b      	str	r3, [r7, #20]
 80033f6:	687b      	ldr	r3, [r7, #4]
 80033f8:	681b      	ldr	r3, [r3, #0]
 80033fa:	697a      	ldr	r2, [r7, #20]
 80033fc:	601a      	str	r2, [r3, #0]
 80033fe:	687b      	ldr	r3, [r7, #4]
 8003400:	681b      	ldr	r3, [r3, #0]
 8003402:	461a      	mov	r2, r3
 8003404:	4b55      	ldr	r3, [pc, #340]	@ (800355c <HAL_DMA_Init+0x650>)
 8003406:	4413      	add	r3, r2
 8003408:	4a55      	ldr	r2, [pc, #340]	@ (8003560 <HAL_DMA_Init+0x654>)
 800340a:	fba2 2303 	umull	r2, r3, r2, r3
 800340e:	091b      	lsrs	r3, r3, #4
 8003410:	009a      	lsls	r2, r3, #2
 8003412:	687b      	ldr	r3, [r7, #4]
 8003414:	65da      	str	r2, [r3, #92]	@ 0x5c
 8003416:	6878      	ldr	r0, [r7, #4]
 8003418:	f002 fa1a 	bl	8005850 <DMA_CalcBaseAndBitshift>
 800341c:	4603      	mov	r3, r0
 800341e:	60fb      	str	r3, [r7, #12]
 8003420:	687b      	ldr	r3, [r7, #4]
 8003422:	6ddb      	ldr	r3, [r3, #92]	@ 0x5c
 8003424:	f003 031f 	and.w	r3, r3, #31
 8003428:	2201      	movs	r2, #1
 800342a:	409a      	lsls	r2, r3
 800342c:	68fb      	ldr	r3, [r7, #12]
 800342e:	605a      	str	r2, [r3, #4]
 8003430:	e008      	b.n	8003444 <HAL_DMA_Init+0x538>
 8003432:	687b      	ldr	r3, [r7, #4]
 8003434:	2240      	movs	r2, #64	@ 0x40
 8003436:	655a      	str	r2, [r3, #84]	@ 0x54
 8003438:	687b      	ldr	r3, [r7, #4]
 800343a:	2203      	movs	r2, #3
 800343c:	f883 2035 	strb.w	r2, [r3, #53]	@ 0x35
 8003440:	2301      	movs	r3, #1
 8003442:	e0ed      	b.n	8003620 <HAL_DMA_Init+0x714>
 8003444:	687b      	ldr	r3, [r7, #4]
 8003446:	681b      	ldr	r3, [r3, #0]
 8003448:	4a46      	ldr	r2, [pc, #280]	@ (8003564 <HAL_DMA_Init+0x658>)
 800344a:	4293      	cmp	r3, r2
 800344c:	d072      	beq.n	8003534 <HAL_DMA_Init+0x628>
 800344e:	687b      	ldr	r3, [r7, #4]
 8003450:	681b      	ldr	r3, [r3, #0]
 8003452:	4a45      	ldr	r2, [pc, #276]	@ (8003568 <HAL_DMA_Init+0x65c>)
 8003454:	4293      	cmp	r3, r2
 8003456:	d06d      	beq.n	8003534 <HAL_DMA_Init+0x628>
 8003458:	687b      	ldr	r3, [r7, #4]
 800345a:	681b      	ldr	r3, [r3, #0]
 800345c:	4a43      	ldr	r2, [pc, #268]	@ (800356c <HAL_DMA_Init+0x660>)
 800345e:	4293      	cmp	r3, r2
 8003460:	d068      	beq.n	8003534 <HAL_DMA_Init+0x628>
 8003462:	687b      	ldr	r3, [r7, #4]
 8003464:	681b      	ldr	r3, [r3, #0]
 8003466:	4a42      	ldr	r2, [pc, #264]	@ (8003570 <HAL_DMA_Init+0x664>)
 8003468:	4293      	cmp	r3, r2
 800346a:	d063      	beq.n	8003534 <HAL_DMA_Init+0x628>
 800346c:	687b      	ldr	r3, [r7, #4]
 800346e:	681b      	ldr	r3, [r3, #0]
 8003470:	4a40      	ldr	r2, [pc, #256]	@ (8003574 <HAL_DMA_Init+0x668>)
 8003472:	4293      	cmp	r3, r2
 8003474:	d05e      	beq.n	8003534 <HAL_DMA_Init+0x628>
 8003476:	687b      	ldr	r3, [r7, #4]
 8003478:	681b      	ldr	r3, [r3, #0]
 800347a:	4a3f      	ldr	r2, [pc, #252]	@ (8003578 <HAL_DMA_Init+0x66c>)
 800347c:	4293      	cmp	r3, r2
 800347e:	d059      	beq.n	8003534 <HAL_DMA_Init+0x628>
 8003480:	687b      	ldr	r3, [r7, #4]
 8003482:	681b      	ldr	r3, [r3, #0]
 8003484:	4a3d      	ldr	r2, [pc, #244]	@ (800357c <HAL_DMA_Init+0x670>)
 8003486:	4293      	cmp	r3, r2
 8003488:	d054      	beq.n	8003534 <HAL_DMA_Init+0x628>
 800348a:	687b      	ldr	r3, [r7, #4]
 800348c:	681b      	ldr	r3, [r3, #0]
 800348e:	4a3c      	ldr	r2, [pc, #240]	@ (8003580 <HAL_DMA_Init+0x674>)
 8003490:	4293      	cmp	r3, r2
 8003492:	d04f      	beq.n	8003534 <HAL_DMA_Init+0x628>
 8003494:	687b      	ldr	r3, [r7, #4]
 8003496:	681b      	ldr	r3, [r3, #0]
 8003498:	4a3a      	ldr	r2, [pc, #232]	@ (8003584 <HAL_DMA_Init+0x678>)
 800349a:	4293      	cmp	r3, r2
 800349c:	d04a      	beq.n	8003534 <HAL_DMA_Init+0x628>
 800349e:	687b      	ldr	r3, [r7, #4]
 80034a0:	681b      	ldr	r3, [r3, #0]
 80034a2:	4a39      	ldr	r2, [pc, #228]	@ (8003588 <HAL_DMA_Init+0x67c>)
 80034a4:	4293      	cmp	r3, r2
 80034a6:	d045      	beq.n	8003534 <HAL_DMA_Init+0x628>
 80034a8:	687b      	ldr	r3, [r7, #4]
 80034aa:	681b      	ldr	r3, [r3, #0]
 80034ac:	4a37      	ldr	r2, [pc, #220]	@ (800358c <HAL_DMA_Init+0x680>)
 80034ae:	4293      	cmp	r3, r2
 80034b0:	d040      	beq.n	8003534 <HAL_DMA_Init+0x628>
 80034b2:	687b      	ldr	r3, [r7, #4]
 80034b4:	681b      	ldr	r3, [r3, #0]
 80034b6:	4a36      	ldr	r2, [pc, #216]	@ (8003590 <HAL_DMA_Init+0x684>)
 80034b8:	4293      	cmp	r3, r2
 80034ba:	d03b      	beq.n	8003534 <HAL_DMA_Init+0x628>
 80034bc:	687b      	ldr	r3, [r7, #4]
 80034be:	681b      	ldr	r3, [r3, #0]
 80034c0:	4a34      	ldr	r2, [pc, #208]	@ (8003594 <HAL_DMA_Init+0x688>)
 80034c2:	4293      	cmp	r3, r2
 80034c4:	d036      	beq.n	8003534 <HAL_DMA_Init+0x628>
 80034c6:	687b      	ldr	r3, [r7, #4]
 80034c8:	681b      	ldr	r3, [r3, #0]
 80034ca:	4a33      	ldr	r2, [pc, #204]	@ (8003598 <HAL_DMA_Init+0x68c>)
 80034cc:	4293      	cmp	r3, r2
 80034ce:	d031      	beq.n	8003534 <HAL_DMA_Init+0x628>
 80034d0:	687b      	ldr	r3, [r7, #4]
 80034d2:	681b      	ldr	r3, [r3, #0]
 80034d4:	4a31      	ldr	r2, [pc, #196]	@ (800359c <HAL_DMA_Init+0x690>)
 80034d6:	4293      	cmp	r3, r2
 80034d8:	d02c      	beq.n	8003534 <HAL_DMA_Init+0x628>
 80034da:	687b      	ldr	r3, [r7, #4]
 80034dc:	681b      	ldr	r3, [r3, #0]
 80034de:	4a30      	ldr	r2, [pc, #192]	@ (80035a0 <HAL_DMA_Init+0x694>)
 80034e0:	4293      	cmp	r3, r2
 80034e2:	d027      	beq.n	8003534 <HAL_DMA_Init+0x628>
 80034e4:	687b      	ldr	r3, [r7, #4]
 80034e6:	681b      	ldr	r3, [r3, #0]
 80034e8:	4a13      	ldr	r2, [pc, #76]	@ (8003538 <HAL_DMA_Init+0x62c>)
 80034ea:	4293      	cmp	r3, r2
 80034ec:	d022      	beq.n	8003534 <HAL_DMA_Init+0x628>
 80034ee:	687b      	ldr	r3, [r7, #4]
 80034f0:	681b      	ldr	r3, [r3, #0]
 80034f2:	4a12      	ldr	r2, [pc, #72]	@ (800353c <HAL_DMA_Init+0x630>)
 80034f4:	4293      	cmp	r3, r2
 80034f6:	d01d      	beq.n	8003534 <HAL_DMA_Init+0x628>
 80034f8:	687b      	ldr	r3, [r7, #4]
 80034fa:	681b      	ldr	r3, [r3, #0]
 80034fc:	4a10      	ldr	r2, [pc, #64]	@ (8003540 <HAL_DMA_Init+0x634>)
 80034fe:	4293      	cmp	r3, r2
 8003500:	d018      	beq.n	8003534 <HAL_DMA_Init+0x628>
 8003502:	687b      	ldr	r3, [r7, #4]
 8003504:	681b      	ldr	r3, [r3, #0]
 8003506:	4a0f      	ldr	r2, [pc, #60]	@ (8003544 <HAL_DMA_Init+0x638>)
 8003508:	4293      	cmp	r3, r2
 800350a:	d013      	beq.n	8003534 <HAL_DMA_Init+0x628>
 800350c:	687b      	ldr	r3, [r7, #4]
 800350e:	681b      	ldr	r3, [r3, #0]
 8003510:	4a0d      	ldr	r2, [pc, #52]	@ (8003548 <HAL_DMA_Init+0x63c>)
 8003512:	4293      	cmp	r3, r2
 8003514:	d00e      	beq.n	8003534 <HAL_DMA_Init+0x628>
 8003516:	687b      	ldr	r3, [r7, #4]
 8003518:	681b      	ldr	r3, [r3, #0]
 800351a:	4a0c      	ldr	r2, [pc, #48]	@ (800354c <HAL_DMA_Init+0x640>)
 800351c:	4293      	cmp	r3, r2
 800351e:	d009      	beq.n	8003534 <HAL_DMA_Init+0x628>
 8003520:	687b      	ldr	r3, [r7, #4]
 8003522:	681b      	ldr	r3, [r3, #0]
 8003524:	4a0a      	ldr	r2, [pc, #40]	@ (8003550 <HAL_DMA_Init+0x644>)
 8003526:	4293      	cmp	r3, r2
 8003528:	d004      	beq.n	8003534 <HAL_DMA_Init+0x628>
 800352a:	687b      	ldr	r3, [r7, #4]
 800352c:	681b      	ldr	r3, [r3, #0]
 800352e:	4a09      	ldr	r2, [pc, #36]	@ (8003554 <HAL_DMA_Init+0x648>)
 8003530:	4293      	cmp	r3, r2
 8003532:	d137      	bne.n	80035a4 <HAL_DMA_Init+0x698>
 8003534:	2301      	movs	r3, #1
 8003536:	e036      	b.n	80035a6 <HAL_DMA_Init+0x69a>
 8003538:	58025408 	.word	0x58025408
 800353c:	5802541c 	.word	0x5802541c
 8003540:	58025430 	.word	0x58025430
 8003544:	58025444 	.word	0x58025444
 8003548:	58025458 	.word	0x58025458
 800354c:	5802546c 	.word	0x5802546c
 8003550:	58025480 	.word	0x58025480
 8003554:	58025494 	.word	0x58025494
 8003558:	fffe000f 	.word	0xfffe000f
 800355c:	a7fdabf8 	.word	0xa7fdabf8
 8003560:	cccccccd 	.word	0xcccccccd
 8003564:	40020010 	.word	0x40020010
 8003568:	40020028 	.word	0x40020028
 800356c:	40020040 	.word	0x40020040
 8003570:	40020058 	.word	0x40020058
 8003574:	40020070 	.word	0x40020070
 8003578:	40020088 	.word	0x40020088
 800357c:	400200a0 	.word	0x400200a0
 8003580:	400200b8 	.word	0x400200b8
 8003584:	40020410 	.word	0x40020410
 8003588:	40020428 	.word	0x40020428
 800358c:	40020440 	.word	0x40020440
 8003590:	40020458 	.word	0x40020458
 8003594:	40020470 	.word	0x40020470
 8003598:	40020488 	.word	0x40020488
 800359c:	400204a0 	.word	0x400204a0
 80035a0:	400204b8 	.word	0x400204b8
 80035a4:	2300      	movs	r3, #0
 80035a6:	2b00      	cmp	r3, #0
 80035a8:	d032      	beq.n	8003610 <HAL_DMA_Init+0x704>
 80035aa:	6878      	ldr	r0, [r7, #4]
 80035ac:	f002 fa7e 	bl	8005aac <DMA_CalcDMAMUXChannelBaseAndMask>
 80035b0:	687b      	ldr	r3, [r7, #4]
 80035b2:	689b      	ldr	r3, [r3, #8]
 80035b4:	2b80      	cmp	r3, #128	@ 0x80
 80035b6:	d102      	bne.n	80035be <HAL_DMA_Init+0x6b2>
 80035b8:	687b      	ldr	r3, [r7, #4]
 80035ba:	2200      	movs	r2, #0
 80035bc:	605a      	str	r2, [r3, #4]
 80035be:	687b      	ldr	r3, [r7, #4]
 80035c0:	685a      	ldr	r2, [r3, #4]
 80035c2:	687b      	ldr	r3, [r7, #4]
 80035c4:	6e1b      	ldr	r3, [r3, #96]	@ 0x60
 80035c6:	b2d2      	uxtb	r2, r2
 80035c8:	601a      	str	r2, [r3, #0]
 80035ca:	687b      	ldr	r3, [r7, #4]
 80035cc:	6e5b      	ldr	r3, [r3, #100]	@ 0x64
 80035ce:	687a      	ldr	r2, [r7, #4]
 80035d0:	6e92      	ldr	r2, [r2, #104]	@ 0x68
 80035d2:	605a      	str	r2, [r3, #4]
 80035d4:	687b      	ldr	r3, [r7, #4]
 80035d6:	685b      	ldr	r3, [r3, #4]
 80035d8:	2b00      	cmp	r3, #0
 80035da:	d010      	beq.n	80035fe <HAL_DMA_Init+0x6f2>
 80035dc:	687b      	ldr	r3, [r7, #4]
 80035de:	685b      	ldr	r3, [r3, #4]
 80035e0:	2b08      	cmp	r3, #8
 80035e2:	d80c      	bhi.n	80035fe <HAL_DMA_Init+0x6f2>
 80035e4:	6878      	ldr	r0, [r7, #4]
 80035e6:	f002 fafb 	bl	8005be0 <DMA_CalcDMAMUXRequestGenBaseAndMask>
 80035ea:	687b      	ldr	r3, [r7, #4]
 80035ec:	6edb      	ldr	r3, [r3, #108]	@ 0x6c
 80035ee:	2200      	movs	r2, #0
 80035f0:	601a      	str	r2, [r3, #0]
 80035f2:	687b      	ldr	r3, [r7, #4]
 80035f4:	6f1b      	ldr	r3, [r3, #112]	@ 0x70
 80035f6:	687a      	ldr	r2, [r7, #4]
 80035f8:	6f52      	ldr	r2, [r2, #116]	@ 0x74
 80035fa:	605a      	str	r2, [r3, #4]
 80035fc:	e008      	b.n	8003610 <HAL_DMA_Init+0x704>
 80035fe:	687b      	ldr	r3, [r7, #4]
 8003600:	2200      	movs	r2, #0
 8003602:	66da      	str	r2, [r3, #108]	@ 0x6c
 8003604:	687b      	ldr	r3, [r7, #4]
 8003606:	2200      	movs	r2, #0
 8003608:	671a      	str	r2, [r3, #112]	@ 0x70
 800360a:	687b      	ldr	r3, [r7, #4]
 800360c:	2200      	movs	r2, #0
 800360e:	675a      	str	r2, [r3, #116]	@ 0x74
 8003610:	687b      	ldr	r3, [r7, #4]
 8003612:	2200      	movs	r2, #0
 8003614:	655a      	str	r2, [r3, #84]	@ 0x54
 8003616:	687b      	ldr	r3, [r7, #4]
 8003618:	2201      	movs	r2, #1
 800361a:	f883 2035 	strb.w	r2, [r3, #53]	@ 0x35
 800361e:	2300      	movs	r3, #0
 8003620:	4618      	mov	r0, r3
 8003622:	3718      	adds	r7, #24
 8003624:	46bd      	mov	sp, r7
 8003626:	bd80      	pop	{r7, pc}

08003628 <HAL_DMA_Start_IT>:
 8003628:	b580      	push	{r7, lr}
 800362a:	b086      	sub	sp, #24
 800362c:	af00      	add	r7, sp, #0
 800362e:	60f8      	str	r0, [r7, #12]
 8003630:	60b9      	str	r1, [r7, #8]
 8003632:	607a      	str	r2, [r7, #4]
 8003634:	603b      	str	r3, [r7, #0]
 8003636:	2300      	movs	r3, #0
 8003638:	75fb      	strb	r3, [r7, #23]
 800363a:	68fb      	ldr	r3, [r7, #12]
 800363c:	2b00      	cmp	r3, #0
 800363e:	d101      	bne.n	8003644 <HAL_DMA_Start_IT+0x1c>
 8003640:	2301      	movs	r3, #1
 8003642:	e226      	b.n	8003a92 <HAL_DMA_Start_IT+0x46a>
 8003644:	68fb      	ldr	r3, [r7, #12]
 8003646:	f893 3034 	ldrb.w	r3, [r3, #52]	@ 0x34
 800364a:	2b01      	cmp	r3, #1
 800364c:	d101      	bne.n	8003652 <HAL_DMA_Start_IT+0x2a>
 800364e:	2302      	movs	r3, #2
 8003650:	e21f      	b.n	8003a92 <HAL_DMA_Start_IT+0x46a>
 8003652:	68fb      	ldr	r3, [r7, #12]
 8003654:	2201      	movs	r2, #1
 8003656:	f883 2034 	strb.w	r2, [r3, #52]	@ 0x34
 800365a:	68fb      	ldr	r3, [r7, #12]
 800365c:	f893 3035 	ldrb.w	r3, [r3, #53]	@ 0x35
 8003660:	b2db      	uxtb	r3, r3
 8003662:	2b01      	cmp	r3, #1
 8003664:	f040 820a 	bne.w	8003a7c <HAL_DMA_Start_IT+0x454>
 8003668:	68fb      	ldr	r3, [r7, #12]
 800366a:	2202      	movs	r2, #2
 800366c:	f883 2035 	strb.w	r2, [r3, #53]	@ 0x35
 8003670:	68fb      	ldr	r3, [r7, #12]
 8003672:	2200      	movs	r2, #0
 8003674:	655a      	str	r2, [r3, #84]	@ 0x54
 8003676:	68fb      	ldr	r3, [r7, #12]
 8003678:	681b      	ldr	r3, [r3, #0]
 800367a:	4a68      	ldr	r2, [pc, #416]	@ (800381c <HAL_DMA_Start_IT+0x1f4>)
 800367c:	4293      	cmp	r3, r2
 800367e:	d04a      	beq.n	8003716 <HAL_DMA_Start_IT+0xee>
 8003680:	68fb      	ldr	r3, [r7, #12]
 8003682:	681b      	ldr	r3, [r3, #0]
 8003684:	4a66      	ldr	r2, [pc, #408]	@ (8003820 <HAL_DMA_Start_IT+0x1f8>)
 8003686:	4293      	cmp	r3, r2
 8003688:	d045      	beq.n	8003716 <HAL_DMA_Start_IT+0xee>
 800368a:	68fb      	ldr	r3, [r7, #12]
 800368c:	681b      	ldr	r3, [r3, #0]
 800368e:	4a65      	ldr	r2, [pc, #404]	@ (8003824 <HAL_DMA_Start_IT+0x1fc>)
 8003690:	4293      	cmp	r3, r2
 8003692:	d040      	beq.n	8003716 <HAL_DMA_Start_IT+0xee>
 8003694:	68fb      	ldr	r3, [r7, #12]
 8003696:	681b      	ldr	r3, [r3, #0]
 8003698:	4a63      	ldr	r2, [pc, #396]	@ (8003828 <HAL_DMA_Start_IT+0x200>)
 800369a:	4293      	cmp	r3, r2
 800369c:	d03b      	beq.n	8003716 <HAL_DMA_Start_IT+0xee>
 800369e:	68fb      	ldr	r3, [r7, #12]
 80036a0:	681b      	ldr	r3, [r3, #0]
 80036a2:	4a62      	ldr	r2, [pc, #392]	@ (800382c <HAL_DMA_Start_IT+0x204>)
 80036a4:	4293      	cmp	r3, r2
 80036a6:	d036      	beq.n	8003716 <HAL_DMA_Start_IT+0xee>
 80036a8:	68fb      	ldr	r3, [r7, #12]
 80036aa:	681b      	ldr	r3, [r3, #0]
 80036ac:	4a60      	ldr	r2, [pc, #384]	@ (8003830 <HAL_DMA_Start_IT+0x208>)
 80036ae:	4293      	cmp	r3, r2
 80036b0:	d031      	beq.n	8003716 <HAL_DMA_Start_IT+0xee>
 80036b2:	68fb      	ldr	r3, [r7, #12]
 80036b4:	681b      	ldr	r3, [r3, #0]
 80036b6:	4a5f      	ldr	r2, [pc, #380]	@ (8003834 <HAL_DMA_Start_IT+0x20c>)
 80036b8:	4293      	cmp	r3, r2
 80036ba:	d02c      	beq.n	8003716 <HAL_DMA_Start_IT+0xee>
 80036bc:	68fb      	ldr	r3, [r7, #12]
 80036be:	681b      	ldr	r3, [r3, #0]
 80036c0:	4a5d      	ldr	r2, [pc, #372]	@ (8003838 <HAL_DMA_Start_IT+0x210>)
 80036c2:	4293      	cmp	r3, r2
 80036c4:	d027      	beq.n	8003716 <HAL_DMA_Start_IT+0xee>
 80036c6:	68fb      	ldr	r3, [r7, #12]
 80036c8:	681b      	ldr	r3, [r3, #0]
 80036ca:	4a5c      	ldr	r2, [pc, #368]	@ (800383c <HAL_DMA_Start_IT+0x214>)
 80036cc:	4293      	cmp	r3, r2
 80036ce:	d022      	beq.n	8003716 <HAL_DMA_Start_IT+0xee>
 80036d0:	68fb      	ldr	r3, [r7, #12]
 80036d2:	681b      	ldr	r3, [r3, #0]
 80036d4:	4a5a      	ldr	r2, [pc, #360]	@ (8003840 <HAL_DMA_Start_IT+0x218>)
 80036d6:	4293      	cmp	r3, r2
 80036d8:	d01d      	beq.n	8003716 <HAL_DMA_Start_IT+0xee>
 80036da:	68fb      	ldr	r3, [r7, #12]
 80036dc:	681b      	ldr	r3, [r3, #0]
 80036de:	4a59      	ldr	r2, [pc, #356]	@ (8003844 <HAL_DMA_Start_IT+0x21c>)
 80036e0:	4293      	cmp	r3, r2
 80036e2:	d018      	beq.n	8003716 <HAL_DMA_Start_IT+0xee>
 80036e4:	68fb      	ldr	r3, [r7, #12]
 80036e6:	681b      	ldr	r3, [r3, #0]
 80036e8:	4a57      	ldr	r2, [pc, #348]	@ (8003848 <HAL_DMA_Start_IT+0x220>)
 80036ea:	4293      	cmp	r3, r2
 80036ec:	d013      	beq.n	8003716 <HAL_DMA_Start_IT+0xee>
 80036ee:	68fb      	ldr	r3, [r7, #12]
 80036f0:	681b      	ldr	r3, [r3, #0]
 80036f2:	4a56      	ldr	r2, [pc, #344]	@ (800384c <HAL_DMA_Start_IT+0x224>)
 80036f4:	4293      	cmp	r3, r2
 80036f6:	d00e      	beq.n	8003716 <HAL_DMA_Start_IT+0xee>
 80036f8:	68fb      	ldr	r3, [r7, #12]
 80036fa:	681b      	ldr	r3, [r3, #0]
 80036fc:	4a54      	ldr	r2, [pc, #336]	@ (8003850 <HAL_DMA_Start_IT+0x228>)
 80036fe:	4293      	cmp	r3, r2
 8003700:	d009      	beq.n	8003716 <HAL_DMA_Start_IT+0xee>
 8003702:	68fb      	ldr	r3, [r7, #12]
 8003704:	681b      	ldr	r3, [r3, #0]
 8003706:	4a53      	ldr	r2, [pc, #332]	@ (8003854 <HAL_DMA_Start_IT+0x22c>)
 8003708:	4293      	cmp	r3, r2
 800370a:	d004      	beq.n	8003716 <HAL_DMA_Start_IT+0xee>
 800370c:	68fb      	ldr	r3, [r7, #12]
 800370e:	681b      	ldr	r3, [r3, #0]
 8003710:	4a51      	ldr	r2, [pc, #324]	@ (8003858 <HAL_DMA_Start_IT+0x230>)
 8003712:	4293      	cmp	r3, r2
 8003714:	d108      	bne.n	8003728 <HAL_DMA_Start_IT+0x100>
 8003716:	68fb      	ldr	r3, [r7, #12]
 8003718:	681b      	ldr	r3, [r3, #0]
 800371a:	681a      	ldr	r2, [r3, #0]
 800371c:	68fb      	ldr	r3, [r7, #12]
 800371e:	681b      	ldr	r3, [r3, #0]
 8003720:	f022 0201 	bic.w	r2, r2, #1
 8003724:	601a      	str	r2, [r3, #0]
 8003726:	e007      	b.n	8003738 <HAL_DMA_Start_IT+0x110>
 8003728:	68fb      	ldr	r3, [r7, #12]
 800372a:	681b      	ldr	r3, [r3, #0]
 800372c:	681a      	ldr	r2, [r3, #0]
 800372e:	68fb      	ldr	r3, [r7, #12]
 8003730:	681b      	ldr	r3, [r3, #0]
 8003732:	f022 0201 	bic.w	r2, r2, #1
 8003736:	601a      	str	r2, [r3, #0]
 8003738:	683b      	ldr	r3, [r7, #0]
 800373a:	687a      	ldr	r2, [r7, #4]
 800373c:	68b9      	ldr	r1, [r7, #8]
 800373e:	68f8      	ldr	r0, [r7, #12]
 8003740:	f001 fea2 	bl	8005488 <DMA_SetConfig>
 8003744:	68fb      	ldr	r3, [r7, #12]
 8003746:	681b      	ldr	r3, [r3, #0]
 8003748:	4a34      	ldr	r2, [pc, #208]	@ (800381c <HAL_DMA_Start_IT+0x1f4>)
 800374a:	4293      	cmp	r3, r2
 800374c:	d04a      	beq.n	80037e4 <HAL_DMA_Start_IT+0x1bc>
 800374e:	68fb      	ldr	r3, [r7, #12]
 8003750:	681b      	ldr	r3, [r3, #0]
 8003752:	4a33      	ldr	r2, [pc, #204]	@ (8003820 <HAL_DMA_Start_IT+0x1f8>)
 8003754:	4293      	cmp	r3, r2
 8003756:	d045      	beq.n	80037e4 <HAL_DMA_Start_IT+0x1bc>
 8003758:	68fb      	ldr	r3, [r7, #12]
 800375a:	681b      	ldr	r3, [r3, #0]
 800375c:	4a31      	ldr	r2, [pc, #196]	@ (8003824 <HAL_DMA_Start_IT+0x1fc>)
 800375e:	4293      	cmp	r3, r2
 8003760:	d040      	beq.n	80037e4 <HAL_DMA_Start_IT+0x1bc>
 8003762:	68fb      	ldr	r3, [r7, #12]
 8003764:	681b      	ldr	r3, [r3, #0]
 8003766:	4a30      	ldr	r2, [pc, #192]	@ (8003828 <HAL_DMA_Start_IT+0x200>)
 8003768:	4293      	cmp	r3, r2
 800376a:	d03b      	beq.n	80037e4 <HAL_DMA_Start_IT+0x1bc>
 800376c:	68fb      	ldr	r3, [r7, #12]
 800376e:	681b      	ldr	r3, [r3, #0]
 8003770:	4a2e      	ldr	r2, [pc, #184]	@ (800382c <HAL_DMA_Start_IT+0x204>)
 8003772:	4293      	cmp	r3, r2
 8003774:	d036      	beq.n	80037e4 <HAL_DMA_Start_IT+0x1bc>
 8003776:	68fb      	ldr	r3, [r7, #12]
 8003778:	681b      	ldr	r3, [r3, #0]
 800377a:	4a2d      	ldr	r2, [pc, #180]	@ (8003830 <HAL_DMA_Start_IT+0x208>)
 800377c:	4293      	cmp	r3, r2
 800377e:	d031      	beq.n	80037e4 <HAL_DMA_Start_IT+0x1bc>
 8003780:	68fb      	ldr	r3, [r7, #12]
 8003782:	681b      	ldr	r3, [r3, #0]
 8003784:	4a2b      	ldr	r2, [pc, #172]	@ (8003834 <HAL_DMA_Start_IT+0x20c>)
 8003786:	4293      	cmp	r3, r2
 8003788:	d02c      	beq.n	80037e4 <HAL_DMA_Start_IT+0x1bc>
 800378a:	68fb      	ldr	r3, [r7, #12]
 800378c:	681b      	ldr	r3, [r3, #0]
 800378e:	4a2a      	ldr	r2, [pc, #168]	@ (8003838 <HAL_DMA_Start_IT+0x210>)
 8003790:	4293      	cmp	r3, r2
 8003792:	d027      	beq.n	80037e4 <HAL_DMA_Start_IT+0x1bc>
 8003794:	68fb      	ldr	r3, [r7, #12]
 8003796:	681b      	ldr	r3, [r3, #0]
 8003798:	4a28      	ldr	r2, [pc, #160]	@ (800383c <HAL_DMA_Start_IT+0x214>)
 800379a:	4293      	cmp	r3, r2
 800379c:	d022      	beq.n	80037e4 <HAL_DMA_Start_IT+0x1bc>
 800379e:	68fb      	ldr	r3, [r7, #12]
 80037a0:	681b      	ldr	r3, [r3, #0]
 80037a2:	4a27      	ldr	r2, [pc, #156]	@ (8003840 <HAL_DMA_Start_IT+0x218>)
 80037a4:	4293      	cmp	r3, r2
 80037a6:	d01d      	beq.n	80037e4 <HAL_DMA_Start_IT+0x1bc>
 80037a8:	68fb      	ldr	r3, [r7, #12]
 80037aa:	681b      	ldr	r3, [r3, #0]
 80037ac:	4a25      	ldr	r2, [pc, #148]	@ (8003844 <HAL_DMA_Start_IT+0x21c>)
 80037ae:	4293      	cmp	r3, r2
 80037b0:	d018      	beq.n	80037e4 <HAL_DMA_Start_IT+0x1bc>
 80037b2:	68fb      	ldr	r3, [r7, #12]
 80037b4:	681b      	ldr	r3, [r3, #0]
 80037b6:	4a24      	ldr	r2, [pc, #144]	@ (8003848 <HAL_DMA_Start_IT+0x220>)
 80037b8:	4293      	cmp	r3, r2
 80037ba:	d013      	beq.n	80037e4 <HAL_DMA_Start_IT+0x1bc>
 80037bc:	68fb      	ldr	r3, [r7, #12]
 80037be:	681b      	ldr	r3, [r3, #0]
 80037c0:	4a22      	ldr	r2, [pc, #136]	@ (800384c <HAL_DMA_Start_IT+0x224>)
 80037c2:	4293      	cmp	r3, r2
 80037c4:	d00e      	beq.n	80037e4 <HAL_DMA_Start_IT+0x1bc>
 80037c6:	68fb      	ldr	r3, [r7, #12]
 80037c8:	681b      	ldr	r3, [r3, #0]
 80037ca:	4a21      	ldr	r2, [pc, #132]	@ (8003850 <HAL_DMA_Start_IT+0x228>)
 80037cc:	4293      	cmp	r3, r2
 80037ce:	d009      	beq.n	80037e4 <HAL_DMA_Start_IT+0x1bc>
 80037d0:	68fb      	ldr	r3, [r7, #12]
 80037d2:	681b      	ldr	r3, [r3, #0]
 80037d4:	4a1f      	ldr	r2, [pc, #124]	@ (8003854 <HAL_DMA_Start_IT+0x22c>)
 80037d6:	4293      	cmp	r3, r2
 80037d8:	d004      	beq.n	80037e4 <HAL_DMA_Start_IT+0x1bc>
 80037da:	68fb      	ldr	r3, [r7, #12]
 80037dc:	681b      	ldr	r3, [r3, #0]
 80037de:	4a1e      	ldr	r2, [pc, #120]	@ (8003858 <HAL_DMA_Start_IT+0x230>)
 80037e0:	4293      	cmp	r3, r2
 80037e2:	d101      	bne.n	80037e8 <HAL_DMA_Start_IT+0x1c0>
 80037e4:	2301      	movs	r3, #1
 80037e6:	e000      	b.n	80037ea <HAL_DMA_Start_IT+0x1c2>
 80037e8:	2300      	movs	r3, #0
 80037ea:	2b00      	cmp	r3, #0
 80037ec:	d036      	beq.n	800385c <HAL_DMA_Start_IT+0x234>
 80037ee:	68fb      	ldr	r3, [r7, #12]
 80037f0:	681b      	ldr	r3, [r3, #0]
 80037f2:	681b      	ldr	r3, [r3, #0]
 80037f4:	f023 021e 	bic.w	r2, r3, #30
 80037f8:	68fb      	ldr	r3, [r7, #12]
 80037fa:	681b      	ldr	r3, [r3, #0]
 80037fc:	f042 0216 	orr.w	r2, r2, #22
 8003800:	601a      	str	r2, [r3, #0]
 8003802:	68fb      	ldr	r3, [r7, #12]
 8003804:	6c1b      	ldr	r3, [r3, #64]	@ 0x40
 8003806:	2b00      	cmp	r3, #0
 8003808:	d03e      	beq.n	8003888 <HAL_DMA_Start_IT+0x260>
 800380a:	68fb      	ldr	r3, [r7, #12]
 800380c:	681b      	ldr	r3, [r3, #0]
 800380e:	681a      	ldr	r2, [r3, #0]
 8003810:	68fb      	ldr	r3, [r7, #12]
 8003812:	681b      	ldr	r3, [r3, #0]
 8003814:	f042 0208 	orr.w	r2, r2, #8
 8003818:	601a      	str	r2, [r3, #0]
 800381a:	e035      	b.n	8003888 <HAL_DMA_Start_IT+0x260>
 800381c:	40020010 	.word	0x40020010
 8003820:	40020028 	.word	0x40020028
 8003824:	40020040 	.word	0x40020040
 8003828:	40020058 	.word	0x40020058
 800382c:	40020070 	.word	0x40020070
 8003830:	40020088 	.word	0x40020088
 8003834:	400200a0 	.word	0x400200a0
 8003838:	400200b8 	.word	0x400200b8
 800383c:	40020410 	.word	0x40020410
 8003840:	40020428 	.word	0x40020428
 8003844:	40020440 	.word	0x40020440
 8003848:	40020458 	.word	0x40020458
 800384c:	40020470 	.word	0x40020470
 8003850:	40020488 	.word	0x40020488
 8003854:	400204a0 	.word	0x400204a0
 8003858:	400204b8 	.word	0x400204b8
 800385c:	68fb      	ldr	r3, [r7, #12]
 800385e:	681b      	ldr	r3, [r3, #0]
 8003860:	681b      	ldr	r3, [r3, #0]
 8003862:	f023 020e 	bic.w	r2, r3, #14
 8003866:	68fb      	ldr	r3, [r7, #12]
 8003868:	681b      	ldr	r3, [r3, #0]
 800386a:	f042 020a 	orr.w	r2, r2, #10
 800386e:	601a      	str	r2, [r3, #0]
 8003870:	68fb      	ldr	r3, [r7, #12]
 8003872:	6c1b      	ldr	r3, [r3, #64]	@ 0x40
 8003874:	2b00      	cmp	r3, #0
 8003876:	d007      	beq.n	8003888 <HAL_DMA_Start_IT+0x260>
 8003878:	68fb      	ldr	r3, [r7, #12]
 800387a:	681b      	ldr	r3, [r3, #0]
 800387c:	681a      	ldr	r2, [r3, #0]
 800387e:	68fb      	ldr	r3, [r7, #12]
 8003880:	681b      	ldr	r3, [r3, #0]
 8003882:	f042 0204 	orr.w	r2, r2, #4
 8003886:	601a      	str	r2, [r3, #0]
 8003888:	68fb      	ldr	r3, [r7, #12]
 800388a:	681b      	ldr	r3, [r3, #0]
 800388c:	4a83      	ldr	r2, [pc, #524]	@ (8003a9c <HAL_DMA_Start_IT+0x474>)
 800388e:	4293      	cmp	r3, r2
 8003890:	d072      	beq.n	8003978 <HAL_DMA_Start_IT+0x350>
 8003892:	68fb      	ldr	r3, [r7, #12]
 8003894:	681b      	ldr	r3, [r3, #0]
 8003896:	4a82      	ldr	r2, [pc, #520]	@ (8003aa0 <HAL_DMA_Start_IT+0x478>)
 8003898:	4293      	cmp	r3, r2
 800389a:	d06d      	beq.n	8003978 <HAL_DMA_Start_IT+0x350>
 800389c:	68fb      	ldr	r3, [r7, #12]
 800389e:	681b      	ldr	r3, [r3, #0]
 80038a0:	4a80      	ldr	r2, [pc, #512]	@ (8003aa4 <HAL_DMA_Start_IT+0x47c>)
 80038a2:	4293      	cmp	r3, r2
 80038a4:	d068      	beq.n	8003978 <HAL_DMA_Start_IT+0x350>
 80038a6:	68fb      	ldr	r3, [r7, #12]
 80038a8:	681b      	ldr	r3, [r3, #0]
 80038aa:	4a7f      	ldr	r2, [pc, #508]	@ (8003aa8 <HAL_DMA_Start_IT+0x480>)
 80038ac:	4293      	cmp	r3, r2
 80038ae:	d063      	beq.n	8003978 <HAL_DMA_Start_IT+0x350>
 80038b0:	68fb      	ldr	r3, [r7, #12]
 80038b2:	681b      	ldr	r3, [r3, #0]
 80038b4:	4a7d      	ldr	r2, [pc, #500]	@ (8003aac <HAL_DMA_Start_IT+0x484>)
 80038b6:	4293      	cmp	r3, r2
 80038b8:	d05e      	beq.n	8003978 <HAL_DMA_Start_IT+0x350>
 80038ba:	68fb      	ldr	r3, [r7, #12]
 80038bc:	681b      	ldr	r3, [r3, #0]
 80038be:	4a7c      	ldr	r2, [pc, #496]	@ (8003ab0 <HAL_DMA_Start_IT+0x488>)
 80038c0:	4293      	cmp	r3, r2
 80038c2:	d059      	beq.n	8003978 <HAL_DMA_Start_IT+0x350>
 80038c4:	68fb      	ldr	r3, [r7, #12]
 80038c6:	681b      	ldr	r3, [r3, #0]
 80038c8:	4a7a      	ldr	r2, [pc, #488]	@ (8003ab4 <HAL_DMA_Start_IT+0x48c>)
 80038ca:	4293      	cmp	r3, r2
 80038cc:	d054      	beq.n	8003978 <HAL_DMA_Start_IT+0x350>
 80038ce:	68fb      	ldr	r3, [r7, #12]
 80038d0:	681b      	ldr	r3, [r3, #0]
 80038d2:	4a79      	ldr	r2, [pc, #484]	@ (8003ab8 <HAL_DMA_Start_IT+0x490>)
 80038d4:	4293      	cmp	r3, r2
 80038d6:	d04f      	beq.n	8003978 <HAL_DMA_Start_IT+0x350>
 80038d8:	68fb      	ldr	r3, [r7, #12]
 80038da:	681b      	ldr	r3, [r3, #0]
 80038dc:	4a77      	ldr	r2, [pc, #476]	@ (8003abc <HAL_DMA_Start_IT+0x494>)
 80038de:	4293      	cmp	r3, r2
 80038e0:	d04a      	beq.n	8003978 <HAL_DMA_Start_IT+0x350>
 80038e2:	68fb      	ldr	r3, [r7, #12]
 80038e4:	681b      	ldr	r3, [r3, #0]
 80038e6:	4a76      	ldr	r2, [pc, #472]	@ (8003ac0 <HAL_DMA_Start_IT+0x498>)
 80038e8:	4293      	cmp	r3, r2
 80038ea:	d045      	beq.n	8003978 <HAL_DMA_Start_IT+0x350>
 80038ec:	68fb      	ldr	r3, [r7, #12]
 80038ee:	681b      	ldr	r3, [r3, #0]
 80038f0:	4a74      	ldr	r2, [pc, #464]	@ (8003ac4 <HAL_DMA_Start_IT+0x49c>)
 80038f2:	4293      	cmp	r3, r2
 80038f4:	d040      	beq.n	8003978 <HAL_DMA_Start_IT+0x350>
 80038f6:	68fb      	ldr	r3, [r7, #12]
 80038f8:	681b      	ldr	r3, [r3, #0]
 80038fa:	4a73      	ldr	r2, [pc, #460]	@ (8003ac8 <HAL_DMA_Start_IT+0x4a0>)
 80038fc:	4293      	cmp	r3, r2
 80038fe:	d03b      	beq.n	8003978 <HAL_DMA_Start_IT+0x350>
 8003900:	68fb      	ldr	r3, [r7, #12]
 8003902:	681b      	ldr	r3, [r3, #0]
 8003904:	4a71      	ldr	r2, [pc, #452]	@ (8003acc <HAL_DMA_Start_IT+0x4a4>)
 8003906:	4293      	cmp	r3, r2
 8003908:	d036      	beq.n	8003978 <HAL_DMA_Start_IT+0x350>
 800390a:	68fb      	ldr	r3, [r7, #12]
 800390c:	681b      	ldr	r3, [r3, #0]
 800390e:	4a70      	ldr	r2, [pc, #448]	@ (8003ad0 <HAL_DMA_Start_IT+0x4a8>)
 8003910:	4293      	cmp	r3, r2
 8003912:	d031      	beq.n	8003978 <HAL_DMA_Start_IT+0x350>
 8003914:	68fb      	ldr	r3, [r7, #12]
 8003916:	681b      	ldr	r3, [r3, #0]
 8003918:	4a6e      	ldr	r2, [pc, #440]	@ (8003ad4 <HAL_DMA_Start_IT+0x4ac>)
 800391a:	4293      	cmp	r3, r2
 800391c:	d02c      	beq.n	8003978 <HAL_DMA_Start_IT+0x350>
 800391e:	68fb      	ldr	r3, [r7, #12]
 8003920:	681b      	ldr	r3, [r3, #0]
 8003922:	4a6d      	ldr	r2, [pc, #436]	@ (8003ad8 <HAL_DMA_Start_IT+0x4b0>)
 8003924:	4293      	cmp	r3, r2
 8003926:	d027      	beq.n	8003978 <HAL_DMA_Start_IT+0x350>
 8003928:	68fb      	ldr	r3, [r7, #12]
 800392a:	681b      	ldr	r3, [r3, #0]
 800392c:	4a6b      	ldr	r2, [pc, #428]	@ (8003adc <HAL_DMA_Start_IT+0x4b4>)
 800392e:	4293      	cmp	r3, r2
 8003930:	d022      	beq.n	8003978 <HAL_DMA_Start_IT+0x350>
 8003932:	68fb      	ldr	r3, [r7, #12]
 8003934:	681b      	ldr	r3, [r3, #0]
 8003936:	4a6a      	ldr	r2, [pc, #424]	@ (8003ae0 <HAL_DMA_Start_IT+0x4b8>)
 8003938:	4293      	cmp	r3, r2
 800393a:	d01d      	beq.n	8003978 <HAL_DMA_Start_IT+0x350>
 800393c:	68fb      	ldr	r3, [r7, #12]
 800393e:	681b      	ldr	r3, [r3, #0]
 8003940:	4a68      	ldr	r2, [pc, #416]	@ (8003ae4 <HAL_DMA_Start_IT+0x4bc>)
 8003942:	4293      	cmp	r3, r2
 8003944:	d018      	beq.n	8003978 <HAL_DMA_Start_IT+0x350>
 8003946:	68fb      	ldr	r3, [r7, #12]
 8003948:	681b      	ldr	r3, [r3, #0]
 800394a:	4a67      	ldr	r2, [pc, #412]	@ (8003ae8 <HAL_DMA_Start_IT+0x4c0>)
 800394c:	4293      	cmp	r3, r2
 800394e:	d013      	beq.n	8003978 <HAL_DMA_Start_IT+0x350>
 8003950:	68fb      	ldr	r3, [r7, #12]
 8003952:	681b      	ldr	r3, [r3, #0]
 8003954:	4a65      	ldr	r2, [pc, #404]	@ (8003aec <HAL_DMA_Start_IT+0x4c4>)
 8003956:	4293      	cmp	r3, r2
 8003958:	d00e      	beq.n	8003978 <HAL_DMA_Start_IT+0x350>
 800395a:	68fb      	ldr	r3, [r7, #12]
 800395c:	681b      	ldr	r3, [r3, #0]
 800395e:	4a64      	ldr	r2, [pc, #400]	@ (8003af0 <HAL_DMA_Start_IT+0x4c8>)
 8003960:	4293      	cmp	r3, r2
 8003962:	d009      	beq.n	8003978 <HAL_DMA_Start_IT+0x350>
 8003964:	68fb      	ldr	r3, [r7, #12]
 8003966:	681b      	ldr	r3, [r3, #0]
 8003968:	4a62      	ldr	r2, [pc, #392]	@ (8003af4 <HAL_DMA_Start_IT+0x4cc>)
 800396a:	4293      	cmp	r3, r2
 800396c:	d004      	beq.n	8003978 <HAL_DMA_Start_IT+0x350>
 800396e:	68fb      	ldr	r3, [r7, #12]
 8003970:	681b      	ldr	r3, [r3, #0]
 8003972:	4a61      	ldr	r2, [pc, #388]	@ (8003af8 <HAL_DMA_Start_IT+0x4d0>)
 8003974:	4293      	cmp	r3, r2
 8003976:	d101      	bne.n	800397c <HAL_DMA_Start_IT+0x354>
 8003978:	2301      	movs	r3, #1
 800397a:	e000      	b.n	800397e <HAL_DMA_Start_IT+0x356>
 800397c:	2300      	movs	r3, #0
 800397e:	2b00      	cmp	r3, #0
 8003980:	d01a      	beq.n	80039b8 <HAL_DMA_Start_IT+0x390>
 8003982:	68fb      	ldr	r3, [r7, #12]
 8003984:	6e1b      	ldr	r3, [r3, #96]	@ 0x60
 8003986:	681b      	ldr	r3, [r3, #0]
 8003988:	f403 3380 	and.w	r3, r3, #65536	@ 0x10000
 800398c:	2b00      	cmp	r3, #0
 800398e:	d007      	beq.n	80039a0 <HAL_DMA_Start_IT+0x378>
 8003990:	68fb      	ldr	r3, [r7, #12]
 8003992:	6e1b      	ldr	r3, [r3, #96]	@ 0x60
 8003994:	681a      	ldr	r2, [r3, #0]
 8003996:	68fb      	ldr	r3, [r7, #12]
 8003998:	6e1b      	ldr	r3, [r3, #96]	@ 0x60
 800399a:	f442 7280 	orr.w	r2, r2, #256	@ 0x100
 800399e:	601a      	str	r2, [r3, #0]
 80039a0:	68fb      	ldr	r3, [r7, #12]
 80039a2:	6edb      	ldr	r3, [r3, #108]	@ 0x6c
 80039a4:	2b00      	cmp	r3, #0
 80039a6:	d007      	beq.n	80039b8 <HAL_DMA_Start_IT+0x390>
 80039a8:	68fb      	ldr	r3, [r7, #12]
 80039aa:	6edb      	ldr	r3, [r3, #108]	@ 0x6c
 80039ac:	681a      	ldr	r2, [r3, #0]
 80039ae:	68fb      	ldr	r3, [r7, #12]
 80039b0:	6edb      	ldr	r3, [r3, #108]	@ 0x6c
 80039b2:	f442 7280 	orr.w	r2, r2, #256	@ 0x100
 80039b6:	601a      	str	r2, [r3, #0]
 80039b8:	68fb      	ldr	r3, [r7, #12]
 80039ba:	681b      	ldr	r3, [r3, #0]
 80039bc:	4a37      	ldr	r2, [pc, #220]	@ (8003a9c <HAL_DMA_Start_IT+0x474>)
 80039be:	4293      	cmp	r3, r2
 80039c0:	d04a      	beq.n	8003a58 <HAL_DMA_Start_IT+0x430>
 80039c2:	68fb      	ldr	r3, [r7, #12]
 80039c4:	681b      	ldr	r3, [r3, #0]
 80039c6:	4a36      	ldr	r2, [pc, #216]	@ (8003aa0 <HAL_DMA_Start_IT+0x478>)
 80039c8:	4293      	cmp	r3, r2
 80039ca:	d045      	beq.n	8003a58 <HAL_DMA_Start_IT+0x430>
 80039cc:	68fb      	ldr	r3, [r7, #12]
 80039ce:	681b      	ldr	r3, [r3, #0]
 80039d0:	4a34      	ldr	r2, [pc, #208]	@ (8003aa4 <HAL_DMA_Start_IT+0x47c>)
 80039d2:	4293      	cmp	r3, r2
 80039d4:	d040      	beq.n	8003a58 <HAL_DMA_Start_IT+0x430>
 80039d6:	68fb      	ldr	r3, [r7, #12]
 80039d8:	681b      	ldr	r3, [r3, #0]
 80039da:	4a33      	ldr	r2, [pc, #204]	@ (8003aa8 <HAL_DMA_Start_IT+0x480>)
 80039dc:	4293      	cmp	r3, r2
 80039de:	d03b      	beq.n	8003a58 <HAL_DMA_Start_IT+0x430>
 80039e0:	68fb      	ldr	r3, [r7, #12]
 80039e2:	681b      	ldr	r3, [r3, #0]
 80039e4:	4a31      	ldr	r2, [pc, #196]	@ (8003aac <HAL_DMA_Start_IT+0x484>)
 80039e6:	4293      	cmp	r3, r2
 80039e8:	d036      	beq.n	8003a58 <HAL_DMA_Start_IT+0x430>
 80039ea:	68fb      	ldr	r3, [r7, #12]
 80039ec:	681b      	ldr	r3, [r3, #0]
 80039ee:	4a30      	ldr	r2, [pc, #192]	@ (8003ab0 <HAL_DMA_Start_IT+0x488>)
 80039f0:	4293      	cmp	r3, r2
 80039f2:	d031      	beq.n	8003a58 <HAL_DMA_Start_IT+0x430>
 80039f4:	68fb      	ldr	r3, [r7, #12]
 80039f6:	681b      	ldr	r3, [r3, #0]
 80039f8:	4a2e      	ldr	r2, [pc, #184]	@ (8003ab4 <HAL_DMA_Start_IT+0x48c>)
 80039fa:	4293      	cmp	r3, r2
 80039fc:	d02c      	beq.n	8003a58 <HAL_DMA_Start_IT+0x430>
 80039fe:	68fb      	ldr	r3, [r7, #12]
 8003a00:	681b      	ldr	r3, [r3, #0]
 8003a02:	4a2d      	ldr	r2, [pc, #180]	@ (8003ab8 <HAL_DMA_Start_IT+0x490>)
 8003a04:	4293      	cmp	r3, r2
 8003a06:	d027      	beq.n	8003a58 <HAL_DMA_Start_IT+0x430>
 8003a08:	68fb      	ldr	r3, [r7, #12]
 8003a0a:	681b      	ldr	r3, [r3, #0]
 8003a0c:	4a2b      	ldr	r2, [pc, #172]	@ (8003abc <HAL_DMA_Start_IT+0x494>)
 8003a0e:	4293      	cmp	r3, r2
 8003a10:	d022      	beq.n	8003a58 <HAL_DMA_Start_IT+0x430>
 8003a12:	68fb      	ldr	r3, [r7, #12]
 8003a14:	681b      	ldr	r3, [r3, #0]
 8003a16:	4a2a      	ldr	r2, [pc, #168]	@ (8003ac0 <HAL_DMA_Start_IT+0x498>)
 8003a18:	4293      	cmp	r3, r2
 8003a1a:	d01d      	beq.n	8003a58 <HAL_DMA_Start_IT+0x430>
 8003a1c:	68fb      	ldr	r3, [r7, #12]
 8003a1e:	681b      	ldr	r3, [r3, #0]
 8003a20:	4a28      	ldr	r2, [pc, #160]	@ (8003ac4 <HAL_DMA_Start_IT+0x49c>)
 8003a22:	4293      	cmp	r3, r2
 8003a24:	d018      	beq.n	8003a58 <HAL_DMA_Start_IT+0x430>
 8003a26:	68fb      	ldr	r3, [r7, #12]
 8003a28:	681b      	ldr	r3, [r3, #0]
 8003a2a:	4a27      	ldr	r2, [pc, #156]	@ (8003ac8 <HAL_DMA_Start_IT+0x4a0>)
 8003a2c:	4293      	cmp	r3, r2
 8003a2e:	d013      	beq.n	8003a58 <HAL_DMA_Start_IT+0x430>
 8003a30:	68fb      	ldr	r3, [r7, #12]
 8003a32:	681b      	ldr	r3, [r3, #0]
 8003a34:	4a25      	ldr	r2, [pc, #148]	@ (8003acc <HAL_DMA_Start_IT+0x4a4>)
 8003a36:	4293      	cmp	r3, r2
 8003a38:	d00e      	beq.n	8003a58 <HAL_DMA_Start_IT+0x430>
 8003a3a:	68fb      	ldr	r3, [r7, #12]
 8003a3c:	681b      	ldr	r3, [r3, #0]
 8003a3e:	4a24      	ldr	r2, [pc, #144]	@ (8003ad0 <HAL_DMA_Start_IT+0x4a8>)
 8003a40:	4293      	cmp	r3, r2
 8003a42:	d009      	beq.n	8003a58 <HAL_DMA_Start_IT+0x430>
 8003a44:	68fb      	ldr	r3, [r7, #12]
 8003a46:	681b      	ldr	r3, [r3, #0]
 8003a48:	4a22      	ldr	r2, [pc, #136]	@ (8003ad4 <HAL_DMA_Start_IT+0x4ac>)
 8003a4a:	4293      	cmp	r3, r2
 8003a4c:	d004      	beq.n	8003a58 <HAL_DMA_Start_IT+0x430>
 8003a4e:	68fb      	ldr	r3, [r7, #12]
 8003a50:	681b      	ldr	r3, [r3, #0]
 8003a52:	4a21      	ldr	r2, [pc, #132]	@ (8003ad8 <HAL_DMA_Start_IT+0x4b0>)
 8003a54:	4293      	cmp	r3, r2
 8003a56:	d108      	bne.n	8003a6a <HAL_DMA_Start_IT+0x442>
 8003a58:	68fb      	ldr	r3, [r7, #12]
 8003a5a:	681b      	ldr	r3, [r3, #0]
 8003a5c:	681a      	ldr	r2, [r3, #0]
 8003a5e:	68fb      	ldr	r3, [r7, #12]
 8003a60:	681b      	ldr	r3, [r3, #0]
 8003a62:	f042 0201 	orr.w	r2, r2, #1
 8003a66:	601a      	str	r2, [r3, #0]
 8003a68:	e012      	b.n	8003a90 <HAL_DMA_Start_IT+0x468>
 8003a6a:	68fb      	ldr	r3, [r7, #12]
 8003a6c:	681b      	ldr	r3, [r3, #0]
 8003a6e:	681a      	ldr	r2, [r3, #0]
 8003a70:	68fb      	ldr	r3, [r7, #12]
 8003a72:	681b      	ldr	r3, [r3, #0]
 8003a74:	f042 0201 	orr.w	r2, r2, #1
 8003a78:	601a      	str	r2, [r3, #0]
 8003a7a:	e009      	b.n	8003a90 <HAL_DMA_Start_IT+0x468>
 8003a7c:	68fb      	ldr	r3, [r7, #12]
 8003a7e:	f44f 6200 	mov.w	r2, #2048	@ 0x800
 8003a82:	655a      	str	r2, [r3, #84]	@ 0x54
 8003a84:	68fb      	ldr	r3, [r7, #12]
 8003a86:	2200      	movs	r2, #0
 8003a88:	f883 2034 	strb.w	r2, [r3, #52]	@ 0x34
 8003a8c:	2301      	movs	r3, #1
 8003a8e:	75fb      	strb	r3, [r7, #23]
 8003a90:	7dfb      	ldrb	r3, [r7, #23]
 8003a92:	4618      	mov	r0, r3
 8003a94:	3718      	adds	r7, #24
 8003a96:	46bd      	mov	sp, r7
 8003a98:	bd80      	pop	{r7, pc}
 8003a9a:	bf00      	nop
 8003a9c:	40020010 	.word	0x40020010
 8003aa0:	40020028 	.word	0x40020028
 8003aa4:	40020040 	.word	0x40020040
 8003aa8:	40020058 	.word	0x40020058
 8003aac:	40020070 	.word	0x40020070
 8003ab0:	40020088 	.word	0x40020088
 8003ab4:	400200a0 	.word	0x400200a0
 8003ab8:	400200b8 	.word	0x400200b8
 8003abc:	40020410 	.word	0x40020410
 8003ac0:	40020428 	.word	0x40020428
 8003ac4:	40020440 	.word	0x40020440
 8003ac8:	40020458 	.word	0x40020458
 8003acc:	40020470 	.word	0x40020470
 8003ad0:	40020488 	.word	0x40020488
 8003ad4:	400204a0 	.word	0x400204a0
 8003ad8:	400204b8 	.word	0x400204b8
 8003adc:	58025408 	.word	0x58025408
 8003ae0:	5802541c 	.word	0x5802541c
 8003ae4:	58025430 	.word	0x58025430
 8003ae8:	58025444 	.word	0x58025444
 8003aec:	58025458 	.word	0x58025458
 8003af0:	5802546c 	.word	0x5802546c
 8003af4:	58025480 	.word	0x58025480
 8003af8:	58025494 	.word	0x58025494

08003afc <HAL_DMA_Abort>:
 8003afc:	b580      	push	{r7, lr}
 8003afe:	b086      	sub	sp, #24
 8003b00:	af00      	add	r7, sp, #0
 8003b02:	6078      	str	r0, [r7, #4]
 8003b04:	f7fd fb88 	bl	8001218 <HAL_GetTick>
 8003b08:	6138      	str	r0, [r7, #16]
 8003b0a:	687b      	ldr	r3, [r7, #4]
 8003b0c:	2b00      	cmp	r3, #0
 8003b0e:	d101      	bne.n	8003b14 <HAL_DMA_Abort+0x18>
 8003b10:	2301      	movs	r3, #1
 8003b12:	e2dc      	b.n	80040ce <HAL_DMA_Abort+0x5d2>
 8003b14:	687b      	ldr	r3, [r7, #4]
 8003b16:	f893 3035 	ldrb.w	r3, [r3, #53]	@ 0x35
 8003b1a:	b2db      	uxtb	r3, r3
 8003b1c:	2b02      	cmp	r3, #2
 8003b1e:	d008      	beq.n	8003b32 <HAL_DMA_Abort+0x36>
 8003b20:	687b      	ldr	r3, [r7, #4]
 8003b22:	2280      	movs	r2, #128	@ 0x80
 8003b24:	655a      	str	r2, [r3, #84]	@ 0x54
 8003b26:	687b      	ldr	r3, [r7, #4]
 8003b28:	2200      	movs	r2, #0
 8003b2a:	f883 2034 	strb.w	r2, [r3, #52]	@ 0x34
 8003b2e:	2301      	movs	r3, #1
 8003b30:	e2cd      	b.n	80040ce <HAL_DMA_Abort+0x5d2>
 8003b32:	687b      	ldr	r3, [r7, #4]
 8003b34:	681b      	ldr	r3, [r3, #0]
 8003b36:	4a76      	ldr	r2, [pc, #472]	@ (8003d10 <HAL_DMA_Abort+0x214>)
 8003b38:	4293      	cmp	r3, r2
 8003b3a:	d04a      	beq.n	8003bd2 <HAL_DMA_Abort+0xd6>
 8003b3c:	687b      	ldr	r3, [r7, #4]
 8003b3e:	681b      	ldr	r3, [r3, #0]
 8003b40:	4a74      	ldr	r2, [pc, #464]	@ (8003d14 <HAL_DMA_Abort+0x218>)
 8003b42:	4293      	cmp	r3, r2
 8003b44:	d045      	beq.n	8003bd2 <HAL_DMA_Abort+0xd6>
 8003b46:	687b      	ldr	r3, [r7, #4]
 8003b48:	681b      	ldr	r3, [r3, #0]
 8003b4a:	4a73      	ldr	r2, [pc, #460]	@ (8003d18 <HAL_DMA_Abort+0x21c>)
 8003b4c:	4293      	cmp	r3, r2
 8003b4e:	d040      	beq.n	8003bd2 <HAL_DMA_Abort+0xd6>
 8003b50:	687b      	ldr	r3, [r7, #4]
 8003b52:	681b      	ldr	r3, [r3, #0]
 8003b54:	4a71      	ldr	r2, [pc, #452]	@ (8003d1c <HAL_DMA_Abort+0x220>)
 8003b56:	4293      	cmp	r3, r2
 8003b58:	d03b      	beq.n	8003bd2 <HAL_DMA_Abort+0xd6>
 8003b5a:	687b      	ldr	r3, [r7, #4]
 8003b5c:	681b      	ldr	r3, [r3, #0]
 8003b5e:	4a70      	ldr	r2, [pc, #448]	@ (8003d20 <HAL_DMA_Abort+0x224>)
 8003b60:	4293      	cmp	r3, r2
 8003b62:	d036      	beq.n	8003bd2 <HAL_DMA_Abort+0xd6>
 8003b64:	687b      	ldr	r3, [r7, #4]
 8003b66:	681b      	ldr	r3, [r3, #0]
 8003b68:	4a6e      	ldr	r2, [pc, #440]	@ (8003d24 <HAL_DMA_Abort+0x228>)
 8003b6a:	4293      	cmp	r3, r2
 8003b6c:	d031      	beq.n	8003bd2 <HAL_DMA_Abort+0xd6>
 8003b6e:	687b      	ldr	r3, [r7, #4]
 8003b70:	681b      	ldr	r3, [r3, #0]
 8003b72:	4a6d      	ldr	r2, [pc, #436]	@ (8003d28 <HAL_DMA_Abort+0x22c>)
 8003b74:	4293      	cmp	r3, r2
 8003b76:	d02c      	beq.n	8003bd2 <HAL_DMA_Abort+0xd6>
 8003b78:	687b      	ldr	r3, [r7, #4]
 8003b7a:	681b      	ldr	r3, [r3, #0]
 8003b7c:	4a6b      	ldr	r2, [pc, #428]	@ (8003d2c <HAL_DMA_Abort+0x230>)
 8003b7e:	4293      	cmp	r3, r2
 8003b80:	d027      	beq.n	8003bd2 <HAL_DMA_Abort+0xd6>
 8003b82:	687b      	ldr	r3, [r7, #4]
 8003b84:	681b      	ldr	r3, [r3, #0]
 8003b86:	4a6a      	ldr	r2, [pc, #424]	@ (8003d30 <HAL_DMA_Abort+0x234>)
 8003b88:	4293      	cmp	r3, r2
 8003b8a:	d022      	beq.n	8003bd2 <HAL_DMA_Abort+0xd6>
 8003b8c:	687b      	ldr	r3, [r7, #4]
 8003b8e:	681b      	ldr	r3, [r3, #0]
 8003b90:	4a68      	ldr	r2, [pc, #416]	@ (8003d34 <HAL_DMA_Abort+0x238>)
 8003b92:	4293      	cmp	r3, r2
 8003b94:	d01d      	beq.n	8003bd2 <HAL_DMA_Abort+0xd6>
 8003b96:	687b      	ldr	r3, [r7, #4]
 8003b98:	681b      	ldr	r3, [r3, #0]
 8003b9a:	4a67      	ldr	r2, [pc, #412]	@ (8003d38 <HAL_DMA_Abort+0x23c>)
 8003b9c:	4293      	cmp	r3, r2
 8003b9e:	d018      	beq.n	8003bd2 <HAL_DMA_Abort+0xd6>
 8003ba0:	687b      	ldr	r3, [r7, #4]
 8003ba2:	681b      	ldr	r3, [r3, #0]
 8003ba4:	4a65      	ldr	r2, [pc, #404]	@ (8003d3c <HAL_DMA_Abort+0x240>)
 8003ba6:	4293      	cmp	r3, r2
 8003ba8:	d013      	beq.n	8003bd2 <HAL_DMA_Abort+0xd6>
 8003baa:	687b      	ldr	r3, [r7, #4]
 8003bac:	681b      	ldr	r3, [r3, #0]
 8003bae:	4a64      	ldr	r2, [pc, #400]	@ (8003d40 <HAL_DMA_Abort+0x244>)
 8003bb0:	4293      	cmp	r3, r2
 8003bb2:	d00e      	beq.n	8003bd2 <HAL_DMA_Abort+0xd6>
 8003bb4:	687b      	ldr	r3, [r7, #4]
 8003bb6:	681b      	ldr	r3, [r3, #0]
 8003bb8:	4a62      	ldr	r2, [pc, #392]	@ (8003d44 <HAL_DMA_Abort+0x248>)
 8003bba:	4293      	cmp	r3, r2
 8003bbc:	d009      	beq.n	8003bd2 <HAL_DMA_Abort+0xd6>
 8003bbe:	687b      	ldr	r3, [r7, #4]
 8003bc0:	681b      	ldr	r3, [r3, #0]
 8003bc2:	4a61      	ldr	r2, [pc, #388]	@ (8003d48 <HAL_DMA_Abort+0x24c>)
 8003bc4:	4293      	cmp	r3, r2
 8003bc6:	d004      	beq.n	8003bd2 <HAL_DMA_Abort+0xd6>
 8003bc8:	687b      	ldr	r3, [r7, #4]
 8003bca:	681b      	ldr	r3, [r3, #0]
 8003bcc:	4a5f      	ldr	r2, [pc, #380]	@ (8003d4c <HAL_DMA_Abort+0x250>)
 8003bce:	4293      	cmp	r3, r2
 8003bd0:	d101      	bne.n	8003bd6 <HAL_DMA_Abort+0xda>
 8003bd2:	2301      	movs	r3, #1
 8003bd4:	e000      	b.n	8003bd8 <HAL_DMA_Abort+0xdc>
 8003bd6:	2300      	movs	r3, #0
 8003bd8:	2b00      	cmp	r3, #0
 8003bda:	d013      	beq.n	8003c04 <HAL_DMA_Abort+0x108>
 8003bdc:	687b      	ldr	r3, [r7, #4]
 8003bde:	681b      	ldr	r3, [r3, #0]
 8003be0:	681a      	ldr	r2, [r3, #0]
 8003be2:	687b      	ldr	r3, [r7, #4]
 8003be4:	681b      	ldr	r3, [r3, #0]
 8003be6:	f022 021e 	bic.w	r2, r2, #30
 8003bea:	601a      	str	r2, [r3, #0]
 8003bec:	687b      	ldr	r3, [r7, #4]
 8003bee:	681b      	ldr	r3, [r3, #0]
 8003bf0:	695a      	ldr	r2, [r3, #20]
 8003bf2:	687b      	ldr	r3, [r7, #4]
 8003bf4:	681b      	ldr	r3, [r3, #0]
 8003bf6:	f022 0280 	bic.w	r2, r2, #128	@ 0x80
 8003bfa:	615a      	str	r2, [r3, #20]
 8003bfc:	687b      	ldr	r3, [r7, #4]
 8003bfe:	681b      	ldr	r3, [r3, #0]
 8003c00:	617b      	str	r3, [r7, #20]
 8003c02:	e00a      	b.n	8003c1a <HAL_DMA_Abort+0x11e>
 8003c04:	687b      	ldr	r3, [r7, #4]
 8003c06:	681b      	ldr	r3, [r3, #0]
 8003c08:	681a      	ldr	r2, [r3, #0]
 8003c0a:	687b      	ldr	r3, [r7, #4]
 8003c0c:	681b      	ldr	r3, [r3, #0]
 8003c0e:	f022 020e 	bic.w	r2, r2, #14
 8003c12:	601a      	str	r2, [r3, #0]
 8003c14:	687b      	ldr	r3, [r7, #4]
 8003c16:	681b      	ldr	r3, [r3, #0]
 8003c18:	617b      	str	r3, [r7, #20]
 8003c1a:	687b      	ldr	r3, [r7, #4]
 8003c1c:	681b      	ldr	r3, [r3, #0]
 8003c1e:	4a3c      	ldr	r2, [pc, #240]	@ (8003d10 <HAL_DMA_Abort+0x214>)
 8003c20:	4293      	cmp	r3, r2
 8003c22:	d072      	beq.n	8003d0a <HAL_DMA_Abort+0x20e>
 8003c24:	687b      	ldr	r3, [r7, #4]
 8003c26:	681b      	ldr	r3, [r3, #0]
 8003c28:	4a3a      	ldr	r2, [pc, #232]	@ (8003d14 <HAL_DMA_Abort+0x218>)
 8003c2a:	4293      	cmp	r3, r2
 8003c2c:	d06d      	beq.n	8003d0a <HAL_DMA_Abort+0x20e>
 8003c2e:	687b      	ldr	r3, [r7, #4]
 8003c30:	681b      	ldr	r3, [r3, #0]
 8003c32:	4a39      	ldr	r2, [pc, #228]	@ (8003d18 <HAL_DMA_Abort+0x21c>)
 8003c34:	4293      	cmp	r3, r2
 8003c36:	d068      	beq.n	8003d0a <HAL_DMA_Abort+0x20e>
 8003c38:	687b      	ldr	r3, [r7, #4]
 8003c3a:	681b      	ldr	r3, [r3, #0]
 8003c3c:	4a37      	ldr	r2, [pc, #220]	@ (8003d1c <HAL_DMA_Abort+0x220>)
 8003c3e:	4293      	cmp	r3, r2
 8003c40:	d063      	beq.n	8003d0a <HAL_DMA_Abort+0x20e>
 8003c42:	687b      	ldr	r3, [r7, #4]
 8003c44:	681b      	ldr	r3, [r3, #0]
 8003c46:	4a36      	ldr	r2, [pc, #216]	@ (8003d20 <HAL_DMA_Abort+0x224>)
 8003c48:	4293      	cmp	r3, r2
 8003c4a:	d05e      	beq.n	8003d0a <HAL_DMA_Abort+0x20e>
 8003c4c:	687b      	ldr	r3, [r7, #4]
 8003c4e:	681b      	ldr	r3, [r3, #0]
 8003c50:	4a34      	ldr	r2, [pc, #208]	@ (8003d24 <HAL_DMA_Abort+0x228>)
 8003c52:	4293      	cmp	r3, r2
 8003c54:	d059      	beq.n	8003d0a <HAL_DMA_Abort+0x20e>
 8003c56:	687b      	ldr	r3, [r7, #4]
 8003c58:	681b      	ldr	r3, [r3, #0]
 8003c5a:	4a33      	ldr	r2, [pc, #204]	@ (8003d28 <HAL_DMA_Abort+0x22c>)
 8003c5c:	4293      	cmp	r3, r2
 8003c5e:	d054      	beq.n	8003d0a <HAL_DMA_Abort+0x20e>
 8003c60:	687b      	ldr	r3, [r7, #4]
 8003c62:	681b      	ldr	r3, [r3, #0]
 8003c64:	4a31      	ldr	r2, [pc, #196]	@ (8003d2c <HAL_DMA_Abort+0x230>)
 8003c66:	4293      	cmp	r3, r2
 8003c68:	d04f      	beq.n	8003d0a <HAL_DMA_Abort+0x20e>
 8003c6a:	687b      	ldr	r3, [r7, #4]
 8003c6c:	681b      	ldr	r3, [r3, #0]
 8003c6e:	4a30      	ldr	r2, [pc, #192]	@ (8003d30 <HAL_DMA_Abort+0x234>)
 8003c70:	4293      	cmp	r3, r2
 8003c72:	d04a      	beq.n	8003d0a <HAL_DMA_Abort+0x20e>
 8003c74:	687b      	ldr	r3, [r7, #4]
 8003c76:	681b      	ldr	r3, [r3, #0]
 8003c78:	4a2e      	ldr	r2, [pc, #184]	@ (8003d34 <HAL_DMA_Abort+0x238>)
 8003c7a:	4293      	cmp	r3, r2
 8003c7c:	d045      	beq.n	8003d0a <HAL_DMA_Abort+0x20e>
 8003c7e:	687b      	ldr	r3, [r7, #4]
 8003c80:	681b      	ldr	r3, [r3, #0]
 8003c82:	4a2d      	ldr	r2, [pc, #180]	@ (8003d38 <HAL_DMA_Abort+0x23c>)
 8003c84:	4293      	cmp	r3, r2
 8003c86:	d040      	beq.n	8003d0a <HAL_DMA_Abort+0x20e>
 8003c88:	687b      	ldr	r3, [r7, #4]
 8003c8a:	681b      	ldr	r3, [r3, #0]
 8003c8c:	4a2b      	ldr	r2, [pc, #172]	@ (8003d3c <HAL_DMA_Abort+0x240>)
 8003c8e:	4293      	cmp	r3, r2
 8003c90:	d03b      	beq.n	8003d0a <HAL_DMA_Abort+0x20e>
 8003c92:	687b      	ldr	r3, [r7, #4]
 8003c94:	681b      	ldr	r3, [r3, #0]
 8003c96:	4a2a      	ldr	r2, [pc, #168]	@ (8003d40 <HAL_DMA_Abort+0x244>)
 8003c98:	4293      	cmp	r3, r2
 8003c9a:	d036      	beq.n	8003d0a <HAL_DMA_Abort+0x20e>
 8003c9c:	687b      	ldr	r3, [r7, #4]
 8003c9e:	681b      	ldr	r3, [r3, #0]
 8003ca0:	4a28      	ldr	r2, [pc, #160]	@ (8003d44 <HAL_DMA_Abort+0x248>)
 8003ca2:	4293      	cmp	r3, r2
 8003ca4:	d031      	beq.n	8003d0a <HAL_DMA_Abort+0x20e>
 8003ca6:	687b      	ldr	r3, [r7, #4]
 8003ca8:	681b      	ldr	r3, [r3, #0]
 8003caa:	4a27      	ldr	r2, [pc, #156]	@ (8003d48 <HAL_DMA_Abort+0x24c>)
 8003cac:	4293      	cmp	r3, r2
 8003cae:	d02c      	beq.n	8003d0a <HAL_DMA_Abort+0x20e>
 8003cb0:	687b      	ldr	r3, [r7, #4]
 8003cb2:	681b      	ldr	r3, [r3, #0]
 8003cb4:	4a25      	ldr	r2, [pc, #148]	@ (8003d4c <HAL_DMA_Abort+0x250>)
 8003cb6:	4293      	cmp	r3, r2
 8003cb8:	d027      	beq.n	8003d0a <HAL_DMA_Abort+0x20e>
 8003cba:	687b      	ldr	r3, [r7, #4]
 8003cbc:	681b      	ldr	r3, [r3, #0]
 8003cbe:	4a24      	ldr	r2, [pc, #144]	@ (8003d50 <HAL_DMA_Abort+0x254>)
 8003cc0:	4293      	cmp	r3, r2
 8003cc2:	d022      	beq.n	8003d0a <HAL_DMA_Abort+0x20e>
 8003cc4:	687b      	ldr	r3, [r7, #4]
 8003cc6:	681b      	ldr	r3, [r3, #0]
 8003cc8:	4a22      	ldr	r2, [pc, #136]	@ (8003d54 <HAL_DMA_Abort+0x258>)
 8003cca:	4293      	cmp	r3, r2
 8003ccc:	d01d      	beq.n	8003d0a <HAL_DMA_Abort+0x20e>
 8003cce:	687b      	ldr	r3, [r7, #4]
 8003cd0:	681b      	ldr	r3, [r3, #0]
 8003cd2:	4a21      	ldr	r2, [pc, #132]	@ (8003d58 <HAL_DMA_Abort+0x25c>)
 8003cd4:	4293      	cmp	r3, r2
 8003cd6:	d018      	beq.n	8003d0a <HAL_DMA_Abort+0x20e>
 8003cd8:	687b      	ldr	r3, [r7, #4]
 8003cda:	681b      	ldr	r3, [r3, #0]
 8003cdc:	4a1f      	ldr	r2, [pc, #124]	@ (8003d5c <HAL_DMA_Abort+0x260>)
 8003cde:	4293      	cmp	r3, r2
 8003ce0:	d013      	beq.n	8003d0a <HAL_DMA_Abort+0x20e>
 8003ce2:	687b      	ldr	r3, [r7, #4]
 8003ce4:	681b      	ldr	r3, [r3, #0]
 8003ce6:	4a1e      	ldr	r2, [pc, #120]	@ (8003d60 <HAL_DMA_Abort+0x264>)
 8003ce8:	4293      	cmp	r3, r2
 8003cea:	d00e      	beq.n	8003d0a <HAL_DMA_Abort+0x20e>
 8003cec:	687b      	ldr	r3, [r7, #4]
 8003cee:	681b      	ldr	r3, [r3, #0]
 8003cf0:	4a1c      	ldr	r2, [pc, #112]	@ (8003d64 <HAL_DMA_Abort+0x268>)
 8003cf2:	4293      	cmp	r3, r2
 8003cf4:	d009      	beq.n	8003d0a <HAL_DMA_Abort+0x20e>
 8003cf6:	687b      	ldr	r3, [r7, #4]
 8003cf8:	681b      	ldr	r3, [r3, #0]
 8003cfa:	4a1b      	ldr	r2, [pc, #108]	@ (8003d68 <HAL_DMA_Abort+0x26c>)
 8003cfc:	4293      	cmp	r3, r2
 8003cfe:	d004      	beq.n	8003d0a <HAL_DMA_Abort+0x20e>
 8003d00:	687b      	ldr	r3, [r7, #4]
 8003d02:	681b      	ldr	r3, [r3, #0]
 8003d04:	4a19      	ldr	r2, [pc, #100]	@ (8003d6c <HAL_DMA_Abort+0x270>)
 8003d06:	4293      	cmp	r3, r2
 8003d08:	d132      	bne.n	8003d70 <HAL_DMA_Abort+0x274>
 8003d0a:	2301      	movs	r3, #1
 8003d0c:	e031      	b.n	8003d72 <HAL_DMA_Abort+0x276>
 8003d0e:	bf00      	nop
 8003d10:	40020010 	.word	0x40020010
 8003d14:	40020028 	.word	0x40020028
 8003d18:	40020040 	.word	0x40020040
 8003d1c:	40020058 	.word	0x40020058
 8003d20:	40020070 	.word	0x40020070
 8003d24:	40020088 	.word	0x40020088
 8003d28:	400200a0 	.word	0x400200a0
 8003d2c:	400200b8 	.word	0x400200b8
 8003d30:	40020410 	.word	0x40020410
 8003d34:	40020428 	.word	0x40020428
 8003d38:	40020440 	.word	0x40020440
 8003d3c:	40020458 	.word	0x40020458
 8003d40:	40020470 	.word	0x40020470
 8003d44:	40020488 	.word	0x40020488
 8003d48:	400204a0 	.word	0x400204a0
 8003d4c:	400204b8 	.word	0x400204b8
 8003d50:	58025408 	.word	0x58025408
 8003d54:	5802541c 	.word	0x5802541c
 8003d58:	58025430 	.word	0x58025430
 8003d5c:	58025444 	.word	0x58025444
 8003d60:	58025458 	.word	0x58025458
 8003d64:	5802546c 	.word	0x5802546c
 8003d68:	58025480 	.word	0x58025480
 8003d6c:	58025494 	.word	0x58025494
 8003d70:	2300      	movs	r3, #0
 8003d72:	2b00      	cmp	r3, #0
 8003d74:	d007      	beq.n	8003d86 <HAL_DMA_Abort+0x28a>
 8003d76:	687b      	ldr	r3, [r7, #4]
 8003d78:	6e1b      	ldr	r3, [r3, #96]	@ 0x60
 8003d7a:	681a      	ldr	r2, [r3, #0]
 8003d7c:	687b      	ldr	r3, [r7, #4]
 8003d7e:	6e1b      	ldr	r3, [r3, #96]	@ 0x60
 8003d80:	f422 7280 	bic.w	r2, r2, #256	@ 0x100
 8003d84:	601a      	str	r2, [r3, #0]
 8003d86:	687b      	ldr	r3, [r7, #4]
 8003d88:	681b      	ldr	r3, [r3, #0]
 8003d8a:	4a6d      	ldr	r2, [pc, #436]	@ (8003f40 <HAL_DMA_Abort+0x444>)
 8003d8c:	4293      	cmp	r3, r2
 8003d8e:	d04a      	beq.n	8003e26 <HAL_DMA_Abort+0x32a>
 8003d90:	687b      	ldr	r3, [r7, #4]
 8003d92:	681b      	ldr	r3, [r3, #0]
 8003d94:	4a6b      	ldr	r2, [pc, #428]	@ (8003f44 <HAL_DMA_Abort+0x448>)
 8003d96:	4293      	cmp	r3, r2
 8003d98:	d045      	beq.n	8003e26 <HAL_DMA_Abort+0x32a>
 8003d9a:	687b      	ldr	r3, [r7, #4]
 8003d9c:	681b      	ldr	r3, [r3, #0]
 8003d9e:	4a6a      	ldr	r2, [pc, #424]	@ (8003f48 <HAL_DMA_Abort+0x44c>)
 8003da0:	4293      	cmp	r3, r2
 8003da2:	d040      	beq.n	8003e26 <HAL_DMA_Abort+0x32a>
 8003da4:	687b      	ldr	r3, [r7, #4]
 8003da6:	681b      	ldr	r3, [r3, #0]
 8003da8:	4a68      	ldr	r2, [pc, #416]	@ (8003f4c <HAL_DMA_Abort+0x450>)
 8003daa:	4293      	cmp	r3, r2
 8003dac:	d03b      	beq.n	8003e26 <HAL_DMA_Abort+0x32a>
 8003dae:	687b      	ldr	r3, [r7, #4]
 8003db0:	681b      	ldr	r3, [r3, #0]
 8003db2:	4a67      	ldr	r2, [pc, #412]	@ (8003f50 <HAL_DMA_Abort+0x454>)
 8003db4:	4293      	cmp	r3, r2
 8003db6:	d036      	beq.n	8003e26 <HAL_DMA_Abort+0x32a>
 8003db8:	687b      	ldr	r3, [r7, #4]
 8003dba:	681b      	ldr	r3, [r3, #0]
 8003dbc:	4a65      	ldr	r2, [pc, #404]	@ (8003f54 <HAL_DMA_Abort+0x458>)
 8003dbe:	4293      	cmp	r3, r2
 8003dc0:	d031      	beq.n	8003e26 <HAL_DMA_Abort+0x32a>
 8003dc2:	687b      	ldr	r3, [r7, #4]
 8003dc4:	681b      	ldr	r3, [r3, #0]
 8003dc6:	4a64      	ldr	r2, [pc, #400]	@ (8003f58 <HAL_DMA_Abort+0x45c>)
 8003dc8:	4293      	cmp	r3, r2
 8003dca:	d02c      	beq.n	8003e26 <HAL_DMA_Abort+0x32a>
 8003dcc:	687b      	ldr	r3, [r7, #4]
 8003dce:	681b      	ldr	r3, [r3, #0]
 8003dd0:	4a62      	ldr	r2, [pc, #392]	@ (8003f5c <HAL_DMA_Abort+0x460>)
 8003dd2:	4293      	cmp	r3, r2
 8003dd4:	d027      	beq.n	8003e26 <HAL_DMA_Abort+0x32a>
 8003dd6:	687b      	ldr	r3, [r7, #4]
 8003dd8:	681b      	ldr	r3, [r3, #0]
 8003dda:	4a61      	ldr	r2, [pc, #388]	@ (8003f60 <HAL_DMA_Abort+0x464>)
 8003ddc:	4293      	cmp	r3, r2
 8003dde:	d022      	beq.n	8003e26 <HAL_DMA_Abort+0x32a>
 8003de0:	687b      	ldr	r3, [r7, #4]
 8003de2:	681b      	ldr	r3, [r3, #0]
 8003de4:	4a5f      	ldr	r2, [pc, #380]	@ (8003f64 <HAL_DMA_Abort+0x468>)
 8003de6:	4293      	cmp	r3, r2
 8003de8:	d01d      	beq.n	8003e26 <HAL_DMA_Abort+0x32a>
 8003dea:	687b      	ldr	r3, [r7, #4]
 8003dec:	681b      	ldr	r3, [r3, #0]
 8003dee:	4a5e      	ldr	r2, [pc, #376]	@ (8003f68 <HAL_DMA_Abort+0x46c>)
 8003df0:	4293      	cmp	r3, r2
 8003df2:	d018      	beq.n	8003e26 <HAL_DMA_Abort+0x32a>
 8003df4:	687b      	ldr	r3, [r7, #4]
 8003df6:	681b      	ldr	r3, [r3, #0]
 8003df8:	4a5c      	ldr	r2, [pc, #368]	@ (8003f6c <HAL_DMA_Abort+0x470>)
 8003dfa:	4293      	cmp	r3, r2
 8003dfc:	d013      	beq.n	8003e26 <HAL_DMA_Abort+0x32a>
 8003dfe:	687b      	ldr	r3, [r7, #4]
 8003e00:	681b      	ldr	r3, [r3, #0]
 8003e02:	4a5b      	ldr	r2, [pc, #364]	@ (8003f70 <HAL_DMA_Abort+0x474>)
 8003e04:	4293      	cmp	r3, r2
 8003e06:	d00e      	beq.n	8003e26 <HAL_DMA_Abort+0x32a>
 8003e08:	687b      	ldr	r3, [r7, #4]
 8003e0a:	681b      	ldr	r3, [r3, #0]
 8003e0c:	4a59      	ldr	r2, [pc, #356]	@ (8003f74 <HAL_DMA_Abort+0x478>)
 8003e0e:	4293      	cmp	r3, r2
 8003e10:	d009      	beq.n	8003e26 <HAL_DMA_Abort+0x32a>
 8003e12:	687b      	ldr	r3, [r7, #4]
 8003e14:	681b      	ldr	r3, [r3, #0]
 8003e16:	4a58      	ldr	r2, [pc, #352]	@ (8003f78 <HAL_DMA_Abort+0x47c>)
 8003e18:	4293      	cmp	r3, r2
 8003e1a:	d004      	beq.n	8003e26 <HAL_DMA_Abort+0x32a>
 8003e1c:	687b      	ldr	r3, [r7, #4]
 8003e1e:	681b      	ldr	r3, [r3, #0]
 8003e20:	4a56      	ldr	r2, [pc, #344]	@ (8003f7c <HAL_DMA_Abort+0x480>)
 8003e22:	4293      	cmp	r3, r2
 8003e24:	d108      	bne.n	8003e38 <HAL_DMA_Abort+0x33c>
 8003e26:	687b      	ldr	r3, [r7, #4]
 8003e28:	681b      	ldr	r3, [r3, #0]
 8003e2a:	681a      	ldr	r2, [r3, #0]
 8003e2c:	687b      	ldr	r3, [r7, #4]
 8003e2e:	681b      	ldr	r3, [r3, #0]
 8003e30:	f022 0201 	bic.w	r2, r2, #1
 8003e34:	601a      	str	r2, [r3, #0]
 8003e36:	e007      	b.n	8003e48 <HAL_DMA_Abort+0x34c>
 8003e38:	687b      	ldr	r3, [r7, #4]
 8003e3a:	681b      	ldr	r3, [r3, #0]
 8003e3c:	681a      	ldr	r2, [r3, #0]
 8003e3e:	687b      	ldr	r3, [r7, #4]
 8003e40:	681b      	ldr	r3, [r3, #0]
 8003e42:	f022 0201 	bic.w	r2, r2, #1
 8003e46:	601a      	str	r2, [r3, #0]
 8003e48:	e013      	b.n	8003e72 <HAL_DMA_Abort+0x376>
 8003e4a:	f7fd f9e5 	bl	8001218 <HAL_GetTick>
 8003e4e:	4602      	mov	r2, r0
 8003e50:	693b      	ldr	r3, [r7, #16]
 8003e52:	1ad3      	subs	r3, r2, r3
 8003e54:	2b05      	cmp	r3, #5
 8003e56:	d90c      	bls.n	8003e72 <HAL_DMA_Abort+0x376>
 8003e58:	687b      	ldr	r3, [r7, #4]
 8003e5a:	2220      	movs	r2, #32
 8003e5c:	655a      	str	r2, [r3, #84]	@ 0x54
 8003e5e:	687b      	ldr	r3, [r7, #4]
 8003e60:	2203      	movs	r2, #3
 8003e62:	f883 2035 	strb.w	r2, [r3, #53]	@ 0x35
 8003e66:	687b      	ldr	r3, [r7, #4]
 8003e68:	2200      	movs	r2, #0
 8003e6a:	f883 2034 	strb.w	r2, [r3, #52]	@ 0x34
 8003e6e:	2301      	movs	r3, #1
 8003e70:	e12d      	b.n	80040ce <HAL_DMA_Abort+0x5d2>
 8003e72:	697b      	ldr	r3, [r7, #20]
 8003e74:	681b      	ldr	r3, [r3, #0]
 8003e76:	f003 0301 	and.w	r3, r3, #1
 8003e7a:	2b00      	cmp	r3, #0
 8003e7c:	d1e5      	bne.n	8003e4a <HAL_DMA_Abort+0x34e>
 8003e7e:	687b      	ldr	r3, [r7, #4]
 8003e80:	681b      	ldr	r3, [r3, #0]
 8003e82:	4a2f      	ldr	r2, [pc, #188]	@ (8003f40 <HAL_DMA_Abort+0x444>)
 8003e84:	4293      	cmp	r3, r2
 8003e86:	d04a      	beq.n	8003f1e <HAL_DMA_Abort+0x422>
 8003e88:	687b      	ldr	r3, [r7, #4]
 8003e8a:	681b      	ldr	r3, [r3, #0]
 8003e8c:	4a2d      	ldr	r2, [pc, #180]	@ (8003f44 <HAL_DMA_Abort+0x448>)
 8003e8e:	4293      	cmp	r3, r2
 8003e90:	d045      	beq.n	8003f1e <HAL_DMA_Abort+0x422>
 8003e92:	687b      	ldr	r3, [r7, #4]
 8003e94:	681b      	ldr	r3, [r3, #0]
 8003e96:	4a2c      	ldr	r2, [pc, #176]	@ (8003f48 <HAL_DMA_Abort+0x44c>)
 8003e98:	4293      	cmp	r3, r2
 8003e9a:	d040      	beq.n	8003f1e <HAL_DMA_Abort+0x422>
 8003e9c:	687b      	ldr	r3, [r7, #4]
 8003e9e:	681b      	ldr	r3, [r3, #0]
 8003ea0:	4a2a      	ldr	r2, [pc, #168]	@ (8003f4c <HAL_DMA_Abort+0x450>)
 8003ea2:	4293      	cmp	r3, r2
 8003ea4:	d03b      	beq.n	8003f1e <HAL_DMA_Abort+0x422>
 8003ea6:	687b      	ldr	r3, [r7, #4]
 8003ea8:	681b      	ldr	r3, [r3, #0]
 8003eaa:	4a29      	ldr	r2, [pc, #164]	@ (8003f50 <HAL_DMA_Abort+0x454>)
 8003eac:	4293      	cmp	r3, r2
 8003eae:	d036      	beq.n	8003f1e <HAL_DMA_Abort+0x422>
 8003eb0:	687b      	ldr	r3, [r7, #4]
 8003eb2:	681b      	ldr	r3, [r3, #0]
 8003eb4:	4a27      	ldr	r2, [pc, #156]	@ (8003f54 <HAL_DMA_Abort+0x458>)
 8003eb6:	4293      	cmp	r3, r2
 8003eb8:	d031      	beq.n	8003f1e <HAL_DMA_Abort+0x422>
 8003eba:	687b      	ldr	r3, [r7, #4]
 8003ebc:	681b      	ldr	r3, [r3, #0]
 8003ebe:	4a26      	ldr	r2, [pc, #152]	@ (8003f58 <HAL_DMA_Abort+0x45c>)
 8003ec0:	4293      	cmp	r3, r2
 8003ec2:	d02c      	beq.n	8003f1e <HAL_DMA_Abort+0x422>
 8003ec4:	687b      	ldr	r3, [r7, #4]
 8003ec6:	681b      	ldr	r3, [r3, #0]
 8003ec8:	4a24      	ldr	r2, [pc, #144]	@ (8003f5c <HAL_DMA_Abort+0x460>)
 8003eca:	4293      	cmp	r3, r2
 8003ecc:	d027      	beq.n	8003f1e <HAL_DMA_Abort+0x422>
 8003ece:	687b      	ldr	r3, [r7, #4]
 8003ed0:	681b      	ldr	r3, [r3, #0]
 8003ed2:	4a23      	ldr	r2, [pc, #140]	@ (8003f60 <HAL_DMA_Abort+0x464>)
 8003ed4:	4293      	cmp	r3, r2
 8003ed6:	d022      	beq.n	8003f1e <HAL_DMA_Abort+0x422>
 8003ed8:	687b      	ldr	r3, [r7, #4]
 8003eda:	681b      	ldr	r3, [r3, #0]
 8003edc:	4a21      	ldr	r2, [pc, #132]	@ (8003f64 <HAL_DMA_Abort+0x468>)
 8003ede:	4293      	cmp	r3, r2
 8003ee0:	d01d      	beq.n	8003f1e <HAL_DMA_Abort+0x422>
 8003ee2:	687b      	ldr	r3, [r7, #4]
 8003ee4:	681b      	ldr	r3, [r3, #0]
 8003ee6:	4a20      	ldr	r2, [pc, #128]	@ (8003f68 <HAL_DMA_Abort+0x46c>)
 8003ee8:	4293      	cmp	r3, r2
 8003eea:	d018      	beq.n	8003f1e <HAL_DMA_Abort+0x422>
 8003eec:	687b      	ldr	r3, [r7, #4]
 8003eee:	681b      	ldr	r3, [r3, #0]
 8003ef0:	4a1e      	ldr	r2, [pc, #120]	@ (8003f6c <HAL_DMA_Abort+0x470>)
 8003ef2:	4293      	cmp	r3, r2
 8003ef4:	d013      	beq.n	8003f1e <HAL_DMA_Abort+0x422>
 8003ef6:	687b      	ldr	r3, [r7, #4]
 8003ef8:	681b      	ldr	r3, [r3, #0]
 8003efa:	4a1d      	ldr	r2, [pc, #116]	@ (8003f70 <HAL_DMA_Abort+0x474>)
 8003efc:	4293      	cmp	r3, r2
 8003efe:	d00e      	beq.n	8003f1e <HAL_DMA_Abort+0x422>
 8003f00:	687b      	ldr	r3, [r7, #4]
 8003f02:	681b      	ldr	r3, [r3, #0]
 8003f04:	4a1b      	ldr	r2, [pc, #108]	@ (8003f74 <HAL_DMA_Abort+0x478>)
 8003f06:	4293      	cmp	r3, r2
 8003f08:	d009      	beq.n	8003f1e <HAL_DMA_Abort+0x422>
 8003f0a:	687b      	ldr	r3, [r7, #4]
 8003f0c:	681b      	ldr	r3, [r3, #0]
 8003f0e:	4a1a      	ldr	r2, [pc, #104]	@ (8003f78 <HAL_DMA_Abort+0x47c>)
 8003f10:	4293      	cmp	r3, r2
 8003f12:	d004      	beq.n	8003f1e <HAL_DMA_Abort+0x422>
 8003f14:	687b      	ldr	r3, [r7, #4]
 8003f16:	681b      	ldr	r3, [r3, #0]
 8003f18:	4a18      	ldr	r2, [pc, #96]	@ (8003f7c <HAL_DMA_Abort+0x480>)
 8003f1a:	4293      	cmp	r3, r2
 8003f1c:	d101      	bne.n	8003f22 <HAL_DMA_Abort+0x426>
 8003f1e:	2301      	movs	r3, #1
 8003f20:	e000      	b.n	8003f24 <HAL_DMA_Abort+0x428>
 8003f22:	2300      	movs	r3, #0
 8003f24:	2b00      	cmp	r3, #0
 8003f26:	d02b      	beq.n	8003f80 <HAL_DMA_Abort+0x484>
 8003f28:	687b      	ldr	r3, [r7, #4]
 8003f2a:	6d9b      	ldr	r3, [r3, #88]	@ 0x58
 8003f2c:	60bb      	str	r3, [r7, #8]
 8003f2e:	687b      	ldr	r3, [r7, #4]
 8003f30:	6ddb      	ldr	r3, [r3, #92]	@ 0x5c
 8003f32:	f003 031f 	and.w	r3, r3, #31
 8003f36:	223f      	movs	r2, #63	@ 0x3f
 8003f38:	409a      	lsls	r2, r3
 8003f3a:	68bb      	ldr	r3, [r7, #8]
 8003f3c:	609a      	str	r2, [r3, #8]
 8003f3e:	e02a      	b.n	8003f96 <HAL_DMA_Abort+0x49a>
 8003f40:	40020010 	.word	0x40020010
 8003f44:	40020028 	.word	0x40020028
 8003f48:	40020040 	.word	0x40020040
 8003f4c:	40020058 	.word	0x40020058
 8003f50:	40020070 	.word	0x40020070
 8003f54:	40020088 	.word	0x40020088
 8003f58:	400200a0 	.word	0x400200a0
 8003f5c:	400200b8 	.word	0x400200b8
 8003f60:	40020410 	.word	0x40020410
 8003f64:	40020428 	.word	0x40020428
 8003f68:	40020440 	.word	0x40020440
 8003f6c:	40020458 	.word	0x40020458
 8003f70:	40020470 	.word	0x40020470
 8003f74:	40020488 	.word	0x40020488
 8003f78:	400204a0 	.word	0x400204a0
 8003f7c:	400204b8 	.word	0x400204b8
 8003f80:	687b      	ldr	r3, [r7, #4]
 8003f82:	6d9b      	ldr	r3, [r3, #88]	@ 0x58
 8003f84:	60fb      	str	r3, [r7, #12]
 8003f86:	687b      	ldr	r3, [r7, #4]
 8003f88:	6ddb      	ldr	r3, [r3, #92]	@ 0x5c
 8003f8a:	f003 031f 	and.w	r3, r3, #31
 8003f8e:	2201      	movs	r2, #1
 8003f90:	409a      	lsls	r2, r3
 8003f92:	68fb      	ldr	r3, [r7, #12]
 8003f94:	605a      	str	r2, [r3, #4]
 8003f96:	687b      	ldr	r3, [r7, #4]
 8003f98:	681b      	ldr	r3, [r3, #0]
 8003f9a:	4a4f      	ldr	r2, [pc, #316]	@ (80040d8 <HAL_DMA_Abort+0x5dc>)
 8003f9c:	4293      	cmp	r3, r2
 8003f9e:	d072      	beq.n	8004086 <HAL_DMA_Abort+0x58a>
 8003fa0:	687b      	ldr	r3, [r7, #4]
 8003fa2:	681b      	ldr	r3, [r3, #0]
 8003fa4:	4a4d      	ldr	r2, [pc, #308]	@ (80040dc <HAL_DMA_Abort+0x5e0>)
 8003fa6:	4293      	cmp	r3, r2
 8003fa8:	d06d      	beq.n	8004086 <HAL_DMA_Abort+0x58a>
 8003faa:	687b      	ldr	r3, [r7, #4]
 8003fac:	681b      	ldr	r3, [r3, #0]
 8003fae:	4a4c      	ldr	r2, [pc, #304]	@ (80040e0 <HAL_DMA_Abort+0x5e4>)
 8003fb0:	4293      	cmp	r3, r2
 8003fb2:	d068      	beq.n	8004086 <HAL_DMA_Abort+0x58a>
 8003fb4:	687b      	ldr	r3, [r7, #4]
 8003fb6:	681b      	ldr	r3, [r3, #0]
 8003fb8:	4a4a      	ldr	r2, [pc, #296]	@ (80040e4 <HAL_DMA_Abort+0x5e8>)
 8003fba:	4293      	cmp	r3, r2
 8003fbc:	d063      	beq.n	8004086 <HAL_DMA_Abort+0x58a>
 8003fbe:	687b      	ldr	r3, [r7, #4]
 8003fc0:	681b      	ldr	r3, [r3, #0]
 8003fc2:	4a49      	ldr	r2, [pc, #292]	@ (80040e8 <HAL_DMA_Abort+0x5ec>)
 8003fc4:	4293      	cmp	r3, r2
 8003fc6:	d05e      	beq.n	8004086 <HAL_DMA_Abort+0x58a>
 8003fc8:	687b      	ldr	r3, [r7, #4]
 8003fca:	681b      	ldr	r3, [r3, #0]
 8003fcc:	4a47      	ldr	r2, [pc, #284]	@ (80040ec <HAL_DMA_Abort+0x5f0>)
 8003fce:	4293      	cmp	r3, r2
 8003fd0:	d059      	beq.n	8004086 <HAL_DMA_Abort+0x58a>
 8003fd2:	687b      	ldr	r3, [r7, #4]
 8003fd4:	681b      	ldr	r3, [r3, #0]
 8003fd6:	4a46      	ldr	r2, [pc, #280]	@ (80040f0 <HAL_DMA_Abort+0x5f4>)
 8003fd8:	4293      	cmp	r3, r2
 8003fda:	d054      	beq.n	8004086 <HAL_DMA_Abort+0x58a>
 8003fdc:	687b      	ldr	r3, [r7, #4]
 8003fde:	681b      	ldr	r3, [r3, #0]
 8003fe0:	4a44      	ldr	r2, [pc, #272]	@ (80040f4 <HAL_DMA_Abort+0x5f8>)
 8003fe2:	4293      	cmp	r3, r2
 8003fe4:	d04f      	beq.n	8004086 <HAL_DMA_Abort+0x58a>
 8003fe6:	687b      	ldr	r3, [r7, #4]
 8003fe8:	681b      	ldr	r3, [r3, #0]
 8003fea:	4a43      	ldr	r2, [pc, #268]	@ (80040f8 <HAL_DMA_Abort+0x5fc>)
 8003fec:	4293      	cmp	r3, r2
 8003fee:	d04a      	beq.n	8004086 <HAL_DMA_Abort+0x58a>
 8003ff0:	687b      	ldr	r3, [r7, #4]
 8003ff2:	681b      	ldr	r3, [r3, #0]
 8003ff4:	4a41      	ldr	r2, [pc, #260]	@ (80040fc <HAL_DMA_Abort+0x600>)
 8003ff6:	4293      	cmp	r3, r2
 8003ff8:	d045      	beq.n	8004086 <HAL_DMA_Abort+0x58a>
 8003ffa:	687b      	ldr	r3, [r7, #4]
 8003ffc:	681b      	ldr	r3, [r3, #0]
 8003ffe:	4a40      	ldr	r2, [pc, #256]	@ (8004100 <HAL_DMA_Abort+0x604>)
 8004000:	4293      	cmp	r3, r2
 8004002:	d040      	beq.n	8004086 <HAL_DMA_Abort+0x58a>
 8004004:	687b      	ldr	r3, [r7, #4]
 8004006:	681b      	ldr	r3, [r3, #0]
 8004008:	4a3e      	ldr	r2, [pc, #248]	@ (8004104 <HAL_DMA_Abort+0x608>)
 800400a:	4293      	cmp	r3, r2
 800400c:	d03b      	beq.n	8004086 <HAL_DMA_Abort+0x58a>
 800400e:	687b      	ldr	r3, [r7, #4]
 8004010:	681b      	ldr	r3, [r3, #0]
 8004012:	4a3d      	ldr	r2, [pc, #244]	@ (8004108 <HAL_DMA_Abort+0x60c>)
 8004014:	4293      	cmp	r3, r2
 8004016:	d036      	beq.n	8004086 <HAL_DMA_Abort+0x58a>
 8004018:	687b      	ldr	r3, [r7, #4]
 800401a:	681b      	ldr	r3, [r3, #0]
 800401c:	4a3b      	ldr	r2, [pc, #236]	@ (800410c <HAL_DMA_Abort+0x610>)
 800401e:	4293      	cmp	r3, r2
 8004020:	d031      	beq.n	8004086 <HAL_DMA_Abort+0x58a>
 8004022:	687b      	ldr	r3, [r7, #4]
 8004024:	681b      	ldr	r3, [r3, #0]
 8004026:	4a3a      	ldr	r2, [pc, #232]	@ (8004110 <HAL_DMA_Abort+0x614>)
 8004028:	4293      	cmp	r3, r2
 800402a:	d02c      	beq.n	8004086 <HAL_DMA_Abort+0x58a>
 800402c:	687b      	ldr	r3, [r7, #4]
 800402e:	681b      	ldr	r3, [r3, #0]
 8004030:	4a38      	ldr	r2, [pc, #224]	@ (8004114 <HAL_DMA_Abort+0x618>)
 8004032:	4293      	cmp	r3, r2
 8004034:	d027      	beq.n	8004086 <HAL_DMA_Abort+0x58a>
 8004036:	687b      	ldr	r3, [r7, #4]
 8004038:	681b      	ldr	r3, [r3, #0]
 800403a:	4a37      	ldr	r2, [pc, #220]	@ (8004118 <HAL_DMA_Abort+0x61c>)
 800403c:	4293      	cmp	r3, r2
 800403e:	d022      	beq.n	8004086 <HAL_DMA_Abort+0x58a>
 8004040:	687b      	ldr	r3, [r7, #4]
 8004042:	681b      	ldr	r3, [r3, #0]
 8004044:	4a35      	ldr	r2, [pc, #212]	@ (800411c <HAL_DMA_Abort+0x620>)
 8004046:	4293      	cmp	r3, r2
 8004048:	d01d      	beq.n	8004086 <HAL_DMA_Abort+0x58a>
 800404a:	687b      	ldr	r3, [r7, #4]
 800404c:	681b      	ldr	r3, [r3, #0]
 800404e:	4a34      	ldr	r2, [pc, #208]	@ (8004120 <HAL_DMA_Abort+0x624>)
 8004050:	4293      	cmp	r3, r2
 8004052:	d018      	beq.n	8004086 <HAL_DMA_Abort+0x58a>
 8004054:	687b      	ldr	r3, [r7, #4]
 8004056:	681b      	ldr	r3, [r3, #0]
 8004058:	4a32      	ldr	r2, [pc, #200]	@ (8004124 <HAL_DMA_Abort+0x628>)
 800405a:	4293      	cmp	r3, r2
 800405c:	d013      	beq.n	8004086 <HAL_DMA_Abort+0x58a>
 800405e:	687b      	ldr	r3, [r7, #4]
 8004060:	681b      	ldr	r3, [r3, #0]
 8004062:	4a31      	ldr	r2, [pc, #196]	@ (8004128 <HAL_DMA_Abort+0x62c>)
 8004064:	4293      	cmp	r3, r2
 8004066:	d00e      	beq.n	8004086 <HAL_DMA_Abort+0x58a>
 8004068:	687b      	ldr	r3, [r7, #4]
 800406a:	681b      	ldr	r3, [r3, #0]
 800406c:	4a2f      	ldr	r2, [pc, #188]	@ (800412c <HAL_DMA_Abort+0x630>)
 800406e:	4293      	cmp	r3, r2
 8004070:	d009      	beq.n	8004086 <HAL_DMA_Abort+0x58a>
 8004072:	687b      	ldr	r3, [r7, #4]
 8004074:	681b      	ldr	r3, [r3, #0]
 8004076:	4a2e      	ldr	r2, [pc, #184]	@ (8004130 <HAL_DMA_Abort+0x634>)
 8004078:	4293      	cmp	r3, r2
 800407a:	d004      	beq.n	8004086 <HAL_DMA_Abort+0x58a>
 800407c:	687b      	ldr	r3, [r7, #4]
 800407e:	681b      	ldr	r3, [r3, #0]
 8004080:	4a2c      	ldr	r2, [pc, #176]	@ (8004134 <HAL_DMA_Abort+0x638>)
 8004082:	4293      	cmp	r3, r2
 8004084:	d101      	bne.n	800408a <HAL_DMA_Abort+0x58e>
 8004086:	2301      	movs	r3, #1
 8004088:	e000      	b.n	800408c <HAL_DMA_Abort+0x590>
 800408a:	2300      	movs	r3, #0
 800408c:	2b00      	cmp	r3, #0
 800408e:	d015      	beq.n	80040bc <HAL_DMA_Abort+0x5c0>
 8004090:	687b      	ldr	r3, [r7, #4]
 8004092:	6e5b      	ldr	r3, [r3, #100]	@ 0x64
 8004094:	687a      	ldr	r2, [r7, #4]
 8004096:	6e92      	ldr	r2, [r2, #104]	@ 0x68
 8004098:	605a      	str	r2, [r3, #4]
 800409a:	687b      	ldr	r3, [r7, #4]
 800409c:	6edb      	ldr	r3, [r3, #108]	@ 0x6c
 800409e:	2b00      	cmp	r3, #0
 80040a0:	d00c      	beq.n	80040bc <HAL_DMA_Abort+0x5c0>
 80040a2:	687b      	ldr	r3, [r7, #4]
 80040a4:	6edb      	ldr	r3, [r3, #108]	@ 0x6c
 80040a6:	681a      	ldr	r2, [r3, #0]
 80040a8:	687b      	ldr	r3, [r7, #4]
 80040aa:	6edb      	ldr	r3, [r3, #108]	@ 0x6c
 80040ac:	f422 7280 	bic.w	r2, r2, #256	@ 0x100
 80040b0:	601a      	str	r2, [r3, #0]
 80040b2:	687b      	ldr	r3, [r7, #4]
 80040b4:	6f1b      	ldr	r3, [r3, #112]	@ 0x70
 80040b6:	687a      	ldr	r2, [r7, #4]
 80040b8:	6f52      	ldr	r2, [r2, #116]	@ 0x74
 80040ba:	605a      	str	r2, [r3, #4]
 80040bc:	687b      	ldr	r3, [r7, #4]
 80040be:	2201      	movs	r2, #1
 80040c0:	f883 2035 	strb.w	r2, [r3, #53]	@ 0x35
 80040c4:	687b      	ldr	r3, [r7, #4]
 80040c6:	2200      	movs	r2, #0
 80040c8:	f883 2034 	strb.w	r2, [r3, #52]	@ 0x34
 80040cc:	2300      	movs	r3, #0
 80040ce:	4618      	mov	r0, r3
 80040d0:	3718      	adds	r7, #24
 80040d2:	46bd      	mov	sp, r7
 80040d4:	bd80      	pop	{r7, pc}
 80040d6:	bf00      	nop
 80040d8:	40020010 	.word	0x40020010
 80040dc:	40020028 	.word	0x40020028
 80040e0:	40020040 	.word	0x40020040
 80040e4:	40020058 	.word	0x40020058
 80040e8:	40020070 	.word	0x40020070
 80040ec:	40020088 	.word	0x40020088
 80040f0:	400200a0 	.word	0x400200a0
 80040f4:	400200b8 	.word	0x400200b8
 80040f8:	40020410 	.word	0x40020410
 80040fc:	40020428 	.word	0x40020428
 8004100:	40020440 	.word	0x40020440
 8004104:	40020458 	.word	0x40020458
 8004108:	40020470 	.word	0x40020470
 800410c:	40020488 	.word	0x40020488
 8004110:	400204a0 	.word	0x400204a0
 8004114:	400204b8 	.word	0x400204b8
 8004118:	58025408 	.word	0x58025408
 800411c:	5802541c 	.word	0x5802541c
 8004120:	58025430 	.word	0x58025430
 8004124:	58025444 	.word	0x58025444
 8004128:	58025458 	.word	0x58025458
 800412c:	5802546c 	.word	0x5802546c
 8004130:	58025480 	.word	0x58025480
 8004134:	58025494 	.word	0x58025494

08004138 <HAL_DMA_Abort_IT>:
 8004138:	b580      	push	{r7, lr}
 800413a:	b084      	sub	sp, #16
 800413c:	af00      	add	r7, sp, #0
 800413e:	6078      	str	r0, [r7, #4]
 8004140:	687b      	ldr	r3, [r7, #4]
 8004142:	2b00      	cmp	r3, #0
 8004144:	d101      	bne.n	800414a <HAL_DMA_Abort_IT+0x12>
 8004146:	2301      	movs	r3, #1
 8004148:	e237      	b.n	80045ba <HAL_DMA_Abort_IT+0x482>
 800414a:	687b      	ldr	r3, [r7, #4]
 800414c:	f893 3035 	ldrb.w	r3, [r3, #53]	@ 0x35
 8004150:	b2db      	uxtb	r3, r3
 8004152:	2b02      	cmp	r3, #2
 8004154:	d004      	beq.n	8004160 <HAL_DMA_Abort_IT+0x28>
 8004156:	687b      	ldr	r3, [r7, #4]
 8004158:	2280      	movs	r2, #128	@ 0x80
 800415a:	655a      	str	r2, [r3, #84]	@ 0x54
 800415c:	2301      	movs	r3, #1
 800415e:	e22c      	b.n	80045ba <HAL_DMA_Abort_IT+0x482>
 8004160:	687b      	ldr	r3, [r7, #4]
 8004162:	681b      	ldr	r3, [r3, #0]
 8004164:	4a5c      	ldr	r2, [pc, #368]	@ (80042d8 <HAL_DMA_Abort_IT+0x1a0>)
 8004166:	4293      	cmp	r3, r2
 8004168:	d04a      	beq.n	8004200 <HAL_DMA_Abort_IT+0xc8>
 800416a:	687b      	ldr	r3, [r7, #4]
 800416c:	681b      	ldr	r3, [r3, #0]
 800416e:	4a5b      	ldr	r2, [pc, #364]	@ (80042dc <HAL_DMA_Abort_IT+0x1a4>)
 8004170:	4293      	cmp	r3, r2
 8004172:	d045      	beq.n	8004200 <HAL_DMA_Abort_IT+0xc8>
 8004174:	687b      	ldr	r3, [r7, #4]
 8004176:	681b      	ldr	r3, [r3, #0]
 8004178:	4a59      	ldr	r2, [pc, #356]	@ (80042e0 <HAL_DMA_Abort_IT+0x1a8>)
 800417a:	4293      	cmp	r3, r2
 800417c:	d040      	beq.n	8004200 <HAL_DMA_Abort_IT+0xc8>
 800417e:	687b      	ldr	r3, [r7, #4]
 8004180:	681b      	ldr	r3, [r3, #0]
 8004182:	4a58      	ldr	r2, [pc, #352]	@ (80042e4 <HAL_DMA_Abort_IT+0x1ac>)
 8004184:	4293      	cmp	r3, r2
 8004186:	d03b      	beq.n	8004200 <HAL_DMA_Abort_IT+0xc8>
 8004188:	687b      	ldr	r3, [r7, #4]
 800418a:	681b      	ldr	r3, [r3, #0]
 800418c:	4a56      	ldr	r2, [pc, #344]	@ (80042e8 <HAL_DMA_Abort_IT+0x1b0>)
 800418e:	4293      	cmp	r3, r2
 8004190:	d036      	beq.n	8004200 <HAL_DMA_Abort_IT+0xc8>
 8004192:	687b      	ldr	r3, [r7, #4]
 8004194:	681b      	ldr	r3, [r3, #0]
 8004196:	4a55      	ldr	r2, [pc, #340]	@ (80042ec <HAL_DMA_Abort_IT+0x1b4>)
 8004198:	4293      	cmp	r3, r2
 800419a:	d031      	beq.n	8004200 <HAL_DMA_Abort_IT+0xc8>
 800419c:	687b      	ldr	r3, [r7, #4]
 800419e:	681b      	ldr	r3, [r3, #0]
 80041a0:	4a53      	ldr	r2, [pc, #332]	@ (80042f0 <HAL_DMA_Abort_IT+0x1b8>)
 80041a2:	4293      	cmp	r3, r2
 80041a4:	d02c      	beq.n	8004200 <HAL_DMA_Abort_IT+0xc8>
 80041a6:	687b      	ldr	r3, [r7, #4]
 80041a8:	681b      	ldr	r3, [r3, #0]
 80041aa:	4a52      	ldr	r2, [pc, #328]	@ (80042f4 <HAL_DMA_Abort_IT+0x1bc>)
 80041ac:	4293      	cmp	r3, r2
 80041ae:	d027      	beq.n	8004200 <HAL_DMA_Abort_IT+0xc8>
 80041b0:	687b      	ldr	r3, [r7, #4]
 80041b2:	681b      	ldr	r3, [r3, #0]
 80041b4:	4a50      	ldr	r2, [pc, #320]	@ (80042f8 <HAL_DMA_Abort_IT+0x1c0>)
 80041b6:	4293      	cmp	r3, r2
 80041b8:	d022      	beq.n	8004200 <HAL_DMA_Abort_IT+0xc8>
 80041ba:	687b      	ldr	r3, [r7, #4]
 80041bc:	681b      	ldr	r3, [r3, #0]
 80041be:	4a4f      	ldr	r2, [pc, #316]	@ (80042fc <HAL_DMA_Abort_IT+0x1c4>)
 80041c0:	4293      	cmp	r3, r2
 80041c2:	d01d      	beq.n	8004200 <HAL_DMA_Abort_IT+0xc8>
 80041c4:	687b      	ldr	r3, [r7, #4]
 80041c6:	681b      	ldr	r3, [r3, #0]
 80041c8:	4a4d      	ldr	r2, [pc, #308]	@ (8004300 <HAL_DMA_Abort_IT+0x1c8>)
 80041ca:	4293      	cmp	r3, r2
 80041cc:	d018      	beq.n	8004200 <HAL_DMA_Abort_IT+0xc8>
 80041ce:	687b      	ldr	r3, [r7, #4]
 80041d0:	681b      	ldr	r3, [r3, #0]
 80041d2:	4a4c      	ldr	r2, [pc, #304]	@ (8004304 <HAL_DMA_Abort_IT+0x1cc>)
 80041d4:	4293      	cmp	r3, r2
 80041d6:	d013      	beq.n	8004200 <HAL_DMA_Abort_IT+0xc8>
 80041d8:	687b      	ldr	r3, [r7, #4]
 80041da:	681b      	ldr	r3, [r3, #0]
 80041dc:	4a4a      	ldr	r2, [pc, #296]	@ (8004308 <HAL_DMA_Abort_IT+0x1d0>)
 80041de:	4293      	cmp	r3, r2
 80041e0:	d00e      	beq.n	8004200 <HAL_DMA_Abort_IT+0xc8>
 80041e2:	687b      	ldr	r3, [r7, #4]
 80041e4:	681b      	ldr	r3, [r3, #0]
 80041e6:	4a49      	ldr	r2, [pc, #292]	@ (800430c <HAL_DMA_Abort_IT+0x1d4>)
 80041e8:	4293      	cmp	r3, r2
 80041ea:	d009      	beq.n	8004200 <HAL_DMA_Abort_IT+0xc8>
 80041ec:	687b      	ldr	r3, [r7, #4]
 80041ee:	681b      	ldr	r3, [r3, #0]
 80041f0:	4a47      	ldr	r2, [pc, #284]	@ (8004310 <HAL_DMA_Abort_IT+0x1d8>)
 80041f2:	4293      	cmp	r3, r2
 80041f4:	d004      	beq.n	8004200 <HAL_DMA_Abort_IT+0xc8>
 80041f6:	687b      	ldr	r3, [r7, #4]
 80041f8:	681b      	ldr	r3, [r3, #0]
 80041fa:	4a46      	ldr	r2, [pc, #280]	@ (8004314 <HAL_DMA_Abort_IT+0x1dc>)
 80041fc:	4293      	cmp	r3, r2
 80041fe:	d101      	bne.n	8004204 <HAL_DMA_Abort_IT+0xcc>
 8004200:	2301      	movs	r3, #1
 8004202:	e000      	b.n	8004206 <HAL_DMA_Abort_IT+0xce>
 8004204:	2300      	movs	r3, #0
 8004206:	2b00      	cmp	r3, #0
 8004208:	f000 8086 	beq.w	8004318 <HAL_DMA_Abort_IT+0x1e0>
 800420c:	687b      	ldr	r3, [r7, #4]
 800420e:	2204      	movs	r2, #4
 8004210:	f883 2035 	strb.w	r2, [r3, #53]	@ 0x35
 8004214:	687b      	ldr	r3, [r7, #4]
 8004216:	681b      	ldr	r3, [r3, #0]
 8004218:	4a2f      	ldr	r2, [pc, #188]	@ (80042d8 <HAL_DMA_Abort_IT+0x1a0>)
 800421a:	4293      	cmp	r3, r2
 800421c:	d04a      	beq.n	80042b4 <HAL_DMA_Abort_IT+0x17c>
 800421e:	687b      	ldr	r3, [r7, #4]
 8004220:	681b      	ldr	r3, [r3, #0]
 8004222:	4a2e      	ldr	r2, [pc, #184]	@ (80042dc <HAL_DMA_Abort_IT+0x1a4>)
 8004224:	4293      	cmp	r3, r2
 8004226:	d045      	beq.n	80042b4 <HAL_DMA_Abort_IT+0x17c>
 8004228:	687b      	ldr	r3, [r7, #4]
 800422a:	681b      	ldr	r3, [r3, #0]
 800422c:	4a2c      	ldr	r2, [pc, #176]	@ (80042e0 <HAL_DMA_Abort_IT+0x1a8>)
 800422e:	4293      	cmp	r3, r2
 8004230:	d040      	beq.n	80042b4 <HAL_DMA_Abort_IT+0x17c>
 8004232:	687b      	ldr	r3, [r7, #4]
 8004234:	681b      	ldr	r3, [r3, #0]
 8004236:	4a2b      	ldr	r2, [pc, #172]	@ (80042e4 <HAL_DMA_Abort_IT+0x1ac>)
 8004238:	4293      	cmp	r3, r2
 800423a:	d03b      	beq.n	80042b4 <HAL_DMA_Abort_IT+0x17c>
 800423c:	687b      	ldr	r3, [r7, #4]
 800423e:	681b      	ldr	r3, [r3, #0]
 8004240:	4a29      	ldr	r2, [pc, #164]	@ (80042e8 <HAL_DMA_Abort_IT+0x1b0>)
 8004242:	4293      	cmp	r3, r2
 8004244:	d036      	beq.n	80042b4 <HAL_DMA_Abort_IT+0x17c>
 8004246:	687b      	ldr	r3, [r7, #4]
 8004248:	681b      	ldr	r3, [r3, #0]
 800424a:	4a28      	ldr	r2, [pc, #160]	@ (80042ec <HAL_DMA_Abort_IT+0x1b4>)
 800424c:	4293      	cmp	r3, r2
 800424e:	d031      	beq.n	80042b4 <HAL_DMA_Abort_IT+0x17c>
 8004250:	687b      	ldr	r3, [r7, #4]
 8004252:	681b      	ldr	r3, [r3, #0]
 8004254:	4a26      	ldr	r2, [pc, #152]	@ (80042f0 <HAL_DMA_Abort_IT+0x1b8>)
 8004256:	4293      	cmp	r3, r2
 8004258:	d02c      	beq.n	80042b4 <HAL_DMA_Abort_IT+0x17c>
 800425a:	687b      	ldr	r3, [r7, #4]
 800425c:	681b      	ldr	r3, [r3, #0]
 800425e:	4a25      	ldr	r2, [pc, #148]	@ (80042f4 <HAL_DMA_Abort_IT+0x1bc>)
 8004260:	4293      	cmp	r3, r2
 8004262:	d027      	beq.n	80042b4 <HAL_DMA_Abort_IT+0x17c>
 8004264:	687b      	ldr	r3, [r7, #4]
 8004266:	681b      	ldr	r3, [r3, #0]
 8004268:	4a23      	ldr	r2, [pc, #140]	@ (80042f8 <HAL_DMA_Abort_IT+0x1c0>)
 800426a:	4293      	cmp	r3, r2
 800426c:	d022      	beq.n	80042b4 <HAL_DMA_Abort_IT+0x17c>
 800426e:	687b      	ldr	r3, [r7, #4]
 8004270:	681b      	ldr	r3, [r3, #0]
 8004272:	4a22      	ldr	r2, [pc, #136]	@ (80042fc <HAL_DMA_Abort_IT+0x1c4>)
 8004274:	4293      	cmp	r3, r2
 8004276:	d01d      	beq.n	80042b4 <HAL_DMA_Abort_IT+0x17c>
 8004278:	687b      	ldr	r3, [r7, #4]
 800427a:	681b      	ldr	r3, [r3, #0]
 800427c:	4a20      	ldr	r2, [pc, #128]	@ (8004300 <HAL_DMA_Abort_IT+0x1c8>)
 800427e:	4293      	cmp	r3, r2
 8004280:	d018      	beq.n	80042b4 <HAL_DMA_Abort_IT+0x17c>
 8004282:	687b      	ldr	r3, [r7, #4]
 8004284:	681b      	ldr	r3, [r3, #0]
 8004286:	4a1f      	ldr	r2, [pc, #124]	@ (8004304 <HAL_DMA_Abort_IT+0x1cc>)
 8004288:	4293      	cmp	r3, r2
 800428a:	d013      	beq.n	80042b4 <HAL_DMA_Abort_IT+0x17c>
 800428c:	687b      	ldr	r3, [r7, #4]
 800428e:	681b      	ldr	r3, [r3, #0]
 8004290:	4a1d      	ldr	r2, [pc, #116]	@ (8004308 <HAL_DMA_Abort_IT+0x1d0>)
 8004292:	4293      	cmp	r3, r2
 8004294:	d00e      	beq.n	80042b4 <HAL_DMA_Abort_IT+0x17c>
 8004296:	687b      	ldr	r3, [r7, #4]
 8004298:	681b      	ldr	r3, [r3, #0]
 800429a:	4a1c      	ldr	r2, [pc, #112]	@ (800430c <HAL_DMA_Abort_IT+0x1d4>)
 800429c:	4293      	cmp	r3, r2
 800429e:	d009      	beq.n	80042b4 <HAL_DMA_Abort_IT+0x17c>
 80042a0:	687b      	ldr	r3, [r7, #4]
 80042a2:	681b      	ldr	r3, [r3, #0]
 80042a4:	4a1a      	ldr	r2, [pc, #104]	@ (8004310 <HAL_DMA_Abort_IT+0x1d8>)
 80042a6:	4293      	cmp	r3, r2
 80042a8:	d004      	beq.n	80042b4 <HAL_DMA_Abort_IT+0x17c>
 80042aa:	687b      	ldr	r3, [r7, #4]
 80042ac:	681b      	ldr	r3, [r3, #0]
 80042ae:	4a19      	ldr	r2, [pc, #100]	@ (8004314 <HAL_DMA_Abort_IT+0x1dc>)
 80042b0:	4293      	cmp	r3, r2
 80042b2:	d108      	bne.n	80042c6 <HAL_DMA_Abort_IT+0x18e>
 80042b4:	687b      	ldr	r3, [r7, #4]
 80042b6:	681b      	ldr	r3, [r3, #0]
 80042b8:	681a      	ldr	r2, [r3, #0]
 80042ba:	687b      	ldr	r3, [r7, #4]
 80042bc:	681b      	ldr	r3, [r3, #0]
 80042be:	f022 0201 	bic.w	r2, r2, #1
 80042c2:	601a      	str	r2, [r3, #0]
 80042c4:	e178      	b.n	80045b8 <HAL_DMA_Abort_IT+0x480>
 80042c6:	687b      	ldr	r3, [r7, #4]
 80042c8:	681b      	ldr	r3, [r3, #0]
 80042ca:	681a      	ldr	r2, [r3, #0]
 80042cc:	687b      	ldr	r3, [r7, #4]
 80042ce:	681b      	ldr	r3, [r3, #0]
 80042d0:	f022 0201 	bic.w	r2, r2, #1
 80042d4:	601a      	str	r2, [r3, #0]
 80042d6:	e16f      	b.n	80045b8 <HAL_DMA_Abort_IT+0x480>
 80042d8:	40020010 	.word	0x40020010
 80042dc:	40020028 	.word	0x40020028
 80042e0:	40020040 	.word	0x40020040
 80042e4:	40020058 	.word	0x40020058
 80042e8:	40020070 	.word	0x40020070
 80042ec:	40020088 	.word	0x40020088
 80042f0:	400200a0 	.word	0x400200a0
 80042f4:	400200b8 	.word	0x400200b8
 80042f8:	40020410 	.word	0x40020410
 80042fc:	40020428 	.word	0x40020428
 8004300:	40020440 	.word	0x40020440
 8004304:	40020458 	.word	0x40020458
 8004308:	40020470 	.word	0x40020470
 800430c:	40020488 	.word	0x40020488
 8004310:	400204a0 	.word	0x400204a0
 8004314:	400204b8 	.word	0x400204b8
 8004318:	687b      	ldr	r3, [r7, #4]
 800431a:	681b      	ldr	r3, [r3, #0]
 800431c:	681a      	ldr	r2, [r3, #0]
 800431e:	687b      	ldr	r3, [r7, #4]
 8004320:	681b      	ldr	r3, [r3, #0]
 8004322:	f022 020e 	bic.w	r2, r2, #14
 8004326:	601a      	str	r2, [r3, #0]
 8004328:	687b      	ldr	r3, [r7, #4]
 800432a:	681b      	ldr	r3, [r3, #0]
 800432c:	4a6c      	ldr	r2, [pc, #432]	@ (80044e0 <HAL_DMA_Abort_IT+0x3a8>)
 800432e:	4293      	cmp	r3, r2
 8004330:	d04a      	beq.n	80043c8 <HAL_DMA_Abort_IT+0x290>
 8004332:	687b      	ldr	r3, [r7, #4]
 8004334:	681b      	ldr	r3, [r3, #0]
 8004336:	4a6b      	ldr	r2, [pc, #428]	@ (80044e4 <HAL_DMA_Abort_IT+0x3ac>)
 8004338:	4293      	cmp	r3, r2
 800433a:	d045      	beq.n	80043c8 <HAL_DMA_Abort_IT+0x290>
 800433c:	687b      	ldr	r3, [r7, #4]
 800433e:	681b      	ldr	r3, [r3, #0]
 8004340:	4a69      	ldr	r2, [pc, #420]	@ (80044e8 <HAL_DMA_Abort_IT+0x3b0>)
 8004342:	4293      	cmp	r3, r2
 8004344:	d040      	beq.n	80043c8 <HAL_DMA_Abort_IT+0x290>
 8004346:	687b      	ldr	r3, [r7, #4]
 8004348:	681b      	ldr	r3, [r3, #0]
 800434a:	4a68      	ldr	r2, [pc, #416]	@ (80044ec <HAL_DMA_Abort_IT+0x3b4>)
 800434c:	4293      	cmp	r3, r2
 800434e:	d03b      	beq.n	80043c8 <HAL_DMA_Abort_IT+0x290>
 8004350:	687b      	ldr	r3, [r7, #4]
 8004352:	681b      	ldr	r3, [r3, #0]
 8004354:	4a66      	ldr	r2, [pc, #408]	@ (80044f0 <HAL_DMA_Abort_IT+0x3b8>)
 8004356:	4293      	cmp	r3, r2
 8004358:	d036      	beq.n	80043c8 <HAL_DMA_Abort_IT+0x290>
 800435a:	687b      	ldr	r3, [r7, #4]
 800435c:	681b      	ldr	r3, [r3, #0]
 800435e:	4a65      	ldr	r2, [pc, #404]	@ (80044f4 <HAL_DMA_Abort_IT+0x3bc>)
 8004360:	4293      	cmp	r3, r2
 8004362:	d031      	beq.n	80043c8 <HAL_DMA_Abort_IT+0x290>
 8004364:	687b      	ldr	r3, [r7, #4]
 8004366:	681b      	ldr	r3, [r3, #0]
 8004368:	4a63      	ldr	r2, [pc, #396]	@ (80044f8 <HAL_DMA_Abort_IT+0x3c0>)
 800436a:	4293      	cmp	r3, r2
 800436c:	d02c      	beq.n	80043c8 <HAL_DMA_Abort_IT+0x290>
 800436e:	687b      	ldr	r3, [r7, #4]
 8004370:	681b      	ldr	r3, [r3, #0]
 8004372:	4a62      	ldr	r2, [pc, #392]	@ (80044fc <HAL_DMA_Abort_IT+0x3c4>)
 8004374:	4293      	cmp	r3, r2
 8004376:	d027      	beq.n	80043c8 <HAL_DMA_Abort_IT+0x290>
 8004378:	687b      	ldr	r3, [r7, #4]
 800437a:	681b      	ldr	r3, [r3, #0]
 800437c:	4a60      	ldr	r2, [pc, #384]	@ (8004500 <HAL_DMA_Abort_IT+0x3c8>)
 800437e:	4293      	cmp	r3, r2
 8004380:	d022      	beq.n	80043c8 <HAL_DMA_Abort_IT+0x290>
 8004382:	687b      	ldr	r3, [r7, #4]
 8004384:	681b      	ldr	r3, [r3, #0]
 8004386:	4a5f      	ldr	r2, [pc, #380]	@ (8004504 <HAL_DMA_Abort_IT+0x3cc>)
 8004388:	4293      	cmp	r3, r2
 800438a:	d01d      	beq.n	80043c8 <HAL_DMA_Abort_IT+0x290>
 800438c:	687b      	ldr	r3, [r7, #4]
 800438e:	681b      	ldr	r3, [r3, #0]
 8004390:	4a5d      	ldr	r2, [pc, #372]	@ (8004508 <HAL_DMA_Abort_IT+0x3d0>)
 8004392:	4293      	cmp	r3, r2
 8004394:	d018      	beq.n	80043c8 <HAL_DMA_Abort_IT+0x290>
 8004396:	687b      	ldr	r3, [r7, #4]
 8004398:	681b      	ldr	r3, [r3, #0]
 800439a:	4a5c      	ldr	r2, [pc, #368]	@ (800450c <HAL_DMA_Abort_IT+0x3d4>)
 800439c:	4293      	cmp	r3, r2
 800439e:	d013      	beq.n	80043c8 <HAL_DMA_Abort_IT+0x290>
 80043a0:	687b      	ldr	r3, [r7, #4]
 80043a2:	681b      	ldr	r3, [r3, #0]
 80043a4:	4a5a      	ldr	r2, [pc, #360]	@ (8004510 <HAL_DMA_Abort_IT+0x3d8>)
 80043a6:	4293      	cmp	r3, r2
 80043a8:	d00e      	beq.n	80043c8 <HAL_DMA_Abort_IT+0x290>
 80043aa:	687b      	ldr	r3, [r7, #4]
 80043ac:	681b      	ldr	r3, [r3, #0]
 80043ae:	4a59      	ldr	r2, [pc, #356]	@ (8004514 <HAL_DMA_Abort_IT+0x3dc>)
 80043b0:	4293      	cmp	r3, r2
 80043b2:	d009      	beq.n	80043c8 <HAL_DMA_Abort_IT+0x290>
 80043b4:	687b      	ldr	r3, [r7, #4]
 80043b6:	681b      	ldr	r3, [r3, #0]
 80043b8:	4a57      	ldr	r2, [pc, #348]	@ (8004518 <HAL_DMA_Abort_IT+0x3e0>)
 80043ba:	4293      	cmp	r3, r2
 80043bc:	d004      	beq.n	80043c8 <HAL_DMA_Abort_IT+0x290>
 80043be:	687b      	ldr	r3, [r7, #4]
 80043c0:	681b      	ldr	r3, [r3, #0]
 80043c2:	4a56      	ldr	r2, [pc, #344]	@ (800451c <HAL_DMA_Abort_IT+0x3e4>)
 80043c4:	4293      	cmp	r3, r2
 80043c6:	d108      	bne.n	80043da <HAL_DMA_Abort_IT+0x2a2>
 80043c8:	687b      	ldr	r3, [r7, #4]
 80043ca:	681b      	ldr	r3, [r3, #0]
 80043cc:	681a      	ldr	r2, [r3, #0]
 80043ce:	687b      	ldr	r3, [r7, #4]
 80043d0:	681b      	ldr	r3, [r3, #0]
 80043d2:	f022 0201 	bic.w	r2, r2, #1
 80043d6:	601a      	str	r2, [r3, #0]
 80043d8:	e007      	b.n	80043ea <HAL_DMA_Abort_IT+0x2b2>
 80043da:	687b      	ldr	r3, [r7, #4]
 80043dc:	681b      	ldr	r3, [r3, #0]
 80043de:	681a      	ldr	r2, [r3, #0]
 80043e0:	687b      	ldr	r3, [r7, #4]
 80043e2:	681b      	ldr	r3, [r3, #0]
 80043e4:	f022 0201 	bic.w	r2, r2, #1
 80043e8:	601a      	str	r2, [r3, #0]
 80043ea:	687b      	ldr	r3, [r7, #4]
 80043ec:	681b      	ldr	r3, [r3, #0]
 80043ee:	4a3c      	ldr	r2, [pc, #240]	@ (80044e0 <HAL_DMA_Abort_IT+0x3a8>)
 80043f0:	4293      	cmp	r3, r2
 80043f2:	d072      	beq.n	80044da <HAL_DMA_Abort_IT+0x3a2>
 80043f4:	687b      	ldr	r3, [r7, #4]
 80043f6:	681b      	ldr	r3, [r3, #0]
 80043f8:	4a3a      	ldr	r2, [pc, #232]	@ (80044e4 <HAL_DMA_Abort_IT+0x3ac>)
 80043fa:	4293      	cmp	r3, r2
 80043fc:	d06d      	beq.n	80044da <HAL_DMA_Abort_IT+0x3a2>
 80043fe:	687b      	ldr	r3, [r7, #4]
 8004400:	681b      	ldr	r3, [r3, #0]
 8004402:	4a39      	ldr	r2, [pc, #228]	@ (80044e8 <HAL_DMA_Abort_IT+0x3b0>)
 8004404:	4293      	cmp	r3, r2
 8004406:	d068      	beq.n	80044da <HAL_DMA_Abort_IT+0x3a2>
 8004408:	687b      	ldr	r3, [r7, #4]
 800440a:	681b      	ldr	r3, [r3, #0]
 800440c:	4a37      	ldr	r2, [pc, #220]	@ (80044ec <HAL_DMA_Abort_IT+0x3b4>)
 800440e:	4293      	cmp	r3, r2
 8004410:	d063      	beq.n	80044da <HAL_DMA_Abort_IT+0x3a2>
 8004412:	687b      	ldr	r3, [r7, #4]
 8004414:	681b      	ldr	r3, [r3, #0]
 8004416:	4a36      	ldr	r2, [pc, #216]	@ (80044f0 <HAL_DMA_Abort_IT+0x3b8>)
 8004418:	4293      	cmp	r3, r2
 800441a:	d05e      	beq.n	80044da <HAL_DMA_Abort_IT+0x3a2>
 800441c:	687b      	ldr	r3, [r7, #4]
 800441e:	681b      	ldr	r3, [r3, #0]
 8004420:	4a34      	ldr	r2, [pc, #208]	@ (80044f4 <HAL_DMA_Abort_IT+0x3bc>)
 8004422:	4293      	cmp	r3, r2
 8004424:	d059      	beq.n	80044da <HAL_DMA_Abort_IT+0x3a2>
 8004426:	687b      	ldr	r3, [r7, #4]
 8004428:	681b      	ldr	r3, [r3, #0]
 800442a:	4a33      	ldr	r2, [pc, #204]	@ (80044f8 <HAL_DMA_Abort_IT+0x3c0>)
 800442c:	4293      	cmp	r3, r2
 800442e:	d054      	beq.n	80044da <HAL_DMA_Abort_IT+0x3a2>
 8004430:	687b      	ldr	r3, [r7, #4]
 8004432:	681b      	ldr	r3, [r3, #0]
 8004434:	4a31      	ldr	r2, [pc, #196]	@ (80044fc <HAL_DMA_Abort_IT+0x3c4>)
 8004436:	4293      	cmp	r3, r2
 8004438:	d04f      	beq.n	80044da <HAL_DMA_Abort_IT+0x3a2>
 800443a:	687b      	ldr	r3, [r7, #4]
 800443c:	681b      	ldr	r3, [r3, #0]
 800443e:	4a30      	ldr	r2, [pc, #192]	@ (8004500 <HAL_DMA_Abort_IT+0x3c8>)
 8004440:	4293      	cmp	r3, r2
 8004442:	d04a      	beq.n	80044da <HAL_DMA_Abort_IT+0x3a2>
 8004444:	687b      	ldr	r3, [r7, #4]
 8004446:	681b      	ldr	r3, [r3, #0]
 8004448:	4a2e      	ldr	r2, [pc, #184]	@ (8004504 <HAL_DMA_Abort_IT+0x3cc>)
 800444a:	4293      	cmp	r3, r2
 800444c:	d045      	beq.n	80044da <HAL_DMA_Abort_IT+0x3a2>
 800444e:	687b      	ldr	r3, [r7, #4]
 8004450:	681b      	ldr	r3, [r3, #0]
 8004452:	4a2d      	ldr	r2, [pc, #180]	@ (8004508 <HAL_DMA_Abort_IT+0x3d0>)
 8004454:	4293      	cmp	r3, r2
 8004456:	d040      	beq.n	80044da <HAL_DMA_Abort_IT+0x3a2>
 8004458:	687b      	ldr	r3, [r7, #4]
 800445a:	681b      	ldr	r3, [r3, #0]
 800445c:	4a2b      	ldr	r2, [pc, #172]	@ (800450c <HAL_DMA_Abort_IT+0x3d4>)
 800445e:	4293      	cmp	r3, r2
 8004460:	d03b      	beq.n	80044da <HAL_DMA_Abort_IT+0x3a2>
 8004462:	687b      	ldr	r3, [r7, #4]
 8004464:	681b      	ldr	r3, [r3, #0]
 8004466:	4a2a      	ldr	r2, [pc, #168]	@ (8004510 <HAL_DMA_Abort_IT+0x3d8>)
 8004468:	4293      	cmp	r3, r2
 800446a:	d036      	beq.n	80044da <HAL_DMA_Abort_IT+0x3a2>
 800446c:	687b      	ldr	r3, [r7, #4]
 800446e:	681b      	ldr	r3, [r3, #0]
 8004470:	4a28      	ldr	r2, [pc, #160]	@ (8004514 <HAL_DMA_Abort_IT+0x3dc>)
 8004472:	4293      	cmp	r3, r2
 8004474:	d031      	beq.n	80044da <HAL_DMA_Abort_IT+0x3a2>
 8004476:	687b      	ldr	r3, [r7, #4]
 8004478:	681b      	ldr	r3, [r3, #0]
 800447a:	4a27      	ldr	r2, [pc, #156]	@ (8004518 <HAL_DMA_Abort_IT+0x3e0>)
 800447c:	4293      	cmp	r3, r2
 800447e:	d02c      	beq.n	80044da <HAL_DMA_Abort_IT+0x3a2>
 8004480:	687b      	ldr	r3, [r7, #4]
 8004482:	681b      	ldr	r3, [r3, #0]
 8004484:	4a25      	ldr	r2, [pc, #148]	@ (800451c <HAL_DMA_Abort_IT+0x3e4>)
 8004486:	4293      	cmp	r3, r2
 8004488:	d027      	beq.n	80044da <HAL_DMA_Abort_IT+0x3a2>
 800448a:	687b      	ldr	r3, [r7, #4]
 800448c:	681b      	ldr	r3, [r3, #0]
 800448e:	4a24      	ldr	r2, [pc, #144]	@ (8004520 <HAL_DMA_Abort_IT+0x3e8>)
 8004490:	4293      	cmp	r3, r2
 8004492:	d022      	beq.n	80044da <HAL_DMA_Abort_IT+0x3a2>
 8004494:	687b      	ldr	r3, [r7, #4]
 8004496:	681b      	ldr	r3, [r3, #0]
 8004498:	4a22      	ldr	r2, [pc, #136]	@ (8004524 <HAL_DMA_Abort_IT+0x3ec>)
 800449a:	4293      	cmp	r3, r2
 800449c:	d01d      	beq.n	80044da <HAL_DMA_Abort_IT+0x3a2>
 800449e:	687b      	ldr	r3, [r7, #4]
 80044a0:	681b      	ldr	r3, [r3, #0]
 80044a2:	4a21      	ldr	r2, [pc, #132]	@ (8004528 <HAL_DMA_Abort_IT+0x3f0>)
 80044a4:	4293      	cmp	r3, r2
 80044a6:	d018      	beq.n	80044da <HAL_DMA_Abort_IT+0x3a2>
 80044a8:	687b      	ldr	r3, [r7, #4]
 80044aa:	681b      	ldr	r3, [r3, #0]
 80044ac:	4a1f      	ldr	r2, [pc, #124]	@ (800452c <HAL_DMA_Abort_IT+0x3f4>)
 80044ae:	4293      	cmp	r3, r2
 80044b0:	d013      	beq.n	80044da <HAL_DMA_Abort_IT+0x3a2>
 80044b2:	687b      	ldr	r3, [r7, #4]
 80044b4:	681b      	ldr	r3, [r3, #0]
 80044b6:	4a1e      	ldr	r2, [pc, #120]	@ (8004530 <HAL_DMA_Abort_IT+0x3f8>)
 80044b8:	4293      	cmp	r3, r2
 80044ba:	d00e      	beq.n	80044da <HAL_DMA_Abort_IT+0x3a2>
 80044bc:	687b      	ldr	r3, [r7, #4]
 80044be:	681b      	ldr	r3, [r3, #0]
 80044c0:	4a1c      	ldr	r2, [pc, #112]	@ (8004534 <HAL_DMA_Abort_IT+0x3fc>)
 80044c2:	4293      	cmp	r3, r2
 80044c4:	d009      	beq.n	80044da <HAL_DMA_Abort_IT+0x3a2>
 80044c6:	687b      	ldr	r3, [r7, #4]
 80044c8:	681b      	ldr	r3, [r3, #0]
 80044ca:	4a1b      	ldr	r2, [pc, #108]	@ (8004538 <HAL_DMA_Abort_IT+0x400>)
 80044cc:	4293      	cmp	r3, r2
 80044ce:	d004      	beq.n	80044da <HAL_DMA_Abort_IT+0x3a2>
 80044d0:	687b      	ldr	r3, [r7, #4]
 80044d2:	681b      	ldr	r3, [r3, #0]
 80044d4:	4a19      	ldr	r2, [pc, #100]	@ (800453c <HAL_DMA_Abort_IT+0x404>)
 80044d6:	4293      	cmp	r3, r2
 80044d8:	d132      	bne.n	8004540 <HAL_DMA_Abort_IT+0x408>
 80044da:	2301      	movs	r3, #1
 80044dc:	e031      	b.n	8004542 <HAL_DMA_Abort_IT+0x40a>
 80044de:	bf00      	nop
 80044e0:	40020010 	.word	0x40020010
 80044e4:	40020028 	.word	0x40020028
 80044e8:	40020040 	.word	0x40020040
 80044ec:	40020058 	.word	0x40020058
 80044f0:	40020070 	.word	0x40020070
 80044f4:	40020088 	.word	0x40020088
 80044f8:	400200a0 	.word	0x400200a0
 80044fc:	400200b8 	.word	0x400200b8
 8004500:	40020410 	.word	0x40020410
 8004504:	40020428 	.word	0x40020428
 8004508:	40020440 	.word	0x40020440
 800450c:	40020458 	.word	0x40020458
 8004510:	40020470 	.word	0x40020470
 8004514:	40020488 	.word	0x40020488
 8004518:	400204a0 	.word	0x400204a0
 800451c:	400204b8 	.word	0x400204b8
 8004520:	58025408 	.word	0x58025408
 8004524:	5802541c 	.word	0x5802541c
 8004528:	58025430 	.word	0x58025430
 800452c:	58025444 	.word	0x58025444
 8004530:	58025458 	.word	0x58025458
 8004534:	5802546c 	.word	0x5802546c
 8004538:	58025480 	.word	0x58025480
 800453c:	58025494 	.word	0x58025494
 8004540:	2300      	movs	r3, #0
 8004542:	2b00      	cmp	r3, #0
 8004544:	d028      	beq.n	8004598 <HAL_DMA_Abort_IT+0x460>
 8004546:	687b      	ldr	r3, [r7, #4]
 8004548:	6e1b      	ldr	r3, [r3, #96]	@ 0x60
 800454a:	681a      	ldr	r2, [r3, #0]
 800454c:	687b      	ldr	r3, [r7, #4]
 800454e:	6e1b      	ldr	r3, [r3, #96]	@ 0x60
 8004550:	f422 7280 	bic.w	r2, r2, #256	@ 0x100
 8004554:	601a      	str	r2, [r3, #0]
 8004556:	687b      	ldr	r3, [r7, #4]
 8004558:	6d9b      	ldr	r3, [r3, #88]	@ 0x58
 800455a:	60fb      	str	r3, [r7, #12]
 800455c:	687b      	ldr	r3, [r7, #4]
 800455e:	6ddb      	ldr	r3, [r3, #92]	@ 0x5c
 8004560:	f003 031f 	and.w	r3, r3, #31
 8004564:	2201      	movs	r2, #1
 8004566:	409a      	lsls	r2, r3
 8004568:	68fb      	ldr	r3, [r7, #12]
 800456a:	605a      	str	r2, [r3, #4]
 800456c:	687b      	ldr	r3, [r7, #4]
 800456e:	6e5b      	ldr	r3, [r3, #100]	@ 0x64
 8004570:	687a      	ldr	r2, [r7, #4]
 8004572:	6e92      	ldr	r2, [r2, #104]	@ 0x68
 8004574:	605a      	str	r2, [r3, #4]
 8004576:	687b      	ldr	r3, [r7, #4]
 8004578:	6edb      	ldr	r3, [r3, #108]	@ 0x6c
 800457a:	2b00      	cmp	r3, #0
 800457c:	d00c      	beq.n	8004598 <HAL_DMA_Abort_IT+0x460>
 800457e:	687b      	ldr	r3, [r7, #4]
 8004580:	6edb      	ldr	r3, [r3, #108]	@ 0x6c
 8004582:	681a      	ldr	r2, [r3, #0]
 8004584:	687b      	ldr	r3, [r7, #4]
 8004586:	6edb      	ldr	r3, [r3, #108]	@ 0x6c
 8004588:	f422 7280 	bic.w	r2, r2, #256	@ 0x100
 800458c:	601a      	str	r2, [r3, #0]
 800458e:	687b      	ldr	r3, [r7, #4]
 8004590:	6f1b      	ldr	r3, [r3, #112]	@ 0x70
 8004592:	687a      	ldr	r2, [r7, #4]
 8004594:	6f52      	ldr	r2, [r2, #116]	@ 0x74
 8004596:	605a      	str	r2, [r3, #4]
 8004598:	687b      	ldr	r3, [r7, #4]
 800459a:	2201      	movs	r2, #1
 800459c:	f883 2035 	strb.w	r2, [r3, #53]	@ 0x35
 80045a0:	687b      	ldr	r3, [r7, #4]
 80045a2:	2200      	movs	r2, #0
 80045a4:	f883 2034 	strb.w	r2, [r3, #52]	@ 0x34
 80045a8:	687b      	ldr	r3, [r7, #4]
 80045aa:	6d1b      	ldr	r3, [r3, #80]	@ 0x50
 80045ac:	2b00      	cmp	r3, #0
 80045ae:	d003      	beq.n	80045b8 <HAL_DMA_Abort_IT+0x480>
 80045b0:	687b      	ldr	r3, [r7, #4]
 80045b2:	6d1b      	ldr	r3, [r3, #80]	@ 0x50
 80045b4:	6878      	ldr	r0, [r7, #4]
 80045b6:	4798      	blx	r3
 80045b8:	2300      	movs	r3, #0
 80045ba:	4618      	mov	r0, r3
 80045bc:	3710      	adds	r7, #16
 80045be:	46bd      	mov	sp, r7
 80045c0:	bd80      	pop	{r7, pc}
 80045c2:	bf00      	nop

080045c4 <HAL_DMA_IRQHandler>:
 80045c4:	b580      	push	{r7, lr}
 80045c6:	b08a      	sub	sp, #40	@ 0x28
 80045c8:	af00      	add	r7, sp, #0
 80045ca:	6078      	str	r0, [r7, #4]
 80045cc:	2300      	movs	r3, #0
 80045ce:	60fb      	str	r3, [r7, #12]
 80045d0:	4b67      	ldr	r3, [pc, #412]	@ (8004770 <HAL_DMA_IRQHandler+0x1ac>)
 80045d2:	681b      	ldr	r3, [r3, #0]
 80045d4:	4a67      	ldr	r2, [pc, #412]	@ (8004774 <HAL_DMA_IRQHandler+0x1b0>)
 80045d6:	fba2 2303 	umull	r2, r3, r2, r3
 80045da:	0a9b      	lsrs	r3, r3, #10
 80045dc:	627b      	str	r3, [r7, #36]	@ 0x24
 80045de:	687b      	ldr	r3, [r7, #4]
 80045e0:	6d9b      	ldr	r3, [r3, #88]	@ 0x58
 80045e2:	623b      	str	r3, [r7, #32]
 80045e4:	687b      	ldr	r3, [r7, #4]
 80045e6:	6d9b      	ldr	r3, [r3, #88]	@ 0x58
 80045e8:	61fb      	str	r3, [r7, #28]
 80045ea:	6a3b      	ldr	r3, [r7, #32]
 80045ec:	681b      	ldr	r3, [r3, #0]
 80045ee:	61bb      	str	r3, [r7, #24]
 80045f0:	69fb      	ldr	r3, [r7, #28]
 80045f2:	681b      	ldr	r3, [r3, #0]
 80045f4:	617b      	str	r3, [r7, #20]
 80045f6:	687b      	ldr	r3, [r7, #4]
 80045f8:	681b      	ldr	r3, [r3, #0]
 80045fa:	4a5f      	ldr	r2, [pc, #380]	@ (8004778 <HAL_DMA_IRQHandler+0x1b4>)
 80045fc:	4293      	cmp	r3, r2
 80045fe:	d04a      	beq.n	8004696 <HAL_DMA_IRQHandler+0xd2>
 8004600:	687b      	ldr	r3, [r7, #4]
 8004602:	681b      	ldr	r3, [r3, #0]
 8004604:	4a5d      	ldr	r2, [pc, #372]	@ (800477c <HAL_DMA_IRQHandler+0x1b8>)
 8004606:	4293      	cmp	r3, r2
 8004608:	d045      	beq.n	8004696 <HAL_DMA_IRQHandler+0xd2>
 800460a:	687b      	ldr	r3, [r7, #4]
 800460c:	681b      	ldr	r3, [r3, #0]
 800460e:	4a5c      	ldr	r2, [pc, #368]	@ (8004780 <HAL_DMA_IRQHandler+0x1bc>)
 8004610:	4293      	cmp	r3, r2
 8004612:	d040      	beq.n	8004696 <HAL_DMA_IRQHandler+0xd2>
 8004614:	687b      	ldr	r3, [r7, #4]
 8004616:	681b      	ldr	r3, [r3, #0]
 8004618:	4a5a      	ldr	r2, [pc, #360]	@ (8004784 <HAL_DMA_IRQHandler+0x1c0>)
 800461a:	4293      	cmp	r3, r2
 800461c:	d03b      	beq.n	8004696 <HAL_DMA_IRQHandler+0xd2>
 800461e:	687b      	ldr	r3, [r7, #4]
 8004620:	681b      	ldr	r3, [r3, #0]
 8004622:	4a59      	ldr	r2, [pc, #356]	@ (8004788 <HAL_DMA_IRQHandler+0x1c4>)
 8004624:	4293      	cmp	r3, r2
 8004626:	d036      	beq.n	8004696 <HAL_DMA_IRQHandler+0xd2>
 8004628:	687b      	ldr	r3, [r7, #4]
 800462a:	681b      	ldr	r3, [r3, #0]
 800462c:	4a57      	ldr	r2, [pc, #348]	@ (800478c <HAL_DMA_IRQHandler+0x1c8>)
 800462e:	4293      	cmp	r3, r2
 8004630:	d031      	beq.n	8004696 <HAL_DMA_IRQHandler+0xd2>
 8004632:	687b      	ldr	r3, [r7, #4]
 8004634:	681b      	ldr	r3, [r3, #0]
 8004636:	4a56      	ldr	r2, [pc, #344]	@ (8004790 <HAL_DMA_IRQHandler+0x1cc>)
 8004638:	4293      	cmp	r3, r2
 800463a:	d02c      	beq.n	8004696 <HAL_DMA_IRQHandler+0xd2>
 800463c:	687b      	ldr	r3, [r7, #4]
 800463e:	681b      	ldr	r3, [r3, #0]
 8004640:	4a54      	ldr	r2, [pc, #336]	@ (8004794 <HAL_DMA_IRQHandler+0x1d0>)
 8004642:	4293      	cmp	r3, r2
 8004644:	d027      	beq.n	8004696 <HAL_DMA_IRQHandler+0xd2>
 8004646:	687b      	ldr	r3, [r7, #4]
 8004648:	681b      	ldr	r3, [r3, #0]
 800464a:	4a53      	ldr	r2, [pc, #332]	@ (8004798 <HAL_DMA_IRQHandler+0x1d4>)
 800464c:	4293      	cmp	r3, r2
 800464e:	d022      	beq.n	8004696 <HAL_DMA_IRQHandler+0xd2>
 8004650:	687b      	ldr	r3, [r7, #4]
 8004652:	681b      	ldr	r3, [r3, #0]
 8004654:	4a51      	ldr	r2, [pc, #324]	@ (800479c <HAL_DMA_IRQHandler+0x1d8>)
 8004656:	4293      	cmp	r3, r2
 8004658:	d01d      	beq.n	8004696 <HAL_DMA_IRQHandler+0xd2>
 800465a:	687b      	ldr	r3, [r7, #4]
 800465c:	681b      	ldr	r3, [r3, #0]
 800465e:	4a50      	ldr	r2, [pc, #320]	@ (80047a0 <HAL_DMA_IRQHandler+0x1dc>)
 8004660:	4293      	cmp	r3, r2
 8004662:	d018      	beq.n	8004696 <HAL_DMA_IRQHandler+0xd2>
 8004664:	687b      	ldr	r3, [r7, #4]
 8004666:	681b      	ldr	r3, [r3, #0]
 8004668:	4a4e      	ldr	r2, [pc, #312]	@ (80047a4 <HAL_DMA_IRQHandler+0x1e0>)
 800466a:	4293      	cmp	r3, r2
 800466c:	d013      	beq.n	8004696 <HAL_DMA_IRQHandler+0xd2>
 800466e:	687b      	ldr	r3, [r7, #4]
 8004670:	681b      	ldr	r3, [r3, #0]
 8004672:	4a4d      	ldr	r2, [pc, #308]	@ (80047a8 <HAL_DMA_IRQHandler+0x1e4>)
 8004674:	4293      	cmp	r3, r2
 8004676:	d00e      	beq.n	8004696 <HAL_DMA_IRQHandler+0xd2>
 8004678:	687b      	ldr	r3, [r7, #4]
 800467a:	681b      	ldr	r3, [r3, #0]
 800467c:	4a4b      	ldr	r2, [pc, #300]	@ (80047ac <HAL_DMA_IRQHandler+0x1e8>)
 800467e:	4293      	cmp	r3, r2
 8004680:	d009      	beq.n	8004696 <HAL_DMA_IRQHandler+0xd2>
 8004682:	687b      	ldr	r3, [r7, #4]
 8004684:	681b      	ldr	r3, [r3, #0]
 8004686:	4a4a      	ldr	r2, [pc, #296]	@ (80047b0 <HAL_DMA_IRQHandler+0x1ec>)
 8004688:	4293      	cmp	r3, r2
 800468a:	d004      	beq.n	8004696 <HAL_DMA_IRQHandler+0xd2>
 800468c:	687b      	ldr	r3, [r7, #4]
 800468e:	681b      	ldr	r3, [r3, #0]
 8004690:	4a48      	ldr	r2, [pc, #288]	@ (80047b4 <HAL_DMA_IRQHandler+0x1f0>)
 8004692:	4293      	cmp	r3, r2
 8004694:	d101      	bne.n	800469a <HAL_DMA_IRQHandler+0xd6>
 8004696:	2301      	movs	r3, #1
 8004698:	e000      	b.n	800469c <HAL_DMA_IRQHandler+0xd8>
 800469a:	2300      	movs	r3, #0
 800469c:	2b00      	cmp	r3, #0
 800469e:	f000 842b 	beq.w	8004ef8 <HAL_DMA_IRQHandler+0x934>
 80046a2:	687b      	ldr	r3, [r7, #4]
 80046a4:	6ddb      	ldr	r3, [r3, #92]	@ 0x5c
 80046a6:	f003 031f 	and.w	r3, r3, #31
 80046aa:	2208      	movs	r2, #8
 80046ac:	409a      	lsls	r2, r3
 80046ae:	69bb      	ldr	r3, [r7, #24]
 80046b0:	4013      	ands	r3, r2
 80046b2:	2b00      	cmp	r3, #0
 80046b4:	f000 80a2 	beq.w	80047fc <HAL_DMA_IRQHandler+0x238>
 80046b8:	687b      	ldr	r3, [r7, #4]
 80046ba:	681b      	ldr	r3, [r3, #0]
 80046bc:	4a2e      	ldr	r2, [pc, #184]	@ (8004778 <HAL_DMA_IRQHandler+0x1b4>)
 80046be:	4293      	cmp	r3, r2
 80046c0:	d04a      	beq.n	8004758 <HAL_DMA_IRQHandler+0x194>
 80046c2:	687b      	ldr	r3, [r7, #4]
 80046c4:	681b      	ldr	r3, [r3, #0]
 80046c6:	4a2d      	ldr	r2, [pc, #180]	@ (800477c <HAL_DMA_IRQHandler+0x1b8>)
 80046c8:	4293      	cmp	r3, r2
 80046ca:	d045      	beq.n	8004758 <HAL_DMA_IRQHandler+0x194>
 80046cc:	687b      	ldr	r3, [r7, #4]
 80046ce:	681b      	ldr	r3, [r3, #0]
 80046d0:	4a2b      	ldr	r2, [pc, #172]	@ (8004780 <HAL_DMA_IRQHandler+0x1bc>)
 80046d2:	4293      	cmp	r3, r2
 80046d4:	d040      	beq.n	8004758 <HAL_DMA_IRQHandler+0x194>
 80046d6:	687b      	ldr	r3, [r7, #4]
 80046d8:	681b      	ldr	r3, [r3, #0]
 80046da:	4a2a      	ldr	r2, [pc, #168]	@ (8004784 <HAL_DMA_IRQHandler+0x1c0>)
 80046dc:	4293      	cmp	r3, r2
 80046de:	d03b      	beq.n	8004758 <HAL_DMA_IRQHandler+0x194>
 80046e0:	687b      	ldr	r3, [r7, #4]
 80046e2:	681b      	ldr	r3, [r3, #0]
 80046e4:	4a28      	ldr	r2, [pc, #160]	@ (8004788 <HAL_DMA_IRQHandler+0x1c4>)
 80046e6:	4293      	cmp	r3, r2
 80046e8:	d036      	beq.n	8004758 <HAL_DMA_IRQHandler+0x194>
 80046ea:	687b      	ldr	r3, [r7, #4]
 80046ec:	681b      	ldr	r3, [r3, #0]
 80046ee:	4a27      	ldr	r2, [pc, #156]	@ (800478c <HAL_DMA_IRQHandler+0x1c8>)
 80046f0:	4293      	cmp	r3, r2
 80046f2:	d031      	beq.n	8004758 <HAL_DMA_IRQHandler+0x194>
 80046f4:	687b      	ldr	r3, [r7, #4]
 80046f6:	681b      	ldr	r3, [r3, #0]
 80046f8:	4a25      	ldr	r2, [pc, #148]	@ (8004790 <HAL_DMA_IRQHandler+0x1cc>)
 80046fa:	4293      	cmp	r3, r2
 80046fc:	d02c      	beq.n	8004758 <HAL_DMA_IRQHandler+0x194>
 80046fe:	687b      	ldr	r3, [r7, #4]
 8004700:	681b      	ldr	r3, [r3, #0]
 8004702:	4a24      	ldr	r2, [pc, #144]	@ (8004794 <HAL_DMA_IRQHandler+0x1d0>)
 8004704:	4293      	cmp	r3, r2
 8004706:	d027      	beq.n	8004758 <HAL_DMA_IRQHandler+0x194>
 8004708:	687b      	ldr	r3, [r7, #4]
 800470a:	681b      	ldr	r3, [r3, #0]
 800470c:	4a22      	ldr	r2, [pc, #136]	@ (8004798 <HAL_DMA_IRQHandler+0x1d4>)
 800470e:	4293      	cmp	r3, r2
 8004710:	d022      	beq.n	8004758 <HAL_DMA_IRQHandler+0x194>
 8004712:	687b      	ldr	r3, [r7, #4]
 8004714:	681b      	ldr	r3, [r3, #0]
 8004716:	4a21      	ldr	r2, [pc, #132]	@ (800479c <HAL_DMA_IRQHandler+0x1d8>)
 8004718:	4293      	cmp	r3, r2
 800471a:	d01d      	beq.n	8004758 <HAL_DMA_IRQHandler+0x194>
 800471c:	687b      	ldr	r3, [r7, #4]
 800471e:	681b      	ldr	r3, [r3, #0]
 8004720:	4a1f      	ldr	r2, [pc, #124]	@ (80047a0 <HAL_DMA_IRQHandler+0x1dc>)
 8004722:	4293      	cmp	r3, r2
 8004724:	d018      	beq.n	8004758 <HAL_DMA_IRQHandler+0x194>
 8004726:	687b      	ldr	r3, [r7, #4]
 8004728:	681b      	ldr	r3, [r3, #0]
 800472a:	4a1e      	ldr	r2, [pc, #120]	@ (80047a4 <HAL_DMA_IRQHandler+0x1e0>)
 800472c:	4293      	cmp	r3, r2
 800472e:	d013      	beq.n	8004758 <HAL_DMA_IRQHandler+0x194>
 8004730:	687b      	ldr	r3, [r7, #4]
 8004732:	681b      	ldr	r3, [r3, #0]
 8004734:	4a1c      	ldr	r2, [pc, #112]	@ (80047a8 <HAL_DMA_IRQHandler+0x1e4>)
 8004736:	4293      	cmp	r3, r2
 8004738:	d00e      	beq.n	8004758 <HAL_DMA_IRQHandler+0x194>
 800473a:	687b      	ldr	r3, [r7, #4]
 800473c:	681b      	ldr	r3, [r3, #0]
 800473e:	4a1b      	ldr	r2, [pc, #108]	@ (80047ac <HAL_DMA_IRQHandler+0x1e8>)
 8004740:	4293      	cmp	r3, r2
 8004742:	d009      	beq.n	8004758 <HAL_DMA_IRQHandler+0x194>
 8004744:	687b      	ldr	r3, [r7, #4]
 8004746:	681b      	ldr	r3, [r3, #0]
 8004748:	4a19      	ldr	r2, [pc, #100]	@ (80047b0 <HAL_DMA_IRQHandler+0x1ec>)
 800474a:	4293      	cmp	r3, r2
 800474c:	d004      	beq.n	8004758 <HAL_DMA_IRQHandler+0x194>
 800474e:	687b      	ldr	r3, [r7, #4]
 8004750:	681b      	ldr	r3, [r3, #0]
 8004752:	4a18      	ldr	r2, [pc, #96]	@ (80047b4 <HAL_DMA_IRQHandler+0x1f0>)
 8004754:	4293      	cmp	r3, r2
 8004756:	d12f      	bne.n	80047b8 <HAL_DMA_IRQHandler+0x1f4>
 8004758:	687b      	ldr	r3, [r7, #4]
 800475a:	681b      	ldr	r3, [r3, #0]
 800475c:	681b      	ldr	r3, [r3, #0]
 800475e:	f003 0304 	and.w	r3, r3, #4
 8004762:	2b00      	cmp	r3, #0
 8004764:	bf14      	ite	ne
 8004766:	2301      	movne	r3, #1
 8004768:	2300      	moveq	r3, #0
 800476a:	b2db      	uxtb	r3, r3
 800476c:	e02e      	b.n	80047cc <HAL_DMA_IRQHandler+0x208>
 800476e:	bf00      	nop
 8004770:	24000000 	.word	0x24000000
 8004774:	1b4e81b5 	.word	0x1b4e81b5
 8004778:	40020010 	.word	0x40020010
 800477c:	40020028 	.word	0x40020028
 8004780:	40020040 	.word	0x40020040
 8004784:	40020058 	.word	0x40020058
 8004788:	40020070 	.word	0x40020070
 800478c:	40020088 	.word	0x40020088
 8004790:	400200a0 	.word	0x400200a0
 8004794:	400200b8 	.word	0x400200b8
 8004798:	40020410 	.word	0x40020410
 800479c:	40020428 	.word	0x40020428
 80047a0:	40020440 	.word	0x40020440
 80047a4:	40020458 	.word	0x40020458
 80047a8:	40020470 	.word	0x40020470
 80047ac:	40020488 	.word	0x40020488
 80047b0:	400204a0 	.word	0x400204a0
 80047b4:	400204b8 	.word	0x400204b8
 80047b8:	687b      	ldr	r3, [r7, #4]
 80047ba:	681b      	ldr	r3, [r3, #0]
 80047bc:	681b      	ldr	r3, [r3, #0]
 80047be:	f003 0308 	and.w	r3, r3, #8
 80047c2:	2b00      	cmp	r3, #0
 80047c4:	bf14      	ite	ne
 80047c6:	2301      	movne	r3, #1
 80047c8:	2300      	moveq	r3, #0
 80047ca:	b2db      	uxtb	r3, r3
 80047cc:	2b00      	cmp	r3, #0
 80047ce:	d015      	beq.n	80047fc <HAL_DMA_IRQHandler+0x238>
 80047d0:	687b      	ldr	r3, [r7, #4]
 80047d2:	681b      	ldr	r3, [r3, #0]
 80047d4:	681a      	ldr	r2, [r3, #0]
 80047d6:	687b      	ldr	r3, [r7, #4]
 80047d8:	681b      	ldr	r3, [r3, #0]
 80047da:	f022 0204 	bic.w	r2, r2, #4
 80047de:	601a      	str	r2, [r3, #0]
 80047e0:	687b      	ldr	r3, [r7, #4]
 80047e2:	6ddb      	ldr	r3, [r3, #92]	@ 0x5c
 80047e4:	f003 031f 	and.w	r3, r3, #31
 80047e8:	2208      	movs	r2, #8
 80047ea:	409a      	lsls	r2, r3
 80047ec:	6a3b      	ldr	r3, [r7, #32]
 80047ee:	609a      	str	r2, [r3, #8]
 80047f0:	687b      	ldr	r3, [r7, #4]
 80047f2:	6d5b      	ldr	r3, [r3, #84]	@ 0x54
 80047f4:	f043 0201 	orr.w	r2, r3, #1
 80047f8:	687b      	ldr	r3, [r7, #4]
 80047fa:	655a      	str	r2, [r3, #84]	@ 0x54
 80047fc:	687b      	ldr	r3, [r7, #4]
 80047fe:	6ddb      	ldr	r3, [r3, #92]	@ 0x5c
 8004800:	f003 031f 	and.w	r3, r3, #31
 8004804:	69ba      	ldr	r2, [r7, #24]
 8004806:	fa22 f303 	lsr.w	r3, r2, r3
 800480a:	f003 0301 	and.w	r3, r3, #1
 800480e:	2b00      	cmp	r3, #0
 8004810:	d06e      	beq.n	80048f0 <HAL_DMA_IRQHandler+0x32c>
 8004812:	687b      	ldr	r3, [r7, #4]
 8004814:	681b      	ldr	r3, [r3, #0]
 8004816:	4a69      	ldr	r2, [pc, #420]	@ (80049bc <HAL_DMA_IRQHandler+0x3f8>)
 8004818:	4293      	cmp	r3, r2
 800481a:	d04a      	beq.n	80048b2 <HAL_DMA_IRQHandler+0x2ee>
 800481c:	687b      	ldr	r3, [r7, #4]
 800481e:	681b      	ldr	r3, [r3, #0]
 8004820:	4a67      	ldr	r2, [pc, #412]	@ (80049c0 <HAL_DMA_IRQHandler+0x3fc>)
 8004822:	4293      	cmp	r3, r2
 8004824:	d045      	beq.n	80048b2 <HAL_DMA_IRQHandler+0x2ee>
 8004826:	687b      	ldr	r3, [r7, #4]
 8004828:	681b      	ldr	r3, [r3, #0]
 800482a:	4a66      	ldr	r2, [pc, #408]	@ (80049c4 <HAL_DMA_IRQHandler+0x400>)
 800482c:	4293      	cmp	r3, r2
 800482e:	d040      	beq.n	80048b2 <HAL_DMA_IRQHandler+0x2ee>
 8004830:	687b      	ldr	r3, [r7, #4]
 8004832:	681b      	ldr	r3, [r3, #0]
 8004834:	4a64      	ldr	r2, [pc, #400]	@ (80049c8 <HAL_DMA_IRQHandler+0x404>)
 8004836:	4293      	cmp	r3, r2
 8004838:	d03b      	beq.n	80048b2 <HAL_DMA_IRQHandler+0x2ee>
 800483a:	687b      	ldr	r3, [r7, #4]
 800483c:	681b      	ldr	r3, [r3, #0]
 800483e:	4a63      	ldr	r2, [pc, #396]	@ (80049cc <HAL_DMA_IRQHandler+0x408>)
 8004840:	4293      	cmp	r3, r2
 8004842:	d036      	beq.n	80048b2 <HAL_DMA_IRQHandler+0x2ee>
 8004844:	687b      	ldr	r3, [r7, #4]
 8004846:	681b      	ldr	r3, [r3, #0]
 8004848:	4a61      	ldr	r2, [pc, #388]	@ (80049d0 <HAL_DMA_IRQHandler+0x40c>)
 800484a:	4293      	cmp	r3, r2
 800484c:	d031      	beq.n	80048b2 <HAL_DMA_IRQHandler+0x2ee>
 800484e:	687b      	ldr	r3, [r7, #4]
 8004850:	681b      	ldr	r3, [r3, #0]
 8004852:	4a60      	ldr	r2, [pc, #384]	@ (80049d4 <HAL_DMA_IRQHandler+0x410>)
 8004854:	4293      	cmp	r3, r2
 8004856:	d02c      	beq.n	80048b2 <HAL_DMA_IRQHandler+0x2ee>
 8004858:	687b      	ldr	r3, [r7, #4]
 800485a:	681b      	ldr	r3, [r3, #0]
 800485c:	4a5e      	ldr	r2, [pc, #376]	@ (80049d8 <HAL_DMA_IRQHandler+0x414>)
 800485e:	4293      	cmp	r3, r2
 8004860:	d027      	beq.n	80048b2 <HAL_DMA_IRQHandler+0x2ee>
 8004862:	687b      	ldr	r3, [r7, #4]
 8004864:	681b      	ldr	r3, [r3, #0]
 8004866:	4a5d      	ldr	r2, [pc, #372]	@ (80049dc <HAL_DMA_IRQHandler+0x418>)
 8004868:	4293      	cmp	r3, r2
 800486a:	d022      	beq.n	80048b2 <HAL_DMA_IRQHandler+0x2ee>
 800486c:	687b      	ldr	r3, [r7, #4]
 800486e:	681b      	ldr	r3, [r3, #0]
 8004870:	4a5b      	ldr	r2, [pc, #364]	@ (80049e0 <HAL_DMA_IRQHandler+0x41c>)
 8004872:	4293      	cmp	r3, r2
 8004874:	d01d      	beq.n	80048b2 <HAL_DMA_IRQHandler+0x2ee>
 8004876:	687b      	ldr	r3, [r7, #4]
 8004878:	681b      	ldr	r3, [r3, #0]
 800487a:	4a5a      	ldr	r2, [pc, #360]	@ (80049e4 <HAL_DMA_IRQHandler+0x420>)
 800487c:	4293      	cmp	r3, r2
 800487e:	d018      	beq.n	80048b2 <HAL_DMA_IRQHandler+0x2ee>
 8004880:	687b      	ldr	r3, [r7, #4]
 8004882:	681b      	ldr	r3, [r3, #0]
 8004884:	4a58      	ldr	r2, [pc, #352]	@ (80049e8 <HAL_DMA_IRQHandler+0x424>)
 8004886:	4293      	cmp	r3, r2
 8004888:	d013      	beq.n	80048b2 <HAL_DMA_IRQHandler+0x2ee>
 800488a:	687b      	ldr	r3, [r7, #4]
 800488c:	681b      	ldr	r3, [r3, #0]
 800488e:	4a57      	ldr	r2, [pc, #348]	@ (80049ec <HAL_DMA_IRQHandler+0x428>)
 8004890:	4293      	cmp	r3, r2
 8004892:	d00e      	beq.n	80048b2 <HAL_DMA_IRQHandler+0x2ee>
 8004894:	687b      	ldr	r3, [r7, #4]
 8004896:	681b      	ldr	r3, [r3, #0]
 8004898:	4a55      	ldr	r2, [pc, #340]	@ (80049f0 <HAL_DMA_IRQHandler+0x42c>)
 800489a:	4293      	cmp	r3, r2
 800489c:	d009      	beq.n	80048b2 <HAL_DMA_IRQHandler+0x2ee>
 800489e:	687b      	ldr	r3, [r7, #4]
 80048a0:	681b      	ldr	r3, [r3, #0]
 80048a2:	4a54      	ldr	r2, [pc, #336]	@ (80049f4 <HAL_DMA_IRQHandler+0x430>)
 80048a4:	4293      	cmp	r3, r2
 80048a6:	d004      	beq.n	80048b2 <HAL_DMA_IRQHandler+0x2ee>
 80048a8:	687b      	ldr	r3, [r7, #4]
 80048aa:	681b      	ldr	r3, [r3, #0]
 80048ac:	4a52      	ldr	r2, [pc, #328]	@ (80049f8 <HAL_DMA_IRQHandler+0x434>)
 80048ae:	4293      	cmp	r3, r2
 80048b0:	d10a      	bne.n	80048c8 <HAL_DMA_IRQHandler+0x304>
 80048b2:	687b      	ldr	r3, [r7, #4]
 80048b4:	681b      	ldr	r3, [r3, #0]
 80048b6:	695b      	ldr	r3, [r3, #20]
 80048b8:	f003 0380 	and.w	r3, r3, #128	@ 0x80
 80048bc:	2b00      	cmp	r3, #0
 80048be:	bf14      	ite	ne
 80048c0:	2301      	movne	r3, #1
 80048c2:	2300      	moveq	r3, #0
 80048c4:	b2db      	uxtb	r3, r3
 80048c6:	e003      	b.n	80048d0 <HAL_DMA_IRQHandler+0x30c>
 80048c8:	687b      	ldr	r3, [r7, #4]
 80048ca:	681b      	ldr	r3, [r3, #0]
 80048cc:	681b      	ldr	r3, [r3, #0]
 80048ce:	2300      	movs	r3, #0
 80048d0:	2b00      	cmp	r3, #0
 80048d2:	d00d      	beq.n	80048f0 <HAL_DMA_IRQHandler+0x32c>
 80048d4:	687b      	ldr	r3, [r7, #4]
 80048d6:	6ddb      	ldr	r3, [r3, #92]	@ 0x5c
 80048d8:	f003 031f 	and.w	r3, r3, #31
 80048dc:	2201      	movs	r2, #1
 80048de:	409a      	lsls	r2, r3
 80048e0:	6a3b      	ldr	r3, [r7, #32]
 80048e2:	609a      	str	r2, [r3, #8]
 80048e4:	687b      	ldr	r3, [r7, #4]
 80048e6:	6d5b      	ldr	r3, [r3, #84]	@ 0x54
 80048e8:	f043 0202 	orr.w	r2, r3, #2
 80048ec:	687b      	ldr	r3, [r7, #4]
 80048ee:	655a      	str	r2, [r3, #84]	@ 0x54
 80048f0:	687b      	ldr	r3, [r7, #4]
 80048f2:	6ddb      	ldr	r3, [r3, #92]	@ 0x5c
 80048f4:	f003 031f 	and.w	r3, r3, #31
 80048f8:	2204      	movs	r2, #4
 80048fa:	409a      	lsls	r2, r3
 80048fc:	69bb      	ldr	r3, [r7, #24]
 80048fe:	4013      	ands	r3, r2
 8004900:	2b00      	cmp	r3, #0
 8004902:	f000 808f 	beq.w	8004a24 <HAL_DMA_IRQHandler+0x460>
 8004906:	687b      	ldr	r3, [r7, #4]
 8004908:	681b      	ldr	r3, [r3, #0]
 800490a:	4a2c      	ldr	r2, [pc, #176]	@ (80049bc <HAL_DMA_IRQHandler+0x3f8>)
 800490c:	4293      	cmp	r3, r2
 800490e:	d04a      	beq.n	80049a6 <HAL_DMA_IRQHandler+0x3e2>
 8004910:	687b      	ldr	r3, [r7, #4]
 8004912:	681b      	ldr	r3, [r3, #0]
 8004914:	4a2a      	ldr	r2, [pc, #168]	@ (80049c0 <HAL_DMA_IRQHandler+0x3fc>)
 8004916:	4293      	cmp	r3, r2
 8004918:	d045      	beq.n	80049a6 <HAL_DMA_IRQHandler+0x3e2>
 800491a:	687b      	ldr	r3, [r7, #4]
 800491c:	681b      	ldr	r3, [r3, #0]
 800491e:	4a29      	ldr	r2, [pc, #164]	@ (80049c4 <HAL_DMA_IRQHandler+0x400>)
 8004920:	4293      	cmp	r3, r2
 8004922:	d040      	beq.n	80049a6 <HAL_DMA_IRQHandler+0x3e2>
 8004924:	687b      	ldr	r3, [r7, #4]
 8004926:	681b      	ldr	r3, [r3, #0]
 8004928:	4a27      	ldr	r2, [pc, #156]	@ (80049c8 <HAL_DMA_IRQHandler+0x404>)
 800492a:	4293      	cmp	r3, r2
 800492c:	d03b      	beq.n	80049a6 <HAL_DMA_IRQHandler+0x3e2>
 800492e:	687b      	ldr	r3, [r7, #4]
 8004930:	681b      	ldr	r3, [r3, #0]
 8004932:	4a26      	ldr	r2, [pc, #152]	@ (80049cc <HAL_DMA_IRQHandler+0x408>)
 8004934:	4293      	cmp	r3, r2
 8004936:	d036      	beq.n	80049a6 <HAL_DMA_IRQHandler+0x3e2>
 8004938:	687b      	ldr	r3, [r7, #4]
 800493a:	681b      	ldr	r3, [r3, #0]
 800493c:	4a24      	ldr	r2, [pc, #144]	@ (80049d0 <HAL_DMA_IRQHandler+0x40c>)
 800493e:	4293      	cmp	r3, r2
 8004940:	d031      	beq.n	80049a6 <HAL_DMA_IRQHandler+0x3e2>
 8004942:	687b      	ldr	r3, [r7, #4]
 8004944:	681b      	ldr	r3, [r3, #0]
 8004946:	4a23      	ldr	r2, [pc, #140]	@ (80049d4 <HAL_DMA_IRQHandler+0x410>)
 8004948:	4293      	cmp	r3, r2
 800494a:	d02c      	beq.n	80049a6 <HAL_DMA_IRQHandler+0x3e2>
 800494c:	687b      	ldr	r3, [r7, #4]
 800494e:	681b      	ldr	r3, [r3, #0]
 8004950:	4a21      	ldr	r2, [pc, #132]	@ (80049d8 <HAL_DMA_IRQHandler+0x414>)
 8004952:	4293      	cmp	r3, r2
 8004954:	d027      	beq.n	80049a6 <HAL_DMA_IRQHandler+0x3e2>
 8004956:	687b      	ldr	r3, [r7, #4]
 8004958:	681b      	ldr	r3, [r3, #0]
 800495a:	4a20      	ldr	r2, [pc, #128]	@ (80049dc <HAL_DMA_IRQHandler+0x418>)
 800495c:	4293      	cmp	r3, r2
 800495e:	d022      	beq.n	80049a6 <HAL_DMA_IRQHandler+0x3e2>
 8004960:	687b      	ldr	r3, [r7, #4]
 8004962:	681b      	ldr	r3, [r3, #0]
 8004964:	4a1e      	ldr	r2, [pc, #120]	@ (80049e0 <HAL_DMA_IRQHandler+0x41c>)
 8004966:	4293      	cmp	r3, r2
 8004968:	d01d      	beq.n	80049a6 <HAL_DMA_IRQHandler+0x3e2>
 800496a:	687b      	ldr	r3, [r7, #4]
 800496c:	681b      	ldr	r3, [r3, #0]
 800496e:	4a1d      	ldr	r2, [pc, #116]	@ (80049e4 <HAL_DMA_IRQHandler+0x420>)
 8004970:	4293      	cmp	r3, r2
 8004972:	d018      	beq.n	80049a6 <HAL_DMA_IRQHandler+0x3e2>
 8004974:	687b      	ldr	r3, [r7, #4]
 8004976:	681b      	ldr	r3, [r3, #0]
 8004978:	4a1b      	ldr	r2, [pc, #108]	@ (80049e8 <HAL_DMA_IRQHandler+0x424>)
 800497a:	4293      	cmp	r3, r2
 800497c:	d013      	beq.n	80049a6 <HAL_DMA_IRQHandler+0x3e2>
 800497e:	687b      	ldr	r3, [r7, #4]
 8004980:	681b      	ldr	r3, [r3, #0]
 8004982:	4a1a      	ldr	r2, [pc, #104]	@ (80049ec <HAL_DMA_IRQHandler+0x428>)
 8004984:	4293      	cmp	r3, r2
 8004986:	d00e      	beq.n	80049a6 <HAL_DMA_IRQHandler+0x3e2>
 8004988:	687b      	ldr	r3, [r7, #4]
 800498a:	681b      	ldr	r3, [r3, #0]
 800498c:	4a18      	ldr	r2, [pc, #96]	@ (80049f0 <HAL_DMA_IRQHandler+0x42c>)
 800498e:	4293      	cmp	r3, r2
 8004990:	d009      	beq.n	80049a6 <HAL_DMA_IRQHandler+0x3e2>
 8004992:	687b      	ldr	r3, [r7, #4]
 8004994:	681b      	ldr	r3, [r3, #0]
 8004996:	4a17      	ldr	r2, [pc, #92]	@ (80049f4 <HAL_DMA_IRQHandler+0x430>)
 8004998:	4293      	cmp	r3, r2
 800499a:	d004      	beq.n	80049a6 <HAL_DMA_IRQHandler+0x3e2>
 800499c:	687b      	ldr	r3, [r7, #4]
 800499e:	681b      	ldr	r3, [r3, #0]
 80049a0:	4a15      	ldr	r2, [pc, #84]	@ (80049f8 <HAL_DMA_IRQHandler+0x434>)
 80049a2:	4293      	cmp	r3, r2
 80049a4:	d12a      	bne.n	80049fc <HAL_DMA_IRQHandler+0x438>
 80049a6:	687b      	ldr	r3, [r7, #4]
 80049a8:	681b      	ldr	r3, [r3, #0]
 80049aa:	681b      	ldr	r3, [r3, #0]
 80049ac:	f003 0302 	and.w	r3, r3, #2
 80049b0:	2b00      	cmp	r3, #0
 80049b2:	bf14      	ite	ne
 80049b4:	2301      	movne	r3, #1
 80049b6:	2300      	moveq	r3, #0
 80049b8:	b2db      	uxtb	r3, r3
 80049ba:	e023      	b.n	8004a04 <HAL_DMA_IRQHandler+0x440>
 80049bc:	40020010 	.word	0x40020010
 80049c0:	40020028 	.word	0x40020028
 80049c4:	40020040 	.word	0x40020040
 80049c8:	40020058 	.word	0x40020058
 80049cc:	40020070 	.word	0x40020070
 80049d0:	40020088 	.word	0x40020088
 80049d4:	400200a0 	.word	0x400200a0
 80049d8:	400200b8 	.word	0x400200b8
 80049dc:	40020410 	.word	0x40020410
 80049e0:	40020428 	.word	0x40020428
 80049e4:	40020440 	.word	0x40020440
 80049e8:	40020458 	.word	0x40020458
 80049ec:	40020470 	.word	0x40020470
 80049f0:	40020488 	.word	0x40020488
 80049f4:	400204a0 	.word	0x400204a0
 80049f8:	400204b8 	.word	0x400204b8
 80049fc:	687b      	ldr	r3, [r7, #4]
 80049fe:	681b      	ldr	r3, [r3, #0]
 8004a00:	681b      	ldr	r3, [r3, #0]
 8004a02:	2300      	movs	r3, #0
 8004a04:	2b00      	cmp	r3, #0
 8004a06:	d00d      	beq.n	8004a24 <HAL_DMA_IRQHandler+0x460>
 8004a08:	687b      	ldr	r3, [r7, #4]
 8004a0a:	6ddb      	ldr	r3, [r3, #92]	@ 0x5c
 8004a0c:	f003 031f 	and.w	r3, r3, #31
 8004a10:	2204      	movs	r2, #4
 8004a12:	409a      	lsls	r2, r3
 8004a14:	6a3b      	ldr	r3, [r7, #32]
 8004a16:	609a      	str	r2, [r3, #8]
 8004a18:	687b      	ldr	r3, [r7, #4]
 8004a1a:	6d5b      	ldr	r3, [r3, #84]	@ 0x54
 8004a1c:	f043 0204 	orr.w	r2, r3, #4
 8004a20:	687b      	ldr	r3, [r7, #4]
 8004a22:	655a      	str	r2, [r3, #84]	@ 0x54
 8004a24:	687b      	ldr	r3, [r7, #4]
 8004a26:	6ddb      	ldr	r3, [r3, #92]	@ 0x5c
 8004a28:	f003 031f 	and.w	r3, r3, #31
 8004a2c:	2210      	movs	r2, #16
 8004a2e:	409a      	lsls	r2, r3
 8004a30:	69bb      	ldr	r3, [r7, #24]
 8004a32:	4013      	ands	r3, r2
 8004a34:	2b00      	cmp	r3, #0
 8004a36:	f000 80a6 	beq.w	8004b86 <HAL_DMA_IRQHandler+0x5c2>
 8004a3a:	687b      	ldr	r3, [r7, #4]
 8004a3c:	681b      	ldr	r3, [r3, #0]
 8004a3e:	4a85      	ldr	r2, [pc, #532]	@ (8004c54 <HAL_DMA_IRQHandler+0x690>)
 8004a40:	4293      	cmp	r3, r2
 8004a42:	d04a      	beq.n	8004ada <HAL_DMA_IRQHandler+0x516>
 8004a44:	687b      	ldr	r3, [r7, #4]
 8004a46:	681b      	ldr	r3, [r3, #0]
 8004a48:	4a83      	ldr	r2, [pc, #524]	@ (8004c58 <HAL_DMA_IRQHandler+0x694>)
 8004a4a:	4293      	cmp	r3, r2
 8004a4c:	d045      	beq.n	8004ada <HAL_DMA_IRQHandler+0x516>
 8004a4e:	687b      	ldr	r3, [r7, #4]
 8004a50:	681b      	ldr	r3, [r3, #0]
 8004a52:	4a82      	ldr	r2, [pc, #520]	@ (8004c5c <HAL_DMA_IRQHandler+0x698>)
 8004a54:	4293      	cmp	r3, r2
 8004a56:	d040      	beq.n	8004ada <HAL_DMA_IRQHandler+0x516>
 8004a58:	687b      	ldr	r3, [r7, #4]
 8004a5a:	681b      	ldr	r3, [r3, #0]
 8004a5c:	4a80      	ldr	r2, [pc, #512]	@ (8004c60 <HAL_DMA_IRQHandler+0x69c>)
 8004a5e:	4293      	cmp	r3, r2
 8004a60:	d03b      	beq.n	8004ada <HAL_DMA_IRQHandler+0x516>
 8004a62:	687b      	ldr	r3, [r7, #4]
 8004a64:	681b      	ldr	r3, [r3, #0]
 8004a66:	4a7f      	ldr	r2, [pc, #508]	@ (8004c64 <HAL_DMA_IRQHandler+0x6a0>)
 8004a68:	4293      	cmp	r3, r2
 8004a6a:	d036      	beq.n	8004ada <HAL_DMA_IRQHandler+0x516>
 8004a6c:	687b      	ldr	r3, [r7, #4]
 8004a6e:	681b      	ldr	r3, [r3, #0]
 8004a70:	4a7d      	ldr	r2, [pc, #500]	@ (8004c68 <HAL_DMA_IRQHandler+0x6a4>)
 8004a72:	4293      	cmp	r3, r2
 8004a74:	d031      	beq.n	8004ada <HAL_DMA_IRQHandler+0x516>
 8004a76:	687b      	ldr	r3, [r7, #4]
 8004a78:	681b      	ldr	r3, [r3, #0]
 8004a7a:	4a7c      	ldr	r2, [pc, #496]	@ (8004c6c <HAL_DMA_IRQHandler+0x6a8>)
 8004a7c:	4293      	cmp	r3, r2
 8004a7e:	d02c      	beq.n	8004ada <HAL_DMA_IRQHandler+0x516>
 8004a80:	687b      	ldr	r3, [r7, #4]
 8004a82:	681b      	ldr	r3, [r3, #0]
 8004a84:	4a7a      	ldr	r2, [pc, #488]	@ (8004c70 <HAL_DMA_IRQHandler+0x6ac>)
 8004a86:	4293      	cmp	r3, r2
 8004a88:	d027      	beq.n	8004ada <HAL_DMA_IRQHandler+0x516>
 8004a8a:	687b      	ldr	r3, [r7, #4]
 8004a8c:	681b      	ldr	r3, [r3, #0]
 8004a8e:	4a79      	ldr	r2, [pc, #484]	@ (8004c74 <HAL_DMA_IRQHandler+0x6b0>)
 8004a90:	4293      	cmp	r3, r2
 8004a92:	d022      	beq.n	8004ada <HAL_DMA_IRQHandler+0x516>
 8004a94:	687b      	ldr	r3, [r7, #4]
 8004a96:	681b      	ldr	r3, [r3, #0]
 8004a98:	4a77      	ldr	r2, [pc, #476]	@ (8004c78 <HAL_DMA_IRQHandler+0x6b4>)
 8004a9a:	4293      	cmp	r3, r2
 8004a9c:	d01d      	beq.n	8004ada <HAL_DMA_IRQHandler+0x516>
 8004a9e:	687b      	ldr	r3, [r7, #4]
 8004aa0:	681b      	ldr	r3, [r3, #0]
 8004aa2:	4a76      	ldr	r2, [pc, #472]	@ (8004c7c <HAL_DMA_IRQHandler+0x6b8>)
 8004aa4:	4293      	cmp	r3, r2
 8004aa6:	d018      	beq.n	8004ada <HAL_DMA_IRQHandler+0x516>
 8004aa8:	687b      	ldr	r3, [r7, #4]
 8004aaa:	681b      	ldr	r3, [r3, #0]
 8004aac:	4a74      	ldr	r2, [pc, #464]	@ (8004c80 <HAL_DMA_IRQHandler+0x6bc>)
 8004aae:	4293      	cmp	r3, r2
 8004ab0:	d013      	beq.n	8004ada <HAL_DMA_IRQHandler+0x516>
 8004ab2:	687b      	ldr	r3, [r7, #4]
 8004ab4:	681b      	ldr	r3, [r3, #0]
 8004ab6:	4a73      	ldr	r2, [pc, #460]	@ (8004c84 <HAL_DMA_IRQHandler+0x6c0>)
 8004ab8:	4293      	cmp	r3, r2
 8004aba:	d00e      	beq.n	8004ada <HAL_DMA_IRQHandler+0x516>
 8004abc:	687b      	ldr	r3, [r7, #4]
 8004abe:	681b      	ldr	r3, [r3, #0]
 8004ac0:	4a71      	ldr	r2, [pc, #452]	@ (8004c88 <HAL_DMA_IRQHandler+0x6c4>)
 8004ac2:	4293      	cmp	r3, r2
 8004ac4:	d009      	beq.n	8004ada <HAL_DMA_IRQHandler+0x516>
 8004ac6:	687b      	ldr	r3, [r7, #4]
 8004ac8:	681b      	ldr	r3, [r3, #0]
 8004aca:	4a70      	ldr	r2, [pc, #448]	@ (8004c8c <HAL_DMA_IRQHandler+0x6c8>)
 8004acc:	4293      	cmp	r3, r2
 8004ace:	d004      	beq.n	8004ada <HAL_DMA_IRQHandler+0x516>
 8004ad0:	687b      	ldr	r3, [r7, #4]
 8004ad2:	681b      	ldr	r3, [r3, #0]
 8004ad4:	4a6e      	ldr	r2, [pc, #440]	@ (8004c90 <HAL_DMA_IRQHandler+0x6cc>)
 8004ad6:	4293      	cmp	r3, r2
 8004ad8:	d10a      	bne.n	8004af0 <HAL_DMA_IRQHandler+0x52c>
 8004ada:	687b      	ldr	r3, [r7, #4]
 8004adc:	681b      	ldr	r3, [r3, #0]
 8004ade:	681b      	ldr	r3, [r3, #0]
 8004ae0:	f003 0308 	and.w	r3, r3, #8
 8004ae4:	2b00      	cmp	r3, #0
 8004ae6:	bf14      	ite	ne
 8004ae8:	2301      	movne	r3, #1
 8004aea:	2300      	moveq	r3, #0
 8004aec:	b2db      	uxtb	r3, r3
 8004aee:	e009      	b.n	8004b04 <HAL_DMA_IRQHandler+0x540>
 8004af0:	687b      	ldr	r3, [r7, #4]
 8004af2:	681b      	ldr	r3, [r3, #0]
 8004af4:	681b      	ldr	r3, [r3, #0]
 8004af6:	f003 0304 	and.w	r3, r3, #4
 8004afa:	2b00      	cmp	r3, #0
 8004afc:	bf14      	ite	ne
 8004afe:	2301      	movne	r3, #1
 8004b00:	2300      	moveq	r3, #0
 8004b02:	b2db      	uxtb	r3, r3
 8004b04:	2b00      	cmp	r3, #0
 8004b06:	d03e      	beq.n	8004b86 <HAL_DMA_IRQHandler+0x5c2>
 8004b08:	687b      	ldr	r3, [r7, #4]
 8004b0a:	6ddb      	ldr	r3, [r3, #92]	@ 0x5c
 8004b0c:	f003 031f 	and.w	r3, r3, #31
 8004b10:	2210      	movs	r2, #16
 8004b12:	409a      	lsls	r2, r3
 8004b14:	6a3b      	ldr	r3, [r7, #32]
 8004b16:	609a      	str	r2, [r3, #8]
 8004b18:	687b      	ldr	r3, [r7, #4]
 8004b1a:	681b      	ldr	r3, [r3, #0]
 8004b1c:	681b      	ldr	r3, [r3, #0]
 8004b1e:	f403 2380 	and.w	r3, r3, #262144	@ 0x40000
 8004b22:	2b00      	cmp	r3, #0
 8004b24:	d018      	beq.n	8004b58 <HAL_DMA_IRQHandler+0x594>
 8004b26:	687b      	ldr	r3, [r7, #4]
 8004b28:	681b      	ldr	r3, [r3, #0]
 8004b2a:	681b      	ldr	r3, [r3, #0]
 8004b2c:	f403 2300 	and.w	r3, r3, #524288	@ 0x80000
 8004b30:	2b00      	cmp	r3, #0
 8004b32:	d108      	bne.n	8004b46 <HAL_DMA_IRQHandler+0x582>
 8004b34:	687b      	ldr	r3, [r7, #4]
 8004b36:	6c1b      	ldr	r3, [r3, #64]	@ 0x40
 8004b38:	2b00      	cmp	r3, #0
 8004b3a:	d024      	beq.n	8004b86 <HAL_DMA_IRQHandler+0x5c2>
 8004b3c:	687b      	ldr	r3, [r7, #4]
 8004b3e:	6c1b      	ldr	r3, [r3, #64]	@ 0x40
 8004b40:	6878      	ldr	r0, [r7, #4]
 8004b42:	4798      	blx	r3
 8004b44:	e01f      	b.n	8004b86 <HAL_DMA_IRQHandler+0x5c2>
 8004b46:	687b      	ldr	r3, [r7, #4]
 8004b48:	6c9b      	ldr	r3, [r3, #72]	@ 0x48
 8004b4a:	2b00      	cmp	r3, #0
 8004b4c:	d01b      	beq.n	8004b86 <HAL_DMA_IRQHandler+0x5c2>
 8004b4e:	687b      	ldr	r3, [r7, #4]
 8004b50:	6c9b      	ldr	r3, [r3, #72]	@ 0x48
 8004b52:	6878      	ldr	r0, [r7, #4]
 8004b54:	4798      	blx	r3
 8004b56:	e016      	b.n	8004b86 <HAL_DMA_IRQHandler+0x5c2>
 8004b58:	687b      	ldr	r3, [r7, #4]
 8004b5a:	681b      	ldr	r3, [r3, #0]
 8004b5c:	681b      	ldr	r3, [r3, #0]
 8004b5e:	f403 7380 	and.w	r3, r3, #256	@ 0x100
 8004b62:	2b00      	cmp	r3, #0
 8004b64:	d107      	bne.n	8004b76 <HAL_DMA_IRQHandler+0x5b2>
 8004b66:	687b      	ldr	r3, [r7, #4]
 8004b68:	681b      	ldr	r3, [r3, #0]
 8004b6a:	681a      	ldr	r2, [r3, #0]
 8004b6c:	687b      	ldr	r3, [r7, #4]
 8004b6e:	681b      	ldr	r3, [r3, #0]
 8004b70:	f022 0208 	bic.w	r2, r2, #8
 8004b74:	601a      	str	r2, [r3, #0]
 8004b76:	687b      	ldr	r3, [r7, #4]
 8004b78:	6c1b      	ldr	r3, [r3, #64]	@ 0x40
 8004b7a:	2b00      	cmp	r3, #0
 8004b7c:	d003      	beq.n	8004b86 <HAL_DMA_IRQHandler+0x5c2>
 8004b7e:	687b      	ldr	r3, [r7, #4]
 8004b80:	6c1b      	ldr	r3, [r3, #64]	@ 0x40
 8004b82:	6878      	ldr	r0, [r7, #4]
 8004b84:	4798      	blx	r3
 8004b86:	687b      	ldr	r3, [r7, #4]
 8004b88:	6ddb      	ldr	r3, [r3, #92]	@ 0x5c
 8004b8a:	f003 031f 	and.w	r3, r3, #31
 8004b8e:	2220      	movs	r2, #32
 8004b90:	409a      	lsls	r2, r3
 8004b92:	69bb      	ldr	r3, [r7, #24]
 8004b94:	4013      	ands	r3, r2
 8004b96:	2b00      	cmp	r3, #0
 8004b98:	f000 8110 	beq.w	8004dbc <HAL_DMA_IRQHandler+0x7f8>
 8004b9c:	687b      	ldr	r3, [r7, #4]
 8004b9e:	681b      	ldr	r3, [r3, #0]
 8004ba0:	4a2c      	ldr	r2, [pc, #176]	@ (8004c54 <HAL_DMA_IRQHandler+0x690>)
 8004ba2:	4293      	cmp	r3, r2
 8004ba4:	d04a      	beq.n	8004c3c <HAL_DMA_IRQHandler+0x678>
 8004ba6:	687b      	ldr	r3, [r7, #4]
 8004ba8:	681b      	ldr	r3, [r3, #0]
 8004baa:	4a2b      	ldr	r2, [pc, #172]	@ (8004c58 <HAL_DMA_IRQHandler+0x694>)
 8004bac:	4293      	cmp	r3, r2
 8004bae:	d045      	beq.n	8004c3c <HAL_DMA_IRQHandler+0x678>
 8004bb0:	687b      	ldr	r3, [r7, #4]
 8004bb2:	681b      	ldr	r3, [r3, #0]
 8004bb4:	4a29      	ldr	r2, [pc, #164]	@ (8004c5c <HAL_DMA_IRQHandler+0x698>)
 8004bb6:	4293      	cmp	r3, r2
 8004bb8:	d040      	beq.n	8004c3c <HAL_DMA_IRQHandler+0x678>
 8004bba:	687b      	ldr	r3, [r7, #4]
 8004bbc:	681b      	ldr	r3, [r3, #0]
 8004bbe:	4a28      	ldr	r2, [pc, #160]	@ (8004c60 <HAL_DMA_IRQHandler+0x69c>)
 8004bc0:	4293      	cmp	r3, r2
 8004bc2:	d03b      	beq.n	8004c3c <HAL_DMA_IRQHandler+0x678>
 8004bc4:	687b      	ldr	r3, [r7, #4]
 8004bc6:	681b      	ldr	r3, [r3, #0]
 8004bc8:	4a26      	ldr	r2, [pc, #152]	@ (8004c64 <HAL_DMA_IRQHandler+0x6a0>)
 8004bca:	4293      	cmp	r3, r2
 8004bcc:	d036      	beq.n	8004c3c <HAL_DMA_IRQHandler+0x678>
 8004bce:	687b      	ldr	r3, [r7, #4]
 8004bd0:	681b      	ldr	r3, [r3, #0]
 8004bd2:	4a25      	ldr	r2, [pc, #148]	@ (8004c68 <HAL_DMA_IRQHandler+0x6a4>)
 8004bd4:	4293      	cmp	r3, r2
 8004bd6:	d031      	beq.n	8004c3c <HAL_DMA_IRQHandler+0x678>
 8004bd8:	687b      	ldr	r3, [r7, #4]
 8004bda:	681b      	ldr	r3, [r3, #0]
 8004bdc:	4a23      	ldr	r2, [pc, #140]	@ (8004c6c <HAL_DMA_IRQHandler+0x6a8>)
 8004bde:	4293      	cmp	r3, r2
 8004be0:	d02c      	beq.n	8004c3c <HAL_DMA_IRQHandler+0x678>
 8004be2:	687b      	ldr	r3, [r7, #4]
 8004be4:	681b      	ldr	r3, [r3, #0]
 8004be6:	4a22      	ldr	r2, [pc, #136]	@ (8004c70 <HAL_DMA_IRQHandler+0x6ac>)
 8004be8:	4293      	cmp	r3, r2
 8004bea:	d027      	beq.n	8004c3c <HAL_DMA_IRQHandler+0x678>
 8004bec:	687b      	ldr	r3, [r7, #4]
 8004bee:	681b      	ldr	r3, [r3, #0]
 8004bf0:	4a20      	ldr	r2, [pc, #128]	@ (8004c74 <HAL_DMA_IRQHandler+0x6b0>)
 8004bf2:	4293      	cmp	r3, r2
 8004bf4:	d022      	beq.n	8004c3c <HAL_DMA_IRQHandler+0x678>
 8004bf6:	687b      	ldr	r3, [r7, #4]
 8004bf8:	681b      	ldr	r3, [r3, #0]
 8004bfa:	4a1f      	ldr	r2, [pc, #124]	@ (8004c78 <HAL_DMA_IRQHandler+0x6b4>)
 8004bfc:	4293      	cmp	r3, r2
 8004bfe:	d01d      	beq.n	8004c3c <HAL_DMA_IRQHandler+0x678>
 8004c00:	687b      	ldr	r3, [r7, #4]
 8004c02:	681b      	ldr	r3, [r3, #0]
 8004c04:	4a1d      	ldr	r2, [pc, #116]	@ (8004c7c <HAL_DMA_IRQHandler+0x6b8>)
 8004c06:	4293      	cmp	r3, r2
 8004c08:	d018      	beq.n	8004c3c <HAL_DMA_IRQHandler+0x678>
 8004c0a:	687b      	ldr	r3, [r7, #4]
 8004c0c:	681b      	ldr	r3, [r3, #0]
 8004c0e:	4a1c      	ldr	r2, [pc, #112]	@ (8004c80 <HAL_DMA_IRQHandler+0x6bc>)
 8004c10:	4293      	cmp	r3, r2
 8004c12:	d013      	beq.n	8004c3c <HAL_DMA_IRQHandler+0x678>
 8004c14:	687b      	ldr	r3, [r7, #4]
 8004c16:	681b      	ldr	r3, [r3, #0]
 8004c18:	4a1a      	ldr	r2, [pc, #104]	@ (8004c84 <HAL_DMA_IRQHandler+0x6c0>)
 8004c1a:	4293      	cmp	r3, r2
 8004c1c:	d00e      	beq.n	8004c3c <HAL_DMA_IRQHandler+0x678>
 8004c1e:	687b      	ldr	r3, [r7, #4]
 8004c20:	681b      	ldr	r3, [r3, #0]
 8004c22:	4a19      	ldr	r2, [pc, #100]	@ (8004c88 <HAL_DMA_IRQHandler+0x6c4>)
 8004c24:	4293      	cmp	r3, r2
 8004c26:	d009      	beq.n	8004c3c <HAL_DMA_IRQHandler+0x678>
 8004c28:	687b      	ldr	r3, [r7, #4]
 8004c2a:	681b      	ldr	r3, [r3, #0]
 8004c2c:	4a17      	ldr	r2, [pc, #92]	@ (8004c8c <HAL_DMA_IRQHandler+0x6c8>)
 8004c2e:	4293      	cmp	r3, r2
 8004c30:	d004      	beq.n	8004c3c <HAL_DMA_IRQHandler+0x678>
 8004c32:	687b      	ldr	r3, [r7, #4]
 8004c34:	681b      	ldr	r3, [r3, #0]
 8004c36:	4a16      	ldr	r2, [pc, #88]	@ (8004c90 <HAL_DMA_IRQHandler+0x6cc>)
 8004c38:	4293      	cmp	r3, r2
 8004c3a:	d12b      	bne.n	8004c94 <HAL_DMA_IRQHandler+0x6d0>
 8004c3c:	687b      	ldr	r3, [r7, #4]
 8004c3e:	681b      	ldr	r3, [r3, #0]
 8004c40:	681b      	ldr	r3, [r3, #0]
 8004c42:	f003 0310 	and.w	r3, r3, #16
 8004c46:	2b00      	cmp	r3, #0
 8004c48:	bf14      	ite	ne
 8004c4a:	2301      	movne	r3, #1
 8004c4c:	2300      	moveq	r3, #0
 8004c4e:	b2db      	uxtb	r3, r3
 8004c50:	e02a      	b.n	8004ca8 <HAL_DMA_IRQHandler+0x6e4>
 8004c52:	bf00      	nop
 8004c54:	40020010 	.word	0x40020010
 8004c58:	40020028 	.word	0x40020028
 8004c5c:	40020040 	.word	0x40020040
 8004c60:	40020058 	.word	0x40020058
 8004c64:	40020070 	.word	0x40020070
 8004c68:	40020088 	.word	0x40020088
 8004c6c:	400200a0 	.word	0x400200a0
 8004c70:	400200b8 	.word	0x400200b8
 8004c74:	40020410 	.word	0x40020410
 8004c78:	40020428 	.word	0x40020428
 8004c7c:	40020440 	.word	0x40020440
 8004c80:	40020458 	.word	0x40020458
 8004c84:	40020470 	.word	0x40020470
 8004c88:	40020488 	.word	0x40020488
 8004c8c:	400204a0 	.word	0x400204a0
 8004c90:	400204b8 	.word	0x400204b8
 8004c94:	687b      	ldr	r3, [r7, #4]
 8004c96:	681b      	ldr	r3, [r3, #0]
 8004c98:	681b      	ldr	r3, [r3, #0]
 8004c9a:	f003 0302 	and.w	r3, r3, #2
 8004c9e:	2b00      	cmp	r3, #0
 8004ca0:	bf14      	ite	ne
 8004ca2:	2301      	movne	r3, #1
 8004ca4:	2300      	moveq	r3, #0
 8004ca6:	b2db      	uxtb	r3, r3
 8004ca8:	2b00      	cmp	r3, #0
 8004caa:	f000 8087 	beq.w	8004dbc <HAL_DMA_IRQHandler+0x7f8>
 8004cae:	687b      	ldr	r3, [r7, #4]
 8004cb0:	6ddb      	ldr	r3, [r3, #92]	@ 0x5c
 8004cb2:	f003 031f 	and.w	r3, r3, #31
 8004cb6:	2220      	movs	r2, #32
 8004cb8:	409a      	lsls	r2, r3
 8004cba:	6a3b      	ldr	r3, [r7, #32]
 8004cbc:	609a      	str	r2, [r3, #8]
 8004cbe:	687b      	ldr	r3, [r7, #4]
 8004cc0:	f893 3035 	ldrb.w	r3, [r3, #53]	@ 0x35
 8004cc4:	b2db      	uxtb	r3, r3
 8004cc6:	2b04      	cmp	r3, #4
 8004cc8:	d139      	bne.n	8004d3e <HAL_DMA_IRQHandler+0x77a>
 8004cca:	687b      	ldr	r3, [r7, #4]
 8004ccc:	681b      	ldr	r3, [r3, #0]
 8004cce:	681a      	ldr	r2, [r3, #0]
 8004cd0:	687b      	ldr	r3, [r7, #4]
 8004cd2:	681b      	ldr	r3, [r3, #0]
 8004cd4:	f022 0216 	bic.w	r2, r2, #22
 8004cd8:	601a      	str	r2, [r3, #0]
 8004cda:	687b      	ldr	r3, [r7, #4]
 8004cdc:	681b      	ldr	r3, [r3, #0]
 8004cde:	695a      	ldr	r2, [r3, #20]
 8004ce0:	687b      	ldr	r3, [r7, #4]
 8004ce2:	681b      	ldr	r3, [r3, #0]
 8004ce4:	f022 0280 	bic.w	r2, r2, #128	@ 0x80
 8004ce8:	615a      	str	r2, [r3, #20]
 8004cea:	687b      	ldr	r3, [r7, #4]
 8004cec:	6c1b      	ldr	r3, [r3, #64]	@ 0x40
 8004cee:	2b00      	cmp	r3, #0
 8004cf0:	d103      	bne.n	8004cfa <HAL_DMA_IRQHandler+0x736>
 8004cf2:	687b      	ldr	r3, [r7, #4]
 8004cf4:	6c9b      	ldr	r3, [r3, #72]	@ 0x48
 8004cf6:	2b00      	cmp	r3, #0
 8004cf8:	d007      	beq.n	8004d0a <HAL_DMA_IRQHandler+0x746>
 8004cfa:	687b      	ldr	r3, [r7, #4]
 8004cfc:	681b      	ldr	r3, [r3, #0]
 8004cfe:	681a      	ldr	r2, [r3, #0]
 8004d00:	687b      	ldr	r3, [r7, #4]
 8004d02:	681b      	ldr	r3, [r3, #0]
 8004d04:	f022 0208 	bic.w	r2, r2, #8
 8004d08:	601a      	str	r2, [r3, #0]
 8004d0a:	687b      	ldr	r3, [r7, #4]
 8004d0c:	6ddb      	ldr	r3, [r3, #92]	@ 0x5c
 8004d0e:	f003 031f 	and.w	r3, r3, #31
 8004d12:	223f      	movs	r2, #63	@ 0x3f
 8004d14:	409a      	lsls	r2, r3
 8004d16:	6a3b      	ldr	r3, [r7, #32]
 8004d18:	609a      	str	r2, [r3, #8]
 8004d1a:	687b      	ldr	r3, [r7, #4]
 8004d1c:	2201      	movs	r2, #1
 8004d1e:	f883 2035 	strb.w	r2, [r3, #53]	@ 0x35
 8004d22:	687b      	ldr	r3, [r7, #4]
 8004d24:	2200      	movs	r2, #0
 8004d26:	f883 2034 	strb.w	r2, [r3, #52]	@ 0x34
 8004d2a:	687b      	ldr	r3, [r7, #4]
 8004d2c:	6d1b      	ldr	r3, [r3, #80]	@ 0x50
 8004d2e:	2b00      	cmp	r3, #0
 8004d30:	f000 8382 	beq.w	8005438 <HAL_DMA_IRQHandler+0xe74>
 8004d34:	687b      	ldr	r3, [r7, #4]
 8004d36:	6d1b      	ldr	r3, [r3, #80]	@ 0x50
 8004d38:	6878      	ldr	r0, [r7, #4]
 8004d3a:	4798      	blx	r3
 8004d3c:	e37c      	b.n	8005438 <HAL_DMA_IRQHandler+0xe74>
 8004d3e:	687b      	ldr	r3, [r7, #4]
 8004d40:	681b      	ldr	r3, [r3, #0]
 8004d42:	681b      	ldr	r3, [r3, #0]
 8004d44:	f403 2380 	and.w	r3, r3, #262144	@ 0x40000
 8004d48:	2b00      	cmp	r3, #0
 8004d4a:	d018      	beq.n	8004d7e <HAL_DMA_IRQHandler+0x7ba>
 8004d4c:	687b      	ldr	r3, [r7, #4]
 8004d4e:	681b      	ldr	r3, [r3, #0]
 8004d50:	681b      	ldr	r3, [r3, #0]
 8004d52:	f403 2300 	and.w	r3, r3, #524288	@ 0x80000
 8004d56:	2b00      	cmp	r3, #0
 8004d58:	d108      	bne.n	8004d6c <HAL_DMA_IRQHandler+0x7a8>
 8004d5a:	687b      	ldr	r3, [r7, #4]
 8004d5c:	6c5b      	ldr	r3, [r3, #68]	@ 0x44
 8004d5e:	2b00      	cmp	r3, #0
 8004d60:	d02c      	beq.n	8004dbc <HAL_DMA_IRQHandler+0x7f8>
 8004d62:	687b      	ldr	r3, [r7, #4]
 8004d64:	6c5b      	ldr	r3, [r3, #68]	@ 0x44
 8004d66:	6878      	ldr	r0, [r7, #4]
 8004d68:	4798      	blx	r3
 8004d6a:	e027      	b.n	8004dbc <HAL_DMA_IRQHandler+0x7f8>
 8004d6c:	687b      	ldr	r3, [r7, #4]
 8004d6e:	6bdb      	ldr	r3, [r3, #60]	@ 0x3c
 8004d70:	2b00      	cmp	r3, #0
 8004d72:	d023      	beq.n	8004dbc <HAL_DMA_IRQHandler+0x7f8>
 8004d74:	687b      	ldr	r3, [r7, #4]
 8004d76:	6bdb      	ldr	r3, [r3, #60]	@ 0x3c
 8004d78:	6878      	ldr	r0, [r7, #4]
 8004d7a:	4798      	blx	r3
 8004d7c:	e01e      	b.n	8004dbc <HAL_DMA_IRQHandler+0x7f8>
 8004d7e:	687b      	ldr	r3, [r7, #4]
 8004d80:	681b      	ldr	r3, [r3, #0]
 8004d82:	681b      	ldr	r3, [r3, #0]
 8004d84:	f403 7380 	and.w	r3, r3, #256	@ 0x100
 8004d88:	2b00      	cmp	r3, #0
 8004d8a:	d10f      	bne.n	8004dac <HAL_DMA_IRQHandler+0x7e8>
 8004d8c:	687b      	ldr	r3, [r7, #4]
 8004d8e:	681b      	ldr	r3, [r3, #0]
 8004d90:	681a      	ldr	r2, [r3, #0]
 8004d92:	687b      	ldr	r3, [r7, #4]
 8004d94:	681b      	ldr	r3, [r3, #0]
 8004d96:	f022 0210 	bic.w	r2, r2, #16
 8004d9a:	601a      	str	r2, [r3, #0]
 8004d9c:	687b      	ldr	r3, [r7, #4]
 8004d9e:	2201      	movs	r2, #1
 8004da0:	f883 2035 	strb.w	r2, [r3, #53]	@ 0x35
 8004da4:	687b      	ldr	r3, [r7, #4]
 8004da6:	2200      	movs	r2, #0
 8004da8:	f883 2034 	strb.w	r2, [r3, #52]	@ 0x34
 8004dac:	687b      	ldr	r3, [r7, #4]
 8004dae:	6bdb      	ldr	r3, [r3, #60]	@ 0x3c
 8004db0:	2b00      	cmp	r3, #0
 8004db2:	d003      	beq.n	8004dbc <HAL_DMA_IRQHandler+0x7f8>
 8004db4:	687b      	ldr	r3, [r7, #4]
 8004db6:	6bdb      	ldr	r3, [r3, #60]	@ 0x3c
 8004db8:	6878      	ldr	r0, [r7, #4]
 8004dba:	4798      	blx	r3
 8004dbc:	687b      	ldr	r3, [r7, #4]
 8004dbe:	6d5b      	ldr	r3, [r3, #84]	@ 0x54
 8004dc0:	2b00      	cmp	r3, #0
 8004dc2:	f000 833e 	beq.w	8005442 <HAL_DMA_IRQHandler+0xe7e>
 8004dc6:	687b      	ldr	r3, [r7, #4]
 8004dc8:	6d5b      	ldr	r3, [r3, #84]	@ 0x54
 8004dca:	f003 0301 	and.w	r3, r3, #1
 8004dce:	2b00      	cmp	r3, #0
 8004dd0:	f000 8088 	beq.w	8004ee4 <HAL_DMA_IRQHandler+0x920>
 8004dd4:	687b      	ldr	r3, [r7, #4]
 8004dd6:	2204      	movs	r2, #4
 8004dd8:	f883 2035 	strb.w	r2, [r3, #53]	@ 0x35
 8004ddc:	687b      	ldr	r3, [r7, #4]
 8004dde:	681b      	ldr	r3, [r3, #0]
 8004de0:	4a89      	ldr	r2, [pc, #548]	@ (8005008 <HAL_DMA_IRQHandler+0xa44>)
 8004de2:	4293      	cmp	r3, r2
 8004de4:	d04a      	beq.n	8004e7c <HAL_DMA_IRQHandler+0x8b8>
 8004de6:	687b      	ldr	r3, [r7, #4]
 8004de8:	681b      	ldr	r3, [r3, #0]
 8004dea:	4a88      	ldr	r2, [pc, #544]	@ (800500c <HAL_DMA_IRQHandler+0xa48>)
 8004dec:	4293      	cmp	r3, r2
 8004dee:	d045      	beq.n	8004e7c <HAL_DMA_IRQHandler+0x8b8>
 8004df0:	687b      	ldr	r3, [r7, #4]
 8004df2:	681b      	ldr	r3, [r3, #0]
 8004df4:	4a86      	ldr	r2, [pc, #536]	@ (8005010 <HAL_DMA_IRQHandler+0xa4c>)
 8004df6:	4293      	cmp	r3, r2
 8004df8:	d040      	beq.n	8004e7c <HAL_DMA_IRQHandler+0x8b8>
 8004dfa:	687b      	ldr	r3, [r7, #4]
 8004dfc:	681b      	ldr	r3, [r3, #0]
 8004dfe:	4a85      	ldr	r2, [pc, #532]	@ (8005014 <HAL_DMA_IRQHandler+0xa50>)
 8004e00:	4293      	cmp	r3, r2
 8004e02:	d03b      	beq.n	8004e7c <HAL_DMA_IRQHandler+0x8b8>
 8004e04:	687b      	ldr	r3, [r7, #4]
 8004e06:	681b      	ldr	r3, [r3, #0]
 8004e08:	4a83      	ldr	r2, [pc, #524]	@ (8005018 <HAL_DMA_IRQHandler+0xa54>)
 8004e0a:	4293      	cmp	r3, r2
 8004e0c:	d036      	beq.n	8004e7c <HAL_DMA_IRQHandler+0x8b8>
 8004e0e:	687b      	ldr	r3, [r7, #4]
 8004e10:	681b      	ldr	r3, [r3, #0]
 8004e12:	4a82      	ldr	r2, [pc, #520]	@ (800501c <HAL_DMA_IRQHandler+0xa58>)
 8004e14:	4293      	cmp	r3, r2
 8004e16:	d031      	beq.n	8004e7c <HAL_DMA_IRQHandler+0x8b8>
 8004e18:	687b      	ldr	r3, [r7, #4]
 8004e1a:	681b      	ldr	r3, [r3, #0]
 8004e1c:	4a80      	ldr	r2, [pc, #512]	@ (8005020 <HAL_DMA_IRQHandler+0xa5c>)
 8004e1e:	4293      	cmp	r3, r2
 8004e20:	d02c      	beq.n	8004e7c <HAL_DMA_IRQHandler+0x8b8>
 8004e22:	687b      	ldr	r3, [r7, #4]
 8004e24:	681b      	ldr	r3, [r3, #0]
 8004e26:	4a7f      	ldr	r2, [pc, #508]	@ (8005024 <HAL_DMA_IRQHandler+0xa60>)
 8004e28:	4293      	cmp	r3, r2
 8004e2a:	d027      	beq.n	8004e7c <HAL_DMA_IRQHandler+0x8b8>
 8004e2c:	687b      	ldr	r3, [r7, #4]
 8004e2e:	681b      	ldr	r3, [r3, #0]
 8004e30:	4a7d      	ldr	r2, [pc, #500]	@ (8005028 <HAL_DMA_IRQHandler+0xa64>)
 8004e32:	4293      	cmp	r3, r2
 8004e34:	d022      	beq.n	8004e7c <HAL_DMA_IRQHandler+0x8b8>
 8004e36:	687b      	ldr	r3, [r7, #4]
 8004e38:	681b      	ldr	r3, [r3, #0]
 8004e3a:	4a7c      	ldr	r2, [pc, #496]	@ (800502c <HAL_DMA_IRQHandler+0xa68>)
 8004e3c:	4293      	cmp	r3, r2
 8004e3e:	d01d      	beq.n	8004e7c <HAL_DMA_IRQHandler+0x8b8>
 8004e40:	687b      	ldr	r3, [r7, #4]
 8004e42:	681b      	ldr	r3, [r3, #0]
 8004e44:	4a7a      	ldr	r2, [pc, #488]	@ (8005030 <HAL_DMA_IRQHandler+0xa6c>)
 8004e46:	4293      	cmp	r3, r2
 8004e48:	d018      	beq.n	8004e7c <HAL_DMA_IRQHandler+0x8b8>
 8004e4a:	687b      	ldr	r3, [r7, #4]
 8004e4c:	681b      	ldr	r3, [r3, #0]
 8004e4e:	4a79      	ldr	r2, [pc, #484]	@ (8005034 <HAL_DMA_IRQHandler+0xa70>)
 8004e50:	4293      	cmp	r3, r2
 8004e52:	d013      	beq.n	8004e7c <HAL_DMA_IRQHandler+0x8b8>
 8004e54:	687b      	ldr	r3, [r7, #4]
 8004e56:	681b      	ldr	r3, [r3, #0]
 8004e58:	4a77      	ldr	r2, [pc, #476]	@ (8005038 <HAL_DMA_IRQHandler+0xa74>)
 8004e5a:	4293      	cmp	r3, r2
 8004e5c:	d00e      	beq.n	8004e7c <HAL_DMA_IRQHandler+0x8b8>
 8004e5e:	687b      	ldr	r3, [r7, #4]
 8004e60:	681b      	ldr	r3, [r3, #0]
 8004e62:	4a76      	ldr	r2, [pc, #472]	@ (800503c <HAL_DMA_IRQHandler+0xa78>)
 8004e64:	4293      	cmp	r3, r2
 8004e66:	d009      	beq.n	8004e7c <HAL_DMA_IRQHandler+0x8b8>
 8004e68:	687b      	ldr	r3, [r7, #4]
 8004e6a:	681b      	ldr	r3, [r3, #0]
 8004e6c:	4a74      	ldr	r2, [pc, #464]	@ (8005040 <HAL_DMA_IRQHandler+0xa7c>)
 8004e6e:	4293      	cmp	r3, r2
 8004e70:	d004      	beq.n	8004e7c <HAL_DMA_IRQHandler+0x8b8>
 8004e72:	687b      	ldr	r3, [r7, #4]
 8004e74:	681b      	ldr	r3, [r3, #0]
 8004e76:	4a73      	ldr	r2, [pc, #460]	@ (8005044 <HAL_DMA_IRQHandler+0xa80>)
 8004e78:	4293      	cmp	r3, r2
 8004e7a:	d108      	bne.n	8004e8e <HAL_DMA_IRQHandler+0x8ca>
 8004e7c:	687b      	ldr	r3, [r7, #4]
 8004e7e:	681b      	ldr	r3, [r3, #0]
 8004e80:	681a      	ldr	r2, [r3, #0]
 8004e82:	687b      	ldr	r3, [r7, #4]
 8004e84:	681b      	ldr	r3, [r3, #0]
 8004e86:	f022 0201 	bic.w	r2, r2, #1
 8004e8a:	601a      	str	r2, [r3, #0]
 8004e8c:	e007      	b.n	8004e9e <HAL_DMA_IRQHandler+0x8da>
 8004e8e:	687b      	ldr	r3, [r7, #4]
 8004e90:	681b      	ldr	r3, [r3, #0]
 8004e92:	681a      	ldr	r2, [r3, #0]
 8004e94:	687b      	ldr	r3, [r7, #4]
 8004e96:	681b      	ldr	r3, [r3, #0]
 8004e98:	f022 0201 	bic.w	r2, r2, #1
 8004e9c:	601a      	str	r2, [r3, #0]
 8004e9e:	68fb      	ldr	r3, [r7, #12]
 8004ea0:	3301      	adds	r3, #1
 8004ea2:	60fb      	str	r3, [r7, #12]
 8004ea4:	6a7a      	ldr	r2, [r7, #36]	@ 0x24
 8004ea6:	429a      	cmp	r2, r3
 8004ea8:	d307      	bcc.n	8004eba <HAL_DMA_IRQHandler+0x8f6>
 8004eaa:	687b      	ldr	r3, [r7, #4]
 8004eac:	681b      	ldr	r3, [r3, #0]
 8004eae:	681b      	ldr	r3, [r3, #0]
 8004eb0:	f003 0301 	and.w	r3, r3, #1
 8004eb4:	2b00      	cmp	r3, #0
 8004eb6:	d1f2      	bne.n	8004e9e <HAL_DMA_IRQHandler+0x8da>
 8004eb8:	e000      	b.n	8004ebc <HAL_DMA_IRQHandler+0x8f8>
 8004eba:	bf00      	nop
 8004ebc:	687b      	ldr	r3, [r7, #4]
 8004ebe:	681b      	ldr	r3, [r3, #0]
 8004ec0:	681b      	ldr	r3, [r3, #0]
 8004ec2:	f003 0301 	and.w	r3, r3, #1
 8004ec6:	2b00      	cmp	r3, #0
 8004ec8:	d004      	beq.n	8004ed4 <HAL_DMA_IRQHandler+0x910>
 8004eca:	687b      	ldr	r3, [r7, #4]
 8004ecc:	2203      	movs	r2, #3
 8004ece:	f883 2035 	strb.w	r2, [r3, #53]	@ 0x35
 8004ed2:	e003      	b.n	8004edc <HAL_DMA_IRQHandler+0x918>
 8004ed4:	687b      	ldr	r3, [r7, #4]
 8004ed6:	2201      	movs	r2, #1
 8004ed8:	f883 2035 	strb.w	r2, [r3, #53]	@ 0x35
 8004edc:	687b      	ldr	r3, [r7, #4]
 8004ede:	2200      	movs	r2, #0
 8004ee0:	f883 2034 	strb.w	r2, [r3, #52]	@ 0x34
 8004ee4:	687b      	ldr	r3, [r7, #4]
 8004ee6:	6cdb      	ldr	r3, [r3, #76]	@ 0x4c
 8004ee8:	2b00      	cmp	r3, #0
 8004eea:	f000 82aa 	beq.w	8005442 <HAL_DMA_IRQHandler+0xe7e>
 8004eee:	687b      	ldr	r3, [r7, #4]
 8004ef0:	6cdb      	ldr	r3, [r3, #76]	@ 0x4c
 8004ef2:	6878      	ldr	r0, [r7, #4]
 8004ef4:	4798      	blx	r3
 8004ef6:	e2a4      	b.n	8005442 <HAL_DMA_IRQHandler+0xe7e>
 8004ef8:	687b      	ldr	r3, [r7, #4]
 8004efa:	681b      	ldr	r3, [r3, #0]
 8004efc:	4a52      	ldr	r2, [pc, #328]	@ (8005048 <HAL_DMA_IRQHandler+0xa84>)
 8004efe:	4293      	cmp	r3, r2
 8004f00:	d04a      	beq.n	8004f98 <HAL_DMA_IRQHandler+0x9d4>
 8004f02:	687b      	ldr	r3, [r7, #4]
 8004f04:	681b      	ldr	r3, [r3, #0]
 8004f06:	4a51      	ldr	r2, [pc, #324]	@ (800504c <HAL_DMA_IRQHandler+0xa88>)
 8004f08:	4293      	cmp	r3, r2
 8004f0a:	d045      	beq.n	8004f98 <HAL_DMA_IRQHandler+0x9d4>
 8004f0c:	687b      	ldr	r3, [r7, #4]
 8004f0e:	681b      	ldr	r3, [r3, #0]
 8004f10:	4a4f      	ldr	r2, [pc, #316]	@ (8005050 <HAL_DMA_IRQHandler+0xa8c>)
 8004f12:	4293      	cmp	r3, r2
 8004f14:	d040      	beq.n	8004f98 <HAL_DMA_IRQHandler+0x9d4>
 8004f16:	687b      	ldr	r3, [r7, #4]
 8004f18:	681b      	ldr	r3, [r3, #0]
 8004f1a:	4a4e      	ldr	r2, [pc, #312]	@ (8005054 <HAL_DMA_IRQHandler+0xa90>)
 8004f1c:	4293      	cmp	r3, r2
 8004f1e:	d03b      	beq.n	8004f98 <HAL_DMA_IRQHandler+0x9d4>
 8004f20:	687b      	ldr	r3, [r7, #4]
 8004f22:	681b      	ldr	r3, [r3, #0]
 8004f24:	4a4c      	ldr	r2, [pc, #304]	@ (8005058 <HAL_DMA_IRQHandler+0xa94>)
 8004f26:	4293      	cmp	r3, r2
 8004f28:	d036      	beq.n	8004f98 <HAL_DMA_IRQHandler+0x9d4>
 8004f2a:	687b      	ldr	r3, [r7, #4]
 8004f2c:	681b      	ldr	r3, [r3, #0]
 8004f2e:	4a4b      	ldr	r2, [pc, #300]	@ (800505c <HAL_DMA_IRQHandler+0xa98>)
 8004f30:	4293      	cmp	r3, r2
 8004f32:	d031      	beq.n	8004f98 <HAL_DMA_IRQHandler+0x9d4>
 8004f34:	687b      	ldr	r3, [r7, #4]
 8004f36:	681b      	ldr	r3, [r3, #0]
 8004f38:	4a49      	ldr	r2, [pc, #292]	@ (8005060 <HAL_DMA_IRQHandler+0xa9c>)
 8004f3a:	4293      	cmp	r3, r2
 8004f3c:	d02c      	beq.n	8004f98 <HAL_DMA_IRQHandler+0x9d4>
 8004f3e:	687b      	ldr	r3, [r7, #4]
 8004f40:	681b      	ldr	r3, [r3, #0]
 8004f42:	4a48      	ldr	r2, [pc, #288]	@ (8005064 <HAL_DMA_IRQHandler+0xaa0>)
 8004f44:	4293      	cmp	r3, r2
 8004f46:	d027      	beq.n	8004f98 <HAL_DMA_IRQHandler+0x9d4>
 8004f48:	687b      	ldr	r3, [r7, #4]
 8004f4a:	681b      	ldr	r3, [r3, #0]
 8004f4c:	4a46      	ldr	r2, [pc, #280]	@ (8005068 <HAL_DMA_IRQHandler+0xaa4>)
 8004f4e:	4293      	cmp	r3, r2
 8004f50:	d022      	beq.n	8004f98 <HAL_DMA_IRQHandler+0x9d4>
 8004f52:	687b      	ldr	r3, [r7, #4]
 8004f54:	681b      	ldr	r3, [r3, #0]
 8004f56:	4a45      	ldr	r2, [pc, #276]	@ (800506c <HAL_DMA_IRQHandler+0xaa8>)
 8004f58:	4293      	cmp	r3, r2
 8004f5a:	d01d      	beq.n	8004f98 <HAL_DMA_IRQHandler+0x9d4>
 8004f5c:	687b      	ldr	r3, [r7, #4]
 8004f5e:	681b      	ldr	r3, [r3, #0]
 8004f60:	4a43      	ldr	r2, [pc, #268]	@ (8005070 <HAL_DMA_IRQHandler+0xaac>)
 8004f62:	4293      	cmp	r3, r2
 8004f64:	d018      	beq.n	8004f98 <HAL_DMA_IRQHandler+0x9d4>
 8004f66:	687b      	ldr	r3, [r7, #4]
 8004f68:	681b      	ldr	r3, [r3, #0]
 8004f6a:	4a42      	ldr	r2, [pc, #264]	@ (8005074 <HAL_DMA_IRQHandler+0xab0>)
 8004f6c:	4293      	cmp	r3, r2
 8004f6e:	d013      	beq.n	8004f98 <HAL_DMA_IRQHandler+0x9d4>
 8004f70:	687b      	ldr	r3, [r7, #4]
 8004f72:	681b      	ldr	r3, [r3, #0]
 8004f74:	4a40      	ldr	r2, [pc, #256]	@ (8005078 <HAL_DMA_IRQHandler+0xab4>)
 8004f76:	4293      	cmp	r3, r2
 8004f78:	d00e      	beq.n	8004f98 <HAL_DMA_IRQHandler+0x9d4>
 8004f7a:	687b      	ldr	r3, [r7, #4]
 8004f7c:	681b      	ldr	r3, [r3, #0]
 8004f7e:	4a3f      	ldr	r2, [pc, #252]	@ (800507c <HAL_DMA_IRQHandler+0xab8>)
 8004f80:	4293      	cmp	r3, r2
 8004f82:	d009      	beq.n	8004f98 <HAL_DMA_IRQHandler+0x9d4>
 8004f84:	687b      	ldr	r3, [r7, #4]
 8004f86:	681b      	ldr	r3, [r3, #0]
 8004f88:	4a3d      	ldr	r2, [pc, #244]	@ (8005080 <HAL_DMA_IRQHandler+0xabc>)
 8004f8a:	4293      	cmp	r3, r2
 8004f8c:	d004      	beq.n	8004f98 <HAL_DMA_IRQHandler+0x9d4>
 8004f8e:	687b      	ldr	r3, [r7, #4]
 8004f90:	681b      	ldr	r3, [r3, #0]
 8004f92:	4a3c      	ldr	r2, [pc, #240]	@ (8005084 <HAL_DMA_IRQHandler+0xac0>)
 8004f94:	4293      	cmp	r3, r2
 8004f96:	d101      	bne.n	8004f9c <HAL_DMA_IRQHandler+0x9d8>
 8004f98:	2301      	movs	r3, #1
 8004f9a:	e000      	b.n	8004f9e <HAL_DMA_IRQHandler+0x9da>
 8004f9c:	2300      	movs	r3, #0
 8004f9e:	2b00      	cmp	r3, #0
 8004fa0:	f000 824f 	beq.w	8005442 <HAL_DMA_IRQHandler+0xe7e>
 8004fa4:	687b      	ldr	r3, [r7, #4]
 8004fa6:	681b      	ldr	r3, [r3, #0]
 8004fa8:	681b      	ldr	r3, [r3, #0]
 8004faa:	613b      	str	r3, [r7, #16]
 8004fac:	687b      	ldr	r3, [r7, #4]
 8004fae:	6ddb      	ldr	r3, [r3, #92]	@ 0x5c
 8004fb0:	f003 031f 	and.w	r3, r3, #31
 8004fb4:	2204      	movs	r2, #4
 8004fb6:	409a      	lsls	r2, r3
 8004fb8:	697b      	ldr	r3, [r7, #20]
 8004fba:	4013      	ands	r3, r2
 8004fbc:	2b00      	cmp	r3, #0
 8004fbe:	f000 80dd 	beq.w	800517c <HAL_DMA_IRQHandler+0xbb8>
 8004fc2:	693b      	ldr	r3, [r7, #16]
 8004fc4:	f003 0304 	and.w	r3, r3, #4
 8004fc8:	2b00      	cmp	r3, #0
 8004fca:	f000 80d7 	beq.w	800517c <HAL_DMA_IRQHandler+0xbb8>
 8004fce:	687b      	ldr	r3, [r7, #4]
 8004fd0:	6ddb      	ldr	r3, [r3, #92]	@ 0x5c
 8004fd2:	f003 031f 	and.w	r3, r3, #31
 8004fd6:	2204      	movs	r2, #4
 8004fd8:	409a      	lsls	r2, r3
 8004fda:	69fb      	ldr	r3, [r7, #28]
 8004fdc:	605a      	str	r2, [r3, #4]
 8004fde:	693b      	ldr	r3, [r7, #16]
 8004fe0:	f403 4300 	and.w	r3, r3, #32768	@ 0x8000
 8004fe4:	2b00      	cmp	r3, #0
 8004fe6:	d059      	beq.n	800509c <HAL_DMA_IRQHandler+0xad8>
 8004fe8:	693b      	ldr	r3, [r7, #16]
 8004fea:	f403 3380 	and.w	r3, r3, #65536	@ 0x10000
 8004fee:	2b00      	cmp	r3, #0
 8004ff0:	d14a      	bne.n	8005088 <HAL_DMA_IRQHandler+0xac4>
 8004ff2:	687b      	ldr	r3, [r7, #4]
 8004ff4:	6c9b      	ldr	r3, [r3, #72]	@ 0x48
 8004ff6:	2b00      	cmp	r3, #0
 8004ff8:	f000 8220 	beq.w	800543c <HAL_DMA_IRQHandler+0xe78>
 8004ffc:	687b      	ldr	r3, [r7, #4]
 8004ffe:	6c9b      	ldr	r3, [r3, #72]	@ 0x48
 8005000:	6878      	ldr	r0, [r7, #4]
 8005002:	4798      	blx	r3
 8005004:	e21a      	b.n	800543c <HAL_DMA_IRQHandler+0xe78>
 8005006:	bf00      	nop
 8005008:	40020010 	.word	0x40020010
 800500c:	40020028 	.word	0x40020028
 8005010:	40020040 	.word	0x40020040
 8005014:	40020058 	.word	0x40020058
 8005018:	40020070 	.word	0x40020070
 800501c:	40020088 	.word	0x40020088
 8005020:	400200a0 	.word	0x400200a0
 8005024:	400200b8 	.word	0x400200b8
 8005028:	40020410 	.word	0x40020410
 800502c:	40020428 	.word	0x40020428
 8005030:	40020440 	.word	0x40020440
 8005034:	40020458 	.word	0x40020458
 8005038:	40020470 	.word	0x40020470
 800503c:	40020488 	.word	0x40020488
 8005040:	400204a0 	.word	0x400204a0
 8005044:	400204b8 	.word	0x400204b8
 8005048:	48022c08 	.word	0x48022c08
 800504c:	48022c1c 	.word	0x48022c1c
 8005050:	48022c30 	.word	0x48022c30
 8005054:	48022c44 	.word	0x48022c44
 8005058:	48022c58 	.word	0x48022c58
 800505c:	48022c6c 	.word	0x48022c6c
 8005060:	48022c80 	.word	0x48022c80
 8005064:	48022c94 	.word	0x48022c94
 8005068:	58025408 	.word	0x58025408
 800506c:	5802541c 	.word	0x5802541c
 8005070:	58025430 	.word	0x58025430
 8005074:	58025444 	.word	0x58025444
 8005078:	58025458 	.word	0x58025458
 800507c:	5802546c 	.word	0x5802546c
 8005080:	58025480 	.word	0x58025480
 8005084:	58025494 	.word	0x58025494
 8005088:	687b      	ldr	r3, [r7, #4]
 800508a:	6c1b      	ldr	r3, [r3, #64]	@ 0x40
 800508c:	2b00      	cmp	r3, #0
 800508e:	f000 81d5 	beq.w	800543c <HAL_DMA_IRQHandler+0xe78>
 8005092:	687b      	ldr	r3, [r7, #4]
 8005094:	6c1b      	ldr	r3, [r3, #64]	@ 0x40
 8005096:	6878      	ldr	r0, [r7, #4]
 8005098:	4798      	blx	r3
 800509a:	e1cf      	b.n	800543c <HAL_DMA_IRQHandler+0xe78>
 800509c:	693b      	ldr	r3, [r7, #16]
 800509e:	f003 0320 	and.w	r3, r3, #32
 80050a2:	2b00      	cmp	r3, #0
 80050a4:	d160      	bne.n	8005168 <HAL_DMA_IRQHandler+0xba4>
 80050a6:	687b      	ldr	r3, [r7, #4]
 80050a8:	681b      	ldr	r3, [r3, #0]
 80050aa:	4a7f      	ldr	r2, [pc, #508]	@ (80052a8 <HAL_DMA_IRQHandler+0xce4>)
 80050ac:	4293      	cmp	r3, r2
 80050ae:	d04a      	beq.n	8005146 <HAL_DMA_IRQHandler+0xb82>
 80050b0:	687b      	ldr	r3, [r7, #4]
 80050b2:	681b      	ldr	r3, [r3, #0]
 80050b4:	4a7d      	ldr	r2, [pc, #500]	@ (80052ac <HAL_DMA_IRQHandler+0xce8>)
 80050b6:	4293      	cmp	r3, r2
 80050b8:	d045      	beq.n	8005146 <HAL_DMA_IRQHandler+0xb82>
 80050ba:	687b      	ldr	r3, [r7, #4]
 80050bc:	681b      	ldr	r3, [r3, #0]
 80050be:	4a7c      	ldr	r2, [pc, #496]	@ (80052b0 <HAL_DMA_IRQHandler+0xcec>)
 80050c0:	4293      	cmp	r3, r2
 80050c2:	d040      	beq.n	8005146 <HAL_DMA_IRQHandler+0xb82>
 80050c4:	687b      	ldr	r3, [r7, #4]
 80050c6:	681b      	ldr	r3, [r3, #0]
 80050c8:	4a7a      	ldr	r2, [pc, #488]	@ (80052b4 <HAL_DMA_IRQHandler+0xcf0>)
 80050ca:	4293      	cmp	r3, r2
 80050cc:	d03b      	beq.n	8005146 <HAL_DMA_IRQHandler+0xb82>
 80050ce:	687b      	ldr	r3, [r7, #4]
 80050d0:	681b      	ldr	r3, [r3, #0]
 80050d2:	4a79      	ldr	r2, [pc, #484]	@ (80052b8 <HAL_DMA_IRQHandler+0xcf4>)
 80050d4:	4293      	cmp	r3, r2
 80050d6:	d036      	beq.n	8005146 <HAL_DMA_IRQHandler+0xb82>
 80050d8:	687b      	ldr	r3, [r7, #4]
 80050da:	681b      	ldr	r3, [r3, #0]
 80050dc:	4a77      	ldr	r2, [pc, #476]	@ (80052bc <HAL_DMA_IRQHandler+0xcf8>)
 80050de:	4293      	cmp	r3, r2
 80050e0:	d031      	beq.n	8005146 <HAL_DMA_IRQHandler+0xb82>
 80050e2:	687b      	ldr	r3, [r7, #4]
 80050e4:	681b      	ldr	r3, [r3, #0]
 80050e6:	4a76      	ldr	r2, [pc, #472]	@ (80052c0 <HAL_DMA_IRQHandler+0xcfc>)
 80050e8:	4293      	cmp	r3, r2
 80050ea:	d02c      	beq.n	8005146 <HAL_DMA_IRQHandler+0xb82>
 80050ec:	687b      	ldr	r3, [r7, #4]
 80050ee:	681b      	ldr	r3, [r3, #0]
 80050f0:	4a74      	ldr	r2, [pc, #464]	@ (80052c4 <HAL_DMA_IRQHandler+0xd00>)
 80050f2:	4293      	cmp	r3, r2
 80050f4:	d027      	beq.n	8005146 <HAL_DMA_IRQHandler+0xb82>
 80050f6:	687b      	ldr	r3, [r7, #4]
 80050f8:	681b      	ldr	r3, [r3, #0]
 80050fa:	4a73      	ldr	r2, [pc, #460]	@ (80052c8 <HAL_DMA_IRQHandler+0xd04>)
 80050fc:	4293      	cmp	r3, r2
 80050fe:	d022      	beq.n	8005146 <HAL_DMA_IRQHandler+0xb82>
 8005100:	687b      	ldr	r3, [r7, #4]
 8005102:	681b      	ldr	r3, [r3, #0]
 8005104:	4a71      	ldr	r2, [pc, #452]	@ (80052cc <HAL_DMA_IRQHandler+0xd08>)
 8005106:	4293      	cmp	r3, r2
 8005108:	d01d      	beq.n	8005146 <HAL_DMA_IRQHandler+0xb82>
 800510a:	687b      	ldr	r3, [r7, #4]
 800510c:	681b      	ldr	r3, [r3, #0]
 800510e:	4a70      	ldr	r2, [pc, #448]	@ (80052d0 <HAL_DMA_IRQHandler+0xd0c>)
 8005110:	4293      	cmp	r3, r2
 8005112:	d018      	beq.n	8005146 <HAL_DMA_IRQHandler+0xb82>
 8005114:	687b      	ldr	r3, [r7, #4]
 8005116:	681b      	ldr	r3, [r3, #0]
 8005118:	4a6e      	ldr	r2, [pc, #440]	@ (80052d4 <HAL_DMA_IRQHandler+0xd10>)
 800511a:	4293      	cmp	r3, r2
 800511c:	d013      	beq.n	8005146 <HAL_DMA_IRQHandler+0xb82>
 800511e:	687b      	ldr	r3, [r7, #4]
 8005120:	681b      	ldr	r3, [r3, #0]
 8005122:	4a6d      	ldr	r2, [pc, #436]	@ (80052d8 <HAL_DMA_IRQHandler+0xd14>)
 8005124:	4293      	cmp	r3, r2
 8005126:	d00e      	beq.n	8005146 <HAL_DMA_IRQHandler+0xb82>
 8005128:	687b      	ldr	r3, [r7, #4]
 800512a:	681b      	ldr	r3, [r3, #0]
 800512c:	4a6b      	ldr	r2, [pc, #428]	@ (80052dc <HAL_DMA_IRQHandler+0xd18>)
 800512e:	4293      	cmp	r3, r2
 8005130:	d009      	beq.n	8005146 <HAL_DMA_IRQHandler+0xb82>
 8005132:	687b      	ldr	r3, [r7, #4]
 8005134:	681b      	ldr	r3, [r3, #0]
 8005136:	4a6a      	ldr	r2, [pc, #424]	@ (80052e0 <HAL_DMA_IRQHandler+0xd1c>)
 8005138:	4293      	cmp	r3, r2
 800513a:	d004      	beq.n	8005146 <HAL_DMA_IRQHandler+0xb82>
 800513c:	687b      	ldr	r3, [r7, #4]
 800513e:	681b      	ldr	r3, [r3, #0]
 8005140:	4a68      	ldr	r2, [pc, #416]	@ (80052e4 <HAL_DMA_IRQHandler+0xd20>)
 8005142:	4293      	cmp	r3, r2
 8005144:	d108      	bne.n	8005158 <HAL_DMA_IRQHandler+0xb94>
 8005146:	687b      	ldr	r3, [r7, #4]
 8005148:	681b      	ldr	r3, [r3, #0]
 800514a:	681a      	ldr	r2, [r3, #0]
 800514c:	687b      	ldr	r3, [r7, #4]
 800514e:	681b      	ldr	r3, [r3, #0]
 8005150:	f022 0208 	bic.w	r2, r2, #8
 8005154:	601a      	str	r2, [r3, #0]
 8005156:	e007      	b.n	8005168 <HAL_DMA_IRQHandler+0xba4>
 8005158:	687b      	ldr	r3, [r7, #4]
 800515a:	681b      	ldr	r3, [r3, #0]
 800515c:	681a      	ldr	r2, [r3, #0]
 800515e:	687b      	ldr	r3, [r7, #4]
 8005160:	681b      	ldr	r3, [r3, #0]
 8005162:	f022 0204 	bic.w	r2, r2, #4
 8005166:	601a      	str	r2, [r3, #0]
 8005168:	687b      	ldr	r3, [r7, #4]
 800516a:	6c1b      	ldr	r3, [r3, #64]	@ 0x40
 800516c:	2b00      	cmp	r3, #0
 800516e:	f000 8165 	beq.w	800543c <HAL_DMA_IRQHandler+0xe78>
 8005172:	687b      	ldr	r3, [r7, #4]
 8005174:	6c1b      	ldr	r3, [r3, #64]	@ 0x40
 8005176:	6878      	ldr	r0, [r7, #4]
 8005178:	4798      	blx	r3
 800517a:	e15f      	b.n	800543c <HAL_DMA_IRQHandler+0xe78>
 800517c:	687b      	ldr	r3, [r7, #4]
 800517e:	6ddb      	ldr	r3, [r3, #92]	@ 0x5c
 8005180:	f003 031f 	and.w	r3, r3, #31
 8005184:	2202      	movs	r2, #2
 8005186:	409a      	lsls	r2, r3
 8005188:	697b      	ldr	r3, [r7, #20]
 800518a:	4013      	ands	r3, r2
 800518c:	2b00      	cmp	r3, #0
 800518e:	f000 80c5 	beq.w	800531c <HAL_DMA_IRQHandler+0xd58>
 8005192:	693b      	ldr	r3, [r7, #16]
 8005194:	f003 0302 	and.w	r3, r3, #2
 8005198:	2b00      	cmp	r3, #0
 800519a:	f000 80bf 	beq.w	800531c <HAL_DMA_IRQHandler+0xd58>
 800519e:	687b      	ldr	r3, [r7, #4]
 80051a0:	6ddb      	ldr	r3, [r3, #92]	@ 0x5c
 80051a2:	f003 031f 	and.w	r3, r3, #31
 80051a6:	2202      	movs	r2, #2
 80051a8:	409a      	lsls	r2, r3
 80051aa:	69fb      	ldr	r3, [r7, #28]
 80051ac:	605a      	str	r2, [r3, #4]
 80051ae:	693b      	ldr	r3, [r7, #16]
 80051b0:	f403 4300 	and.w	r3, r3, #32768	@ 0x8000
 80051b4:	2b00      	cmp	r3, #0
 80051b6:	d018      	beq.n	80051ea <HAL_DMA_IRQHandler+0xc26>
 80051b8:	693b      	ldr	r3, [r7, #16]
 80051ba:	f403 3380 	and.w	r3, r3, #65536	@ 0x10000
 80051be:	2b00      	cmp	r3, #0
 80051c0:	d109      	bne.n	80051d6 <HAL_DMA_IRQHandler+0xc12>
 80051c2:	687b      	ldr	r3, [r7, #4]
 80051c4:	6c5b      	ldr	r3, [r3, #68]	@ 0x44
 80051c6:	2b00      	cmp	r3, #0
 80051c8:	f000 813a 	beq.w	8005440 <HAL_DMA_IRQHandler+0xe7c>
 80051cc:	687b      	ldr	r3, [r7, #4]
 80051ce:	6c5b      	ldr	r3, [r3, #68]	@ 0x44
 80051d0:	6878      	ldr	r0, [r7, #4]
 80051d2:	4798      	blx	r3
 80051d4:	e134      	b.n	8005440 <HAL_DMA_IRQHandler+0xe7c>
 80051d6:	687b      	ldr	r3, [r7, #4]
 80051d8:	6bdb      	ldr	r3, [r3, #60]	@ 0x3c
 80051da:	2b00      	cmp	r3, #0
 80051dc:	f000 8130 	beq.w	8005440 <HAL_DMA_IRQHandler+0xe7c>
 80051e0:	687b      	ldr	r3, [r7, #4]
 80051e2:	6bdb      	ldr	r3, [r3, #60]	@ 0x3c
 80051e4:	6878      	ldr	r0, [r7, #4]
 80051e6:	4798      	blx	r3
 80051e8:	e12a      	b.n	8005440 <HAL_DMA_IRQHandler+0xe7c>
 80051ea:	693b      	ldr	r3, [r7, #16]
 80051ec:	f003 0320 	and.w	r3, r3, #32
 80051f0:	2b00      	cmp	r3, #0
 80051f2:	f040 8089 	bne.w	8005308 <HAL_DMA_IRQHandler+0xd44>
 80051f6:	687b      	ldr	r3, [r7, #4]
 80051f8:	681b      	ldr	r3, [r3, #0]
 80051fa:	4a2b      	ldr	r2, [pc, #172]	@ (80052a8 <HAL_DMA_IRQHandler+0xce4>)
 80051fc:	4293      	cmp	r3, r2
 80051fe:	d04a      	beq.n	8005296 <HAL_DMA_IRQHandler+0xcd2>
 8005200:	687b      	ldr	r3, [r7, #4]
 8005202:	681b      	ldr	r3, [r3, #0]
 8005204:	4a29      	ldr	r2, [pc, #164]	@ (80052ac <HAL_DMA_IRQHandler+0xce8>)
 8005206:	4293      	cmp	r3, r2
 8005208:	d045      	beq.n	8005296 <HAL_DMA_IRQHandler+0xcd2>
 800520a:	687b      	ldr	r3, [r7, #4]
 800520c:	681b      	ldr	r3, [r3, #0]
 800520e:	4a28      	ldr	r2, [pc, #160]	@ (80052b0 <HAL_DMA_IRQHandler+0xcec>)
 8005210:	4293      	cmp	r3, r2
 8005212:	d040      	beq.n	8005296 <HAL_DMA_IRQHandler+0xcd2>
 8005214:	687b      	ldr	r3, [r7, #4]
 8005216:	681b      	ldr	r3, [r3, #0]
 8005218:	4a26      	ldr	r2, [pc, #152]	@ (80052b4 <HAL_DMA_IRQHandler+0xcf0>)
 800521a:	4293      	cmp	r3, r2
 800521c:	d03b      	beq.n	8005296 <HAL_DMA_IRQHandler+0xcd2>
 800521e:	687b      	ldr	r3, [r7, #4]
 8005220:	681b      	ldr	r3, [r3, #0]
 8005222:	4a25      	ldr	r2, [pc, #148]	@ (80052b8 <HAL_DMA_IRQHandler+0xcf4>)
 8005224:	4293      	cmp	r3, r2
 8005226:	d036      	beq.n	8005296 <HAL_DMA_IRQHandler+0xcd2>
 8005228:	687b      	ldr	r3, [r7, #4]
 800522a:	681b      	ldr	r3, [r3, #0]
 800522c:	4a23      	ldr	r2, [pc, #140]	@ (80052bc <HAL_DMA_IRQHandler+0xcf8>)
 800522e:	4293      	cmp	r3, r2
 8005230:	d031      	beq.n	8005296 <HAL_DMA_IRQHandler+0xcd2>
 8005232:	687b      	ldr	r3, [r7, #4]
 8005234:	681b      	ldr	r3, [r3, #0]
 8005236:	4a22      	ldr	r2, [pc, #136]	@ (80052c0 <HAL_DMA_IRQHandler+0xcfc>)
 8005238:	4293      	cmp	r3, r2
 800523a:	d02c      	beq.n	8005296 <HAL_DMA_IRQHandler+0xcd2>
 800523c:	687b      	ldr	r3, [r7, #4]
 800523e:	681b      	ldr	r3, [r3, #0]
 8005240:	4a20      	ldr	r2, [pc, #128]	@ (80052c4 <HAL_DMA_IRQHandler+0xd00>)
 8005242:	4293      	cmp	r3, r2
 8005244:	d027      	beq.n	8005296 <HAL_DMA_IRQHandler+0xcd2>
 8005246:	687b      	ldr	r3, [r7, #4]
 8005248:	681b      	ldr	r3, [r3, #0]
 800524a:	4a1f      	ldr	r2, [pc, #124]	@ (80052c8 <HAL_DMA_IRQHandler+0xd04>)
 800524c:	4293      	cmp	r3, r2
 800524e:	d022      	beq.n	8005296 <HAL_DMA_IRQHandler+0xcd2>
 8005250:	687b      	ldr	r3, [r7, #4]
 8005252:	681b      	ldr	r3, [r3, #0]
 8005254:	4a1d      	ldr	r2, [pc, #116]	@ (80052cc <HAL_DMA_IRQHandler+0xd08>)
 8005256:	4293      	cmp	r3, r2
 8005258:	d01d      	beq.n	8005296 <HAL_DMA_IRQHandler+0xcd2>
 800525a:	687b      	ldr	r3, [r7, #4]
 800525c:	681b      	ldr	r3, [r3, #0]
 800525e:	4a1c      	ldr	r2, [pc, #112]	@ (80052d0 <HAL_DMA_IRQHandler+0xd0c>)
 8005260:	4293      	cmp	r3, r2
 8005262:	d018      	beq.n	8005296 <HAL_DMA_IRQHandler+0xcd2>
 8005264:	687b      	ldr	r3, [r7, #4]
 8005266:	681b      	ldr	r3, [r3, #0]
 8005268:	4a1a      	ldr	r2, [pc, #104]	@ (80052d4 <HAL_DMA_IRQHandler+0xd10>)
 800526a:	4293      	cmp	r3, r2
 800526c:	d013      	beq.n	8005296 <HAL_DMA_IRQHandler+0xcd2>
 800526e:	687b      	ldr	r3, [r7, #4]
 8005270:	681b      	ldr	r3, [r3, #0]
 8005272:	4a19      	ldr	r2, [pc, #100]	@ (80052d8 <HAL_DMA_IRQHandler+0xd14>)
 8005274:	4293      	cmp	r3, r2
 8005276:	d00e      	beq.n	8005296 <HAL_DMA_IRQHandler+0xcd2>
 8005278:	687b      	ldr	r3, [r7, #4]
 800527a:	681b      	ldr	r3, [r3, #0]
 800527c:	4a17      	ldr	r2, [pc, #92]	@ (80052dc <HAL_DMA_IRQHandler+0xd18>)
 800527e:	4293      	cmp	r3, r2
 8005280:	d009      	beq.n	8005296 <HAL_DMA_IRQHandler+0xcd2>
 8005282:	687b      	ldr	r3, [r7, #4]
 8005284:	681b      	ldr	r3, [r3, #0]
 8005286:	4a16      	ldr	r2, [pc, #88]	@ (80052e0 <HAL_DMA_IRQHandler+0xd1c>)
 8005288:	4293      	cmp	r3, r2
 800528a:	d004      	beq.n	8005296 <HAL_DMA_IRQHandler+0xcd2>
 800528c:	687b      	ldr	r3, [r7, #4]
 800528e:	681b      	ldr	r3, [r3, #0]
 8005290:	4a14      	ldr	r2, [pc, #80]	@ (80052e4 <HAL_DMA_IRQHandler+0xd20>)
 8005292:	4293      	cmp	r3, r2
 8005294:	d128      	bne.n	80052e8 <HAL_DMA_IRQHandler+0xd24>
 8005296:	687b      	ldr	r3, [r7, #4]
 8005298:	681b      	ldr	r3, [r3, #0]
 800529a:	681a      	ldr	r2, [r3, #0]
 800529c:	687b      	ldr	r3, [r7, #4]
 800529e:	681b      	ldr	r3, [r3, #0]
 80052a0:	f022 0214 	bic.w	r2, r2, #20
 80052a4:	601a      	str	r2, [r3, #0]
 80052a6:	e027      	b.n	80052f8 <HAL_DMA_IRQHandler+0xd34>
 80052a8:	40020010 	.word	0x40020010
 80052ac:	40020028 	.word	0x40020028
 80052b0:	40020040 	.word	0x40020040
 80052b4:	40020058 	.word	0x40020058
 80052b8:	40020070 	.word	0x40020070
 80052bc:	40020088 	.word	0x40020088
 80052c0:	400200a0 	.word	0x400200a0
 80052c4:	400200b8 	.word	0x400200b8
 80052c8:	40020410 	.word	0x40020410
 80052cc:	40020428 	.word	0x40020428
 80052d0:	40020440 	.word	0x40020440
 80052d4:	40020458 	.word	0x40020458
 80052d8:	40020470 	.word	0x40020470
 80052dc:	40020488 	.word	0x40020488
 80052e0:	400204a0 	.word	0x400204a0
 80052e4:	400204b8 	.word	0x400204b8
 80052e8:	687b      	ldr	r3, [r7, #4]
 80052ea:	681b      	ldr	r3, [r3, #0]
 80052ec:	681a      	ldr	r2, [r3, #0]
 80052ee:	687b      	ldr	r3, [r7, #4]
 80052f0:	681b      	ldr	r3, [r3, #0]
 80052f2:	f022 020a 	bic.w	r2, r2, #10
 80052f6:	601a      	str	r2, [r3, #0]
 80052f8:	687b      	ldr	r3, [r7, #4]
 80052fa:	2201      	movs	r2, #1
 80052fc:	f883 2035 	strb.w	r2, [r3, #53]	@ 0x35
 8005300:	687b      	ldr	r3, [r7, #4]
 8005302:	2200      	movs	r2, #0
 8005304:	f883 2034 	strb.w	r2, [r3, #52]	@ 0x34
 8005308:	687b      	ldr	r3, [r7, #4]
 800530a:	6bdb      	ldr	r3, [r3, #60]	@ 0x3c
 800530c:	2b00      	cmp	r3, #0
 800530e:	f000 8097 	beq.w	8005440 <HAL_DMA_IRQHandler+0xe7c>
 8005312:	687b      	ldr	r3, [r7, #4]
 8005314:	6bdb      	ldr	r3, [r3, #60]	@ 0x3c
 8005316:	6878      	ldr	r0, [r7, #4]
 8005318:	4798      	blx	r3
 800531a:	e091      	b.n	8005440 <HAL_DMA_IRQHandler+0xe7c>
 800531c:	687b      	ldr	r3, [r7, #4]
 800531e:	6ddb      	ldr	r3, [r3, #92]	@ 0x5c
 8005320:	f003 031f 	and.w	r3, r3, #31
 8005324:	2208      	movs	r2, #8
 8005326:	409a      	lsls	r2, r3
 8005328:	697b      	ldr	r3, [r7, #20]
 800532a:	4013      	ands	r3, r2
 800532c:	2b00      	cmp	r3, #0
 800532e:	f000 8088 	beq.w	8005442 <HAL_DMA_IRQHandler+0xe7e>
 8005332:	693b      	ldr	r3, [r7, #16]
 8005334:	f003 0308 	and.w	r3, r3, #8
 8005338:	2b00      	cmp	r3, #0
 800533a:	f000 8082 	beq.w	8005442 <HAL_DMA_IRQHandler+0xe7e>
 800533e:	687b      	ldr	r3, [r7, #4]
 8005340:	681b      	ldr	r3, [r3, #0]
 8005342:	4a41      	ldr	r2, [pc, #260]	@ (8005448 <HAL_DMA_IRQHandler+0xe84>)
 8005344:	4293      	cmp	r3, r2
 8005346:	d04a      	beq.n	80053de <HAL_DMA_IRQHandler+0xe1a>
 8005348:	687b      	ldr	r3, [r7, #4]
 800534a:	681b      	ldr	r3, [r3, #0]
 800534c:	4a3f      	ldr	r2, [pc, #252]	@ (800544c <HAL_DMA_IRQHandler+0xe88>)
 800534e:	4293      	cmp	r3, r2
 8005350:	d045      	beq.n	80053de <HAL_DMA_IRQHandler+0xe1a>
 8005352:	687b      	ldr	r3, [r7, #4]
 8005354:	681b      	ldr	r3, [r3, #0]
 8005356:	4a3e      	ldr	r2, [pc, #248]	@ (8005450 <HAL_DMA_IRQHandler+0xe8c>)
 8005358:	4293      	cmp	r3, r2
 800535a:	d040      	beq.n	80053de <HAL_DMA_IRQHandler+0xe1a>
 800535c:	687b      	ldr	r3, [r7, #4]
 800535e:	681b      	ldr	r3, [r3, #0]
 8005360:	4a3c      	ldr	r2, [pc, #240]	@ (8005454 <HAL_DMA_IRQHandler+0xe90>)
 8005362:	4293      	cmp	r3, r2
 8005364:	d03b      	beq.n	80053de <HAL_DMA_IRQHandler+0xe1a>
 8005366:	687b      	ldr	r3, [r7, #4]
 8005368:	681b      	ldr	r3, [r3, #0]
 800536a:	4a3b      	ldr	r2, [pc, #236]	@ (8005458 <HAL_DMA_IRQHandler+0xe94>)
 800536c:	4293      	cmp	r3, r2
 800536e:	d036      	beq.n	80053de <HAL_DMA_IRQHandler+0xe1a>
 8005370:	687b      	ldr	r3, [r7, #4]
 8005372:	681b      	ldr	r3, [r3, #0]
 8005374:	4a39      	ldr	r2, [pc, #228]	@ (800545c <HAL_DMA_IRQHandler+0xe98>)
 8005376:	4293      	cmp	r3, r2
 8005378:	d031      	beq.n	80053de <HAL_DMA_IRQHandler+0xe1a>
 800537a:	687b      	ldr	r3, [r7, #4]
 800537c:	681b      	ldr	r3, [r3, #0]
 800537e:	4a38      	ldr	r2, [pc, #224]	@ (8005460 <HAL_DMA_IRQHandler+0xe9c>)
 8005380:	4293      	cmp	r3, r2
 8005382:	d02c      	beq.n	80053de <HAL_DMA_IRQHandler+0xe1a>
 8005384:	687b      	ldr	r3, [r7, #4]
 8005386:	681b      	ldr	r3, [r3, #0]
 8005388:	4a36      	ldr	r2, [pc, #216]	@ (8005464 <HAL_DMA_IRQHandler+0xea0>)
 800538a:	4293      	cmp	r3, r2
 800538c:	d027      	beq.n	80053de <HAL_DMA_IRQHandler+0xe1a>
 800538e:	687b      	ldr	r3, [r7, #4]
 8005390:	681b      	ldr	r3, [r3, #0]
 8005392:	4a35      	ldr	r2, [pc, #212]	@ (8005468 <HAL_DMA_IRQHandler+0xea4>)
 8005394:	4293      	cmp	r3, r2
 8005396:	d022      	beq.n	80053de <HAL_DMA_IRQHandler+0xe1a>
 8005398:	687b      	ldr	r3, [r7, #4]
 800539a:	681b      	ldr	r3, [r3, #0]
 800539c:	4a33      	ldr	r2, [pc, #204]	@ (800546c <HAL_DMA_IRQHandler+0xea8>)
 800539e:	4293      	cmp	r3, r2
 80053a0:	d01d      	beq.n	80053de <HAL_DMA_IRQHandler+0xe1a>
 80053a2:	687b      	ldr	r3, [r7, #4]
 80053a4:	681b      	ldr	r3, [r3, #0]
 80053a6:	4a32      	ldr	r2, [pc, #200]	@ (8005470 <HAL_DMA_IRQHandler+0xeac>)
 80053a8:	4293      	cmp	r3, r2
 80053aa:	d018      	beq.n	80053de <HAL_DMA_IRQHandler+0xe1a>
 80053ac:	687b      	ldr	r3, [r7, #4]
 80053ae:	681b      	ldr	r3, [r3, #0]
 80053b0:	4a30      	ldr	r2, [pc, #192]	@ (8005474 <HAL_DMA_IRQHandler+0xeb0>)
 80053b2:	4293      	cmp	r3, r2
 80053b4:	d013      	beq.n	80053de <HAL_DMA_IRQHandler+0xe1a>
 80053b6:	687b      	ldr	r3, [r7, #4]
 80053b8:	681b      	ldr	r3, [r3, #0]
 80053ba:	4a2f      	ldr	r2, [pc, #188]	@ (8005478 <HAL_DMA_IRQHandler+0xeb4>)
 80053bc:	4293      	cmp	r3, r2
 80053be:	d00e      	beq.n	80053de <HAL_DMA_IRQHandler+0xe1a>
 80053c0:	687b      	ldr	r3, [r7, #4]
 80053c2:	681b      	ldr	r3, [r3, #0]
 80053c4:	4a2d      	ldr	r2, [pc, #180]	@ (800547c <HAL_DMA_IRQHandler+0xeb8>)
 80053c6:	4293      	cmp	r3, r2
 80053c8:	d009      	beq.n	80053de <HAL_DMA_IRQHandler+0xe1a>
 80053ca:	687b      	ldr	r3, [r7, #4]
 80053cc:	681b      	ldr	r3, [r3, #0]
 80053ce:	4a2c      	ldr	r2, [pc, #176]	@ (8005480 <HAL_DMA_IRQHandler+0xebc>)
 80053d0:	4293      	cmp	r3, r2
 80053d2:	d004      	beq.n	80053de <HAL_DMA_IRQHandler+0xe1a>
 80053d4:	687b      	ldr	r3, [r7, #4]
 80053d6:	681b      	ldr	r3, [r3, #0]
 80053d8:	4a2a      	ldr	r2, [pc, #168]	@ (8005484 <HAL_DMA_IRQHandler+0xec0>)
 80053da:	4293      	cmp	r3, r2
 80053dc:	d108      	bne.n	80053f0 <HAL_DMA_IRQHandler+0xe2c>
 80053de:	687b      	ldr	r3, [r7, #4]
 80053e0:	681b      	ldr	r3, [r3, #0]
 80053e2:	681a      	ldr	r2, [r3, #0]
 80053e4:	687b      	ldr	r3, [r7, #4]
 80053e6:	681b      	ldr	r3, [r3, #0]
 80053e8:	f022 021c 	bic.w	r2, r2, #28
 80053ec:	601a      	str	r2, [r3, #0]
 80053ee:	e007      	b.n	8005400 <HAL_DMA_IRQHandler+0xe3c>
 80053f0:	687b      	ldr	r3, [r7, #4]
 80053f2:	681b      	ldr	r3, [r3, #0]
 80053f4:	681a      	ldr	r2, [r3, #0]
 80053f6:	687b      	ldr	r3, [r7, #4]
 80053f8:	681b      	ldr	r3, [r3, #0]
 80053fa:	f022 020e 	bic.w	r2, r2, #14
 80053fe:	601a      	str	r2, [r3, #0]
 8005400:	687b      	ldr	r3, [r7, #4]
 8005402:	6ddb      	ldr	r3, [r3, #92]	@ 0x5c
 8005404:	f003 031f 	and.w	r3, r3, #31
 8005408:	2201      	movs	r2, #1
 800540a:	409a      	lsls	r2, r3
 800540c:	69fb      	ldr	r3, [r7, #28]
 800540e:	605a      	str	r2, [r3, #4]
 8005410:	687b      	ldr	r3, [r7, #4]
 8005412:	2201      	movs	r2, #1
 8005414:	655a      	str	r2, [r3, #84]	@ 0x54
 8005416:	687b      	ldr	r3, [r7, #4]
 8005418:	2201      	movs	r2, #1
 800541a:	f883 2035 	strb.w	r2, [r3, #53]	@ 0x35
 800541e:	687b      	ldr	r3, [r7, #4]
 8005420:	2200      	movs	r2, #0
 8005422:	f883 2034 	strb.w	r2, [r3, #52]	@ 0x34
 8005426:	687b      	ldr	r3, [r7, #4]
 8005428:	6cdb      	ldr	r3, [r3, #76]	@ 0x4c
 800542a:	2b00      	cmp	r3, #0
 800542c:	d009      	beq.n	8005442 <HAL_DMA_IRQHandler+0xe7e>
 800542e:	687b      	ldr	r3, [r7, #4]
 8005430:	6cdb      	ldr	r3, [r3, #76]	@ 0x4c
 8005432:	6878      	ldr	r0, [r7, #4]
 8005434:	4798      	blx	r3
 8005436:	e004      	b.n	8005442 <HAL_DMA_IRQHandler+0xe7e>
 8005438:	bf00      	nop
 800543a:	e002      	b.n	8005442 <HAL_DMA_IRQHandler+0xe7e>
 800543c:	bf00      	nop
 800543e:	e000      	b.n	8005442 <HAL_DMA_IRQHandler+0xe7e>
 8005440:	bf00      	nop
 8005442:	3728      	adds	r7, #40	@ 0x28
 8005444:	46bd      	mov	sp, r7
 8005446:	bd80      	pop	{r7, pc}
 8005448:	40020010 	.word	0x40020010
 800544c:	40020028 	.word	0x40020028
 8005450:	40020040 	.word	0x40020040
 8005454:	40020058 	.word	0x40020058
 8005458:	40020070 	.word	0x40020070
 800545c:	40020088 	.word	0x40020088
 8005460:	400200a0 	.word	0x400200a0
 8005464:	400200b8 	.word	0x400200b8
 8005468:	40020410 	.word	0x40020410
 800546c:	40020428 	.word	0x40020428
 8005470:	40020440 	.word	0x40020440
 8005474:	40020458 	.word	0x40020458
 8005478:	40020470 	.word	0x40020470
 800547c:	40020488 	.word	0x40020488
 8005480:	400204a0 	.word	0x400204a0
 8005484:	400204b8 	.word	0x400204b8

08005488 <DMA_SetConfig>:
 8005488:	b480      	push	{r7}
 800548a:	b087      	sub	sp, #28
 800548c:	af00      	add	r7, sp, #0
 800548e:	60f8      	str	r0, [r7, #12]
 8005490:	60b9      	str	r1, [r7, #8]
 8005492:	607a      	str	r2, [r7, #4]
 8005494:	603b      	str	r3, [r7, #0]
 8005496:	68fb      	ldr	r3, [r7, #12]
 8005498:	6d9b      	ldr	r3, [r3, #88]	@ 0x58
 800549a:	617b      	str	r3, [r7, #20]
 800549c:	68fb      	ldr	r3, [r7, #12]
 800549e:	6d9b      	ldr	r3, [r3, #88]	@ 0x58
 80054a0:	613b      	str	r3, [r7, #16]
 80054a2:	68fb      	ldr	r3, [r7, #12]
 80054a4:	681b      	ldr	r3, [r3, #0]
 80054a6:	4a7f      	ldr	r2, [pc, #508]	@ (80056a4 <DMA_SetConfig+0x21c>)
 80054a8:	4293      	cmp	r3, r2
 80054aa:	d072      	beq.n	8005592 <DMA_SetConfig+0x10a>
 80054ac:	68fb      	ldr	r3, [r7, #12]
 80054ae:	681b      	ldr	r3, [r3, #0]
 80054b0:	4a7d      	ldr	r2, [pc, #500]	@ (80056a8 <DMA_SetConfig+0x220>)
 80054b2:	4293      	cmp	r3, r2
 80054b4:	d06d      	beq.n	8005592 <DMA_SetConfig+0x10a>
 80054b6:	68fb      	ldr	r3, [r7, #12]
 80054b8:	681b      	ldr	r3, [r3, #0]
 80054ba:	4a7c      	ldr	r2, [pc, #496]	@ (80056ac <DMA_SetConfig+0x224>)
 80054bc:	4293      	cmp	r3, r2
 80054be:	d068      	beq.n	8005592 <DMA_SetConfig+0x10a>
 80054c0:	68fb      	ldr	r3, [r7, #12]
 80054c2:	681b      	ldr	r3, [r3, #0]
 80054c4:	4a7a      	ldr	r2, [pc, #488]	@ (80056b0 <DMA_SetConfig+0x228>)
 80054c6:	4293      	cmp	r3, r2
 80054c8:	d063      	beq.n	8005592 <DMA_SetConfig+0x10a>
 80054ca:	68fb      	ldr	r3, [r7, #12]
 80054cc:	681b      	ldr	r3, [r3, #0]
 80054ce:	4a79      	ldr	r2, [pc, #484]	@ (80056b4 <DMA_SetConfig+0x22c>)
 80054d0:	4293      	cmp	r3, r2
 80054d2:	d05e      	beq.n	8005592 <DMA_SetConfig+0x10a>
 80054d4:	68fb      	ldr	r3, [r7, #12]
 80054d6:	681b      	ldr	r3, [r3, #0]
 80054d8:	4a77      	ldr	r2, [pc, #476]	@ (80056b8 <DMA_SetConfig+0x230>)
 80054da:	4293      	cmp	r3, r2
 80054dc:	d059      	beq.n	8005592 <DMA_SetConfig+0x10a>
 80054de:	68fb      	ldr	r3, [r7, #12]
 80054e0:	681b      	ldr	r3, [r3, #0]
 80054e2:	4a76      	ldr	r2, [pc, #472]	@ (80056bc <DMA_SetConfig+0x234>)
 80054e4:	4293      	cmp	r3, r2
 80054e6:	d054      	beq.n	8005592 <DMA_SetConfig+0x10a>
 80054e8:	68fb      	ldr	r3, [r7, #12]
 80054ea:	681b      	ldr	r3, [r3, #0]
 80054ec:	4a74      	ldr	r2, [pc, #464]	@ (80056c0 <DMA_SetConfig+0x238>)
 80054ee:	4293      	cmp	r3, r2
 80054f0:	d04f      	beq.n	8005592 <DMA_SetConfig+0x10a>
 80054f2:	68fb      	ldr	r3, [r7, #12]
 80054f4:	681b      	ldr	r3, [r3, #0]
 80054f6:	4a73      	ldr	r2, [pc, #460]	@ (80056c4 <DMA_SetConfig+0x23c>)
 80054f8:	4293      	cmp	r3, r2
 80054fa:	d04a      	beq.n	8005592 <DMA_SetConfig+0x10a>
 80054fc:	68fb      	ldr	r3, [r7, #12]
 80054fe:	681b      	ldr	r3, [r3, #0]
 8005500:	4a71      	ldr	r2, [pc, #452]	@ (80056c8 <DMA_SetConfig+0x240>)
 8005502:	4293      	cmp	r3, r2
 8005504:	d045      	beq.n	8005592 <DMA_SetConfig+0x10a>
 8005506:	68fb      	ldr	r3, [r7, #12]
 8005508:	681b      	ldr	r3, [r3, #0]
 800550a:	4a70      	ldr	r2, [pc, #448]	@ (80056cc <DMA_SetConfig+0x244>)
 800550c:	4293      	cmp	r3, r2
 800550e:	d040      	beq.n	8005592 <DMA_SetConfig+0x10a>
 8005510:	68fb      	ldr	r3, [r7, #12]
 8005512:	681b      	ldr	r3, [r3, #0]
 8005514:	4a6e      	ldr	r2, [pc, #440]	@ (80056d0 <DMA_SetConfig+0x248>)
 8005516:	4293      	cmp	r3, r2
 8005518:	d03b      	beq.n	8005592 <DMA_SetConfig+0x10a>
 800551a:	68fb      	ldr	r3, [r7, #12]
 800551c:	681b      	ldr	r3, [r3, #0]
 800551e:	4a6d      	ldr	r2, [pc, #436]	@ (80056d4 <DMA_SetConfig+0x24c>)
 8005520:	4293      	cmp	r3, r2
 8005522:	d036      	beq.n	8005592 <DMA_SetConfig+0x10a>
 8005524:	68fb      	ldr	r3, [r7, #12]
 8005526:	681b      	ldr	r3, [r3, #0]
 8005528:	4a6b      	ldr	r2, [pc, #428]	@ (80056d8 <DMA_SetConfig+0x250>)
 800552a:	4293      	cmp	r3, r2
 800552c:	d031      	beq.n	8005592 <DMA_SetConfig+0x10a>
 800552e:	68fb      	ldr	r3, [r7, #12]
 8005530:	681b      	ldr	r3, [r3, #0]
 8005532:	4a6a      	ldr	r2, [pc, #424]	@ (80056dc <DMA_SetConfig+0x254>)
 8005534:	4293      	cmp	r3, r2
 8005536:	d02c      	beq.n	8005592 <DMA_SetConfig+0x10a>
 8005538:	68fb      	ldr	r3, [r7, #12]
 800553a:	681b      	ldr	r3, [r3, #0]
 800553c:	4a68      	ldr	r2, [pc, #416]	@ (80056e0 <DMA_SetConfig+0x258>)
 800553e:	4293      	cmp	r3, r2
 8005540:	d027      	beq.n	8005592 <DMA_SetConfig+0x10a>
 8005542:	68fb      	ldr	r3, [r7, #12]
 8005544:	681b      	ldr	r3, [r3, #0]
 8005546:	4a67      	ldr	r2, [pc, #412]	@ (80056e4 <DMA_SetConfig+0x25c>)
 8005548:	4293      	cmp	r3, r2
 800554a:	d022      	beq.n	8005592 <DMA_SetConfig+0x10a>
 800554c:	68fb      	ldr	r3, [r7, #12]
 800554e:	681b      	ldr	r3, [r3, #0]
 8005550:	4a65      	ldr	r2, [pc, #404]	@ (80056e8 <DMA_SetConfig+0x260>)
 8005552:	4293      	cmp	r3, r2
 8005554:	d01d      	beq.n	8005592 <DMA_SetConfig+0x10a>
 8005556:	68fb      	ldr	r3, [r7, #12]
 8005558:	681b      	ldr	r3, [r3, #0]
 800555a:	4a64      	ldr	r2, [pc, #400]	@ (80056ec <DMA_SetConfig+0x264>)
 800555c:	4293      	cmp	r3, r2
 800555e:	d018      	beq.n	8005592 <DMA_SetConfig+0x10a>
 8005560:	68fb      	ldr	r3, [r7, #12]
 8005562:	681b      	ldr	r3, [r3, #0]
 8005564:	4a62      	ldr	r2, [pc, #392]	@ (80056f0 <DMA_SetConfig+0x268>)
 8005566:	4293      	cmp	r3, r2
 8005568:	d013      	beq.n	8005592 <DMA_SetConfig+0x10a>
 800556a:	68fb      	ldr	r3, [r7, #12]
 800556c:	681b      	ldr	r3, [r3, #0]
 800556e:	4a61      	ldr	r2, [pc, #388]	@ (80056f4 <DMA_SetConfig+0x26c>)
 8005570:	4293      	cmp	r3, r2
 8005572:	d00e      	beq.n	8005592 <DMA_SetConfig+0x10a>
 8005574:	68fb      	ldr	r3, [r7, #12]
 8005576:	681b      	ldr	r3, [r3, #0]
 8005578:	4a5f      	ldr	r2, [pc, #380]	@ (80056f8 <DMA_SetConfig+0x270>)
 800557a:	4293      	cmp	r3, r2
 800557c:	d009      	beq.n	8005592 <DMA_SetConfig+0x10a>
 800557e:	68fb      	ldr	r3, [r7, #12]
 8005580:	681b      	ldr	r3, [r3, #0]
 8005582:	4a5e      	ldr	r2, [pc, #376]	@ (80056fc <DMA_SetConfig+0x274>)
 8005584:	4293      	cmp	r3, r2
 8005586:	d004      	beq.n	8005592 <DMA_SetConfig+0x10a>
 8005588:	68fb      	ldr	r3, [r7, #12]
 800558a:	681b      	ldr	r3, [r3, #0]
 800558c:	4a5c      	ldr	r2, [pc, #368]	@ (8005700 <DMA_SetConfig+0x278>)
 800558e:	4293      	cmp	r3, r2
 8005590:	d101      	bne.n	8005596 <DMA_SetConfig+0x10e>
 8005592:	2301      	movs	r3, #1
 8005594:	e000      	b.n	8005598 <DMA_SetConfig+0x110>
 8005596:	2300      	movs	r3, #0
 8005598:	2b00      	cmp	r3, #0
 800559a:	d00d      	beq.n	80055b8 <DMA_SetConfig+0x130>
 800559c:	68fb      	ldr	r3, [r7, #12]
 800559e:	6e5b      	ldr	r3, [r3, #100]	@ 0x64
 80055a0:	68fa      	ldr	r2, [r7, #12]
 80055a2:	6e92      	ldr	r2, [r2, #104]	@ 0x68
 80055a4:	605a      	str	r2, [r3, #4]
 80055a6:	68fb      	ldr	r3, [r7, #12]
 80055a8:	6edb      	ldr	r3, [r3, #108]	@ 0x6c
 80055aa:	2b00      	cmp	r3, #0
 80055ac:	d004      	beq.n	80055b8 <DMA_SetConfig+0x130>
 80055ae:	68fb      	ldr	r3, [r7, #12]
 80055b0:	6f1b      	ldr	r3, [r3, #112]	@ 0x70
 80055b2:	68fa      	ldr	r2, [r7, #12]
 80055b4:	6f52      	ldr	r2, [r2, #116]	@ 0x74
 80055b6:	605a      	str	r2, [r3, #4]
 80055b8:	68fb      	ldr	r3, [r7, #12]
 80055ba:	681b      	ldr	r3, [r3, #0]
 80055bc:	4a39      	ldr	r2, [pc, #228]	@ (80056a4 <DMA_SetConfig+0x21c>)
 80055be:	4293      	cmp	r3, r2
 80055c0:	d04a      	beq.n	8005658 <DMA_SetConfig+0x1d0>
 80055c2:	68fb      	ldr	r3, [r7, #12]
 80055c4:	681b      	ldr	r3, [r3, #0]
 80055c6:	4a38      	ldr	r2, [pc, #224]	@ (80056a8 <DMA_SetConfig+0x220>)
 80055c8:	4293      	cmp	r3, r2
 80055ca:	d045      	beq.n	8005658 <DMA_SetConfig+0x1d0>
 80055cc:	68fb      	ldr	r3, [r7, #12]
 80055ce:	681b      	ldr	r3, [r3, #0]
 80055d0:	4a36      	ldr	r2, [pc, #216]	@ (80056ac <DMA_SetConfig+0x224>)
 80055d2:	4293      	cmp	r3, r2
 80055d4:	d040      	beq.n	8005658 <DMA_SetConfig+0x1d0>
 80055d6:	68fb      	ldr	r3, [r7, #12]
 80055d8:	681b      	ldr	r3, [r3, #0]
 80055da:	4a35      	ldr	r2, [pc, #212]	@ (80056b0 <DMA_SetConfig+0x228>)
 80055dc:	4293      	cmp	r3, r2
 80055de:	d03b      	beq.n	8005658 <DMA_SetConfig+0x1d0>
 80055e0:	68fb      	ldr	r3, [r7, #12]
 80055e2:	681b      	ldr	r3, [r3, #0]
 80055e4:	4a33      	ldr	r2, [pc, #204]	@ (80056b4 <DMA_SetConfig+0x22c>)
 80055e6:	4293      	cmp	r3, r2
 80055e8:	d036      	beq.n	8005658 <DMA_SetConfig+0x1d0>
 80055ea:	68fb      	ldr	r3, [r7, #12]
 80055ec:	681b      	ldr	r3, [r3, #0]
 80055ee:	4a32      	ldr	r2, [pc, #200]	@ (80056b8 <DMA_SetConfig+0x230>)
 80055f0:	4293      	cmp	r3, r2
 80055f2:	d031      	beq.n	8005658 <DMA_SetConfig+0x1d0>
 80055f4:	68fb      	ldr	r3, [r7, #12]
 80055f6:	681b      	ldr	r3, [r3, #0]
 80055f8:	4a30      	ldr	r2, [pc, #192]	@ (80056bc <DMA_SetConfig+0x234>)
 80055fa:	4293      	cmp	r3, r2
 80055fc:	d02c      	beq.n	8005658 <DMA_SetConfig+0x1d0>
 80055fe:	68fb      	ldr	r3, [r7, #12]
 8005600:	681b      	ldr	r3, [r3, #0]
 8005602:	4a2f      	ldr	r2, [pc, #188]	@ (80056c0 <DMA_SetConfig+0x238>)
 8005604:	4293      	cmp	r3, r2
 8005606:	d027      	beq.n	8005658 <DMA_SetConfig+0x1d0>
 8005608:	68fb      	ldr	r3, [r7, #12]
 800560a:	681b      	ldr	r3, [r3, #0]
 800560c:	4a2d      	ldr	r2, [pc, #180]	@ (80056c4 <DMA_SetConfig+0x23c>)
 800560e:	4293      	cmp	r3, r2
 8005610:	d022      	beq.n	8005658 <DMA_SetConfig+0x1d0>
 8005612:	68fb      	ldr	r3, [r7, #12]
 8005614:	681b      	ldr	r3, [r3, #0]
 8005616:	4a2c      	ldr	r2, [pc, #176]	@ (80056c8 <DMA_SetConfig+0x240>)
 8005618:	4293      	cmp	r3, r2
 800561a:	d01d      	beq.n	8005658 <DMA_SetConfig+0x1d0>
 800561c:	68fb      	ldr	r3, [r7, #12]
 800561e:	681b      	ldr	r3, [r3, #0]
 8005620:	4a2a      	ldr	r2, [pc, #168]	@ (80056cc <DMA_SetConfig+0x244>)
 8005622:	4293      	cmp	r3, r2
 8005624:	d018      	beq.n	8005658 <DMA_SetConfig+0x1d0>
 8005626:	68fb      	ldr	r3, [r7, #12]
 8005628:	681b      	ldr	r3, [r3, #0]
 800562a:	4a29      	ldr	r2, [pc, #164]	@ (80056d0 <DMA_SetConfig+0x248>)
 800562c:	4293      	cmp	r3, r2
 800562e:	d013      	beq.n	8005658 <DMA_SetConfig+0x1d0>
 8005630:	68fb      	ldr	r3, [r7, #12]
 8005632:	681b      	ldr	r3, [r3, #0]
 8005634:	4a27      	ldr	r2, [pc, #156]	@ (80056d4 <DMA_SetConfig+0x24c>)
 8005636:	4293      	cmp	r3, r2
 8005638:	d00e      	beq.n	8005658 <DMA_SetConfig+0x1d0>
 800563a:	68fb      	ldr	r3, [r7, #12]
 800563c:	681b      	ldr	r3, [r3, #0]
 800563e:	4a26      	ldr	r2, [pc, #152]	@ (80056d8 <DMA_SetConfig+0x250>)
 8005640:	4293      	cmp	r3, r2
 8005642:	d009      	beq.n	8005658 <DMA_SetConfig+0x1d0>
 8005644:	68fb      	ldr	r3, [r7, #12]
 8005646:	681b      	ldr	r3, [r3, #0]
 8005648:	4a24      	ldr	r2, [pc, #144]	@ (80056dc <DMA_SetConfig+0x254>)
 800564a:	4293      	cmp	r3, r2
 800564c:	d004      	beq.n	8005658 <DMA_SetConfig+0x1d0>
 800564e:	68fb      	ldr	r3, [r7, #12]
 8005650:	681b      	ldr	r3, [r3, #0]
 8005652:	4a23      	ldr	r2, [pc, #140]	@ (80056e0 <DMA_SetConfig+0x258>)
 8005654:	4293      	cmp	r3, r2
 8005656:	d101      	bne.n	800565c <DMA_SetConfig+0x1d4>
 8005658:	2301      	movs	r3, #1
 800565a:	e000      	b.n	800565e <DMA_SetConfig+0x1d6>
 800565c:	2300      	movs	r3, #0
 800565e:	2b00      	cmp	r3, #0
 8005660:	d059      	beq.n	8005716 <DMA_SetConfig+0x28e>
 8005662:	68fb      	ldr	r3, [r7, #12]
 8005664:	6ddb      	ldr	r3, [r3, #92]	@ 0x5c
 8005666:	f003 031f 	and.w	r3, r3, #31
 800566a:	223f      	movs	r2, #63	@ 0x3f
 800566c:	409a      	lsls	r2, r3
 800566e:	697b      	ldr	r3, [r7, #20]
 8005670:	609a      	str	r2, [r3, #8]
 8005672:	68fb      	ldr	r3, [r7, #12]
 8005674:	681b      	ldr	r3, [r3, #0]
 8005676:	681a      	ldr	r2, [r3, #0]
 8005678:	68fb      	ldr	r3, [r7, #12]
 800567a:	681b      	ldr	r3, [r3, #0]
 800567c:	f422 2280 	bic.w	r2, r2, #262144	@ 0x40000
 8005680:	601a      	str	r2, [r3, #0]
 8005682:	68fb      	ldr	r3, [r7, #12]
 8005684:	681b      	ldr	r3, [r3, #0]
 8005686:	683a      	ldr	r2, [r7, #0]
 8005688:	605a      	str	r2, [r3, #4]
 800568a:	68fb      	ldr	r3, [r7, #12]
 800568c:	689b      	ldr	r3, [r3, #8]
 800568e:	2b40      	cmp	r3, #64	@ 0x40
 8005690:	d138      	bne.n	8005704 <DMA_SetConfig+0x27c>
 8005692:	68fb      	ldr	r3, [r7, #12]
 8005694:	681b      	ldr	r3, [r3, #0]
 8005696:	687a      	ldr	r2, [r7, #4]
 8005698:	609a      	str	r2, [r3, #8]
 800569a:	68fb      	ldr	r3, [r7, #12]
 800569c:	681b      	ldr	r3, [r3, #0]
 800569e:	68ba      	ldr	r2, [r7, #8]
 80056a0:	60da      	str	r2, [r3, #12]
 80056a2:	e0ae      	b.n	8005802 <DMA_SetConfig+0x37a>
 80056a4:	40020010 	.word	0x40020010
 80056a8:	40020028 	.word	0x40020028
 80056ac:	40020040 	.word	0x40020040
 80056b0:	40020058 	.word	0x40020058
 80056b4:	40020070 	.word	0x40020070
 80056b8:	40020088 	.word	0x40020088
 80056bc:	400200a0 	.word	0x400200a0
 80056c0:	400200b8 	.word	0x400200b8
 80056c4:	40020410 	.word	0x40020410
 80056c8:	40020428 	.word	0x40020428
 80056cc:	40020440 	.word	0x40020440
 80056d0:	40020458 	.word	0x40020458
 80056d4:	40020470 	.word	0x40020470
 80056d8:	40020488 	.word	0x40020488
 80056dc:	400204a0 	.word	0x400204a0
 80056e0:	400204b8 	.word	0x400204b8
 80056e4:	58025408 	.word	0x58025408
 80056e8:	5802541c 	.word	0x5802541c
 80056ec:	58025430 	.word	0x58025430
 80056f0:	58025444 	.word	0x58025444
 80056f4:	58025458 	.word	0x58025458
 80056f8:	5802546c 	.word	0x5802546c
 80056fc:	58025480 	.word	0x58025480
 8005700:	58025494 	.word	0x58025494
 8005704:	68fb      	ldr	r3, [r7, #12]
 8005706:	681b      	ldr	r3, [r3, #0]
 8005708:	68ba      	ldr	r2, [r7, #8]
 800570a:	609a      	str	r2, [r3, #8]
 800570c:	68fb      	ldr	r3, [r7, #12]
 800570e:	681b      	ldr	r3, [r3, #0]
 8005710:	687a      	ldr	r2, [r7, #4]
 8005712:	60da      	str	r2, [r3, #12]
 8005714:	e075      	b.n	8005802 <DMA_SetConfig+0x37a>
 8005716:	68fb      	ldr	r3, [r7, #12]
 8005718:	681b      	ldr	r3, [r3, #0]
 800571a:	4a3d      	ldr	r2, [pc, #244]	@ (8005810 <DMA_SetConfig+0x388>)
 800571c:	4293      	cmp	r3, r2
 800571e:	d04a      	beq.n	80057b6 <DMA_SetConfig+0x32e>
 8005720:	68fb      	ldr	r3, [r7, #12]
 8005722:	681b      	ldr	r3, [r3, #0]
 8005724:	4a3b      	ldr	r2, [pc, #236]	@ (8005814 <DMA_SetConfig+0x38c>)
 8005726:	4293      	cmp	r3, r2
 8005728:	d045      	beq.n	80057b6 <DMA_SetConfig+0x32e>
 800572a:	68fb      	ldr	r3, [r7, #12]
 800572c:	681b      	ldr	r3, [r3, #0]
 800572e:	4a3a      	ldr	r2, [pc, #232]	@ (8005818 <DMA_SetConfig+0x390>)
 8005730:	4293      	cmp	r3, r2
 8005732:	d040      	beq.n	80057b6 <DMA_SetConfig+0x32e>
 8005734:	68fb      	ldr	r3, [r7, #12]
 8005736:	681b      	ldr	r3, [r3, #0]
 8005738:	4a38      	ldr	r2, [pc, #224]	@ (800581c <DMA_SetConfig+0x394>)
 800573a:	4293      	cmp	r3, r2
 800573c:	d03b      	beq.n	80057b6 <DMA_SetConfig+0x32e>
 800573e:	68fb      	ldr	r3, [r7, #12]
 8005740:	681b      	ldr	r3, [r3, #0]
 8005742:	4a37      	ldr	r2, [pc, #220]	@ (8005820 <DMA_SetConfig+0x398>)
 8005744:	4293      	cmp	r3, r2
 8005746:	d036      	beq.n	80057b6 <DMA_SetConfig+0x32e>
 8005748:	68fb      	ldr	r3, [r7, #12]
 800574a:	681b      	ldr	r3, [r3, #0]
 800574c:	4a35      	ldr	r2, [pc, #212]	@ (8005824 <DMA_SetConfig+0x39c>)
 800574e:	4293      	cmp	r3, r2
 8005750:	d031      	beq.n	80057b6 <DMA_SetConfig+0x32e>
 8005752:	68fb      	ldr	r3, [r7, #12]
 8005754:	681b      	ldr	r3, [r3, #0]
 8005756:	4a34      	ldr	r2, [pc, #208]	@ (8005828 <DMA_SetConfig+0x3a0>)
 8005758:	4293      	cmp	r3, r2
 800575a:	d02c      	beq.n	80057b6 <DMA_SetConfig+0x32e>
 800575c:	68fb      	ldr	r3, [r7, #12]
 800575e:	681b      	ldr	r3, [r3, #0]
 8005760:	4a32      	ldr	r2, [pc, #200]	@ (800582c <DMA_SetConfig+0x3a4>)
 8005762:	4293      	cmp	r3, r2
 8005764:	d027      	beq.n	80057b6 <DMA_SetConfig+0x32e>
 8005766:	68fb      	ldr	r3, [r7, #12]
 8005768:	681b      	ldr	r3, [r3, #0]
 800576a:	4a31      	ldr	r2, [pc, #196]	@ (8005830 <DMA_SetConfig+0x3a8>)
 800576c:	4293      	cmp	r3, r2
 800576e:	d022      	beq.n	80057b6 <DMA_SetConfig+0x32e>
 8005770:	68fb      	ldr	r3, [r7, #12]
 8005772:	681b      	ldr	r3, [r3, #0]
 8005774:	4a2f      	ldr	r2, [pc, #188]	@ (8005834 <DMA_SetConfig+0x3ac>)
 8005776:	4293      	cmp	r3, r2
 8005778:	d01d      	beq.n	80057b6 <DMA_SetConfig+0x32e>
 800577a:	68fb      	ldr	r3, [r7, #12]
 800577c:	681b      	ldr	r3, [r3, #0]
 800577e:	4a2e      	ldr	r2, [pc, #184]	@ (8005838 <DMA_SetConfig+0x3b0>)
 8005780:	4293      	cmp	r3, r2
 8005782:	d018      	beq.n	80057b6 <DMA_SetConfig+0x32e>
 8005784:	68fb      	ldr	r3, [r7, #12]
 8005786:	681b      	ldr	r3, [r3, #0]
 8005788:	4a2c      	ldr	r2, [pc, #176]	@ (800583c <DMA_SetConfig+0x3b4>)
 800578a:	4293      	cmp	r3, r2
 800578c:	d013      	beq.n	80057b6 <DMA_SetConfig+0x32e>
 800578e:	68fb      	ldr	r3, [r7, #12]
 8005790:	681b      	ldr	r3, [r3, #0]
 8005792:	4a2b      	ldr	r2, [pc, #172]	@ (8005840 <DMA_SetConfig+0x3b8>)
 8005794:	4293      	cmp	r3, r2
 8005796:	d00e      	beq.n	80057b6 <DMA_SetConfig+0x32e>
 8005798:	68fb      	ldr	r3, [r7, #12]
 800579a:	681b      	ldr	r3, [r3, #0]
 800579c:	4a29      	ldr	r2, [pc, #164]	@ (8005844 <DMA_SetConfig+0x3bc>)
 800579e:	4293      	cmp	r3, r2
 80057a0:	d009      	beq.n	80057b6 <DMA_SetConfig+0x32e>
 80057a2:	68fb      	ldr	r3, [r7, #12]
 80057a4:	681b      	ldr	r3, [r3, #0]
 80057a6:	4a28      	ldr	r2, [pc, #160]	@ (8005848 <DMA_SetConfig+0x3c0>)
 80057a8:	4293      	cmp	r3, r2
 80057aa:	d004      	beq.n	80057b6 <DMA_SetConfig+0x32e>
 80057ac:	68fb      	ldr	r3, [r7, #12]
 80057ae:	681b      	ldr	r3, [r3, #0]
 80057b0:	4a26      	ldr	r2, [pc, #152]	@ (800584c <DMA_SetConfig+0x3c4>)
 80057b2:	4293      	cmp	r3, r2
 80057b4:	d101      	bne.n	80057ba <DMA_SetConfig+0x332>
 80057b6:	2301      	movs	r3, #1
 80057b8:	e000      	b.n	80057bc <DMA_SetConfig+0x334>
 80057ba:	2300      	movs	r3, #0
 80057bc:	2b00      	cmp	r3, #0
 80057be:	d020      	beq.n	8005802 <DMA_SetConfig+0x37a>
 80057c0:	68fb      	ldr	r3, [r7, #12]
 80057c2:	6ddb      	ldr	r3, [r3, #92]	@ 0x5c
 80057c4:	f003 031f 	and.w	r3, r3, #31
 80057c8:	2201      	movs	r2, #1
 80057ca:	409a      	lsls	r2, r3
 80057cc:	693b      	ldr	r3, [r7, #16]
 80057ce:	605a      	str	r2, [r3, #4]
 80057d0:	68fb      	ldr	r3, [r7, #12]
 80057d2:	681b      	ldr	r3, [r3, #0]
 80057d4:	683a      	ldr	r2, [r7, #0]
 80057d6:	605a      	str	r2, [r3, #4]
 80057d8:	68fb      	ldr	r3, [r7, #12]
 80057da:	689b      	ldr	r3, [r3, #8]
 80057dc:	2b40      	cmp	r3, #64	@ 0x40
 80057de:	d108      	bne.n	80057f2 <DMA_SetConfig+0x36a>
 80057e0:	68fb      	ldr	r3, [r7, #12]
 80057e2:	681b      	ldr	r3, [r3, #0]
 80057e4:	687a      	ldr	r2, [r7, #4]
 80057e6:	609a      	str	r2, [r3, #8]
 80057e8:	68fb      	ldr	r3, [r7, #12]
 80057ea:	681b      	ldr	r3, [r3, #0]
 80057ec:	68ba      	ldr	r2, [r7, #8]
 80057ee:	60da      	str	r2, [r3, #12]
 80057f0:	e007      	b.n	8005802 <DMA_SetConfig+0x37a>
 80057f2:	68fb      	ldr	r3, [r7, #12]
 80057f4:	681b      	ldr	r3, [r3, #0]
 80057f6:	68ba      	ldr	r2, [r7, #8]
 80057f8:	609a      	str	r2, [r3, #8]
 80057fa:	68fb      	ldr	r3, [r7, #12]
 80057fc:	681b      	ldr	r3, [r3, #0]
 80057fe:	687a      	ldr	r2, [r7, #4]
 8005800:	60da      	str	r2, [r3, #12]
 8005802:	bf00      	nop
 8005804:	371c      	adds	r7, #28
 8005806:	46bd      	mov	sp, r7
 8005808:	f85d 7b04 	ldr.w	r7, [sp], #4
 800580c:	4770      	bx	lr
 800580e:	bf00      	nop
 8005810:	48022c08 	.word	0x48022c08
 8005814:	48022c1c 	.word	0x48022c1c
 8005818:	48022c30 	.word	0x48022c30
 800581c:	48022c44 	.word	0x48022c44
 8005820:	48022c58 	.word	0x48022c58
 8005824:	48022c6c 	.word	0x48022c6c
 8005828:	48022c80 	.word	0x48022c80
 800582c:	48022c94 	.word	0x48022c94
 8005830:	58025408 	.word	0x58025408
 8005834:	5802541c 	.word	0x5802541c
 8005838:	58025430 	.word	0x58025430
 800583c:	58025444 	.word	0x58025444
 8005840:	58025458 	.word	0x58025458
 8005844:	5802546c 	.word	0x5802546c
 8005848:	58025480 	.word	0x58025480
 800584c:	58025494 	.word	0x58025494

08005850 <DMA_CalcBaseAndBitshift>:
 8005850:	b480      	push	{r7}
 8005852:	b085      	sub	sp, #20
 8005854:	af00      	add	r7, sp, #0
 8005856:	6078      	str	r0, [r7, #4]
 8005858:	687b      	ldr	r3, [r7, #4]
 800585a:	681b      	ldr	r3, [r3, #0]
 800585c:	4a42      	ldr	r2, [pc, #264]	@ (8005968 <DMA_CalcBaseAndBitshift+0x118>)
 800585e:	4293      	cmp	r3, r2
 8005860:	d04a      	beq.n	80058f8 <DMA_CalcBaseAndBitshift+0xa8>
 8005862:	687b      	ldr	r3, [r7, #4]
 8005864:	681b      	ldr	r3, [r3, #0]
 8005866:	4a41      	ldr	r2, [pc, #260]	@ (800596c <DMA_CalcBaseAndBitshift+0x11c>)
 8005868:	4293      	cmp	r3, r2
 800586a:	d045      	beq.n	80058f8 <DMA_CalcBaseAndBitshift+0xa8>
 800586c:	687b      	ldr	r3, [r7, #4]
 800586e:	681b      	ldr	r3, [r3, #0]
 8005870:	4a3f      	ldr	r2, [pc, #252]	@ (8005970 <DMA_CalcBaseAndBitshift+0x120>)
 8005872:	4293      	cmp	r3, r2
 8005874:	d040      	beq.n	80058f8 <DMA_CalcBaseAndBitshift+0xa8>
 8005876:	687b      	ldr	r3, [r7, #4]
 8005878:	681b      	ldr	r3, [r3, #0]
 800587a:	4a3e      	ldr	r2, [pc, #248]	@ (8005974 <DMA_CalcBaseAndBitshift+0x124>)
 800587c:	4293      	cmp	r3, r2
 800587e:	d03b      	beq.n	80058f8 <DMA_CalcBaseAndBitshift+0xa8>
 8005880:	687b      	ldr	r3, [r7, #4]
 8005882:	681b      	ldr	r3, [r3, #0]
 8005884:	4a3c      	ldr	r2, [pc, #240]	@ (8005978 <DMA_CalcBaseAndBitshift+0x128>)
 8005886:	4293      	cmp	r3, r2
 8005888:	d036      	beq.n	80058f8 <DMA_CalcBaseAndBitshift+0xa8>
 800588a:	687b      	ldr	r3, [r7, #4]
 800588c:	681b      	ldr	r3, [r3, #0]
 800588e:	4a3b      	ldr	r2, [pc, #236]	@ (800597c <DMA_CalcBaseAndBitshift+0x12c>)
 8005890:	4293      	cmp	r3, r2
 8005892:	d031      	beq.n	80058f8 <DMA_CalcBaseAndBitshift+0xa8>
 8005894:	687b      	ldr	r3, [r7, #4]
 8005896:	681b      	ldr	r3, [r3, #0]
 8005898:	4a39      	ldr	r2, [pc, #228]	@ (8005980 <DMA_CalcBaseAndBitshift+0x130>)
 800589a:	4293      	cmp	r3, r2
 800589c:	d02c      	beq.n	80058f8 <DMA_CalcBaseAndBitshift+0xa8>
 800589e:	687b      	ldr	r3, [r7, #4]
 80058a0:	681b      	ldr	r3, [r3, #0]
 80058a2:	4a38      	ldr	r2, [pc, #224]	@ (8005984 <DMA_CalcBaseAndBitshift+0x134>)
 80058a4:	4293      	cmp	r3, r2
 80058a6:	d027      	beq.n	80058f8 <DMA_CalcBaseAndBitshift+0xa8>
 80058a8:	687b      	ldr	r3, [r7, #4]
 80058aa:	681b      	ldr	r3, [r3, #0]
 80058ac:	4a36      	ldr	r2, [pc, #216]	@ (8005988 <DMA_CalcBaseAndBitshift+0x138>)
 80058ae:	4293      	cmp	r3, r2
 80058b0:	d022      	beq.n	80058f8 <DMA_CalcBaseAndBitshift+0xa8>
 80058b2:	687b      	ldr	r3, [r7, #4]
 80058b4:	681b      	ldr	r3, [r3, #0]
 80058b6:	4a35      	ldr	r2, [pc, #212]	@ (800598c <DMA_CalcBaseAndBitshift+0x13c>)
 80058b8:	4293      	cmp	r3, r2
 80058ba:	d01d      	beq.n	80058f8 <DMA_CalcBaseAndBitshift+0xa8>
 80058bc:	687b      	ldr	r3, [r7, #4]
 80058be:	681b      	ldr	r3, [r3, #0]
 80058c0:	4a33      	ldr	r2, [pc, #204]	@ (8005990 <DMA_CalcBaseAndBitshift+0x140>)
 80058c2:	4293      	cmp	r3, r2
 80058c4:	d018      	beq.n	80058f8 <DMA_CalcBaseAndBitshift+0xa8>
 80058c6:	687b      	ldr	r3, [r7, #4]
 80058c8:	681b      	ldr	r3, [r3, #0]
 80058ca:	4a32      	ldr	r2, [pc, #200]	@ (8005994 <DMA_CalcBaseAndBitshift+0x144>)
 80058cc:	4293      	cmp	r3, r2
 80058ce:	d013      	beq.n	80058f8 <DMA_CalcBaseAndBitshift+0xa8>
 80058d0:	687b      	ldr	r3, [r7, #4]
 80058d2:	681b      	ldr	r3, [r3, #0]
 80058d4:	4a30      	ldr	r2, [pc, #192]	@ (8005998 <DMA_CalcBaseAndBitshift+0x148>)
 80058d6:	4293      	cmp	r3, r2
 80058d8:	d00e      	beq.n	80058f8 <DMA_CalcBaseAndBitshift+0xa8>
 80058da:	687b      	ldr	r3, [r7, #4]
 80058dc:	681b      	ldr	r3, [r3, #0]
 80058de:	4a2f      	ldr	r2, [pc, #188]	@ (800599c <DMA_CalcBaseAndBitshift+0x14c>)
 80058e0:	4293      	cmp	r3, r2
 80058e2:	d009      	beq.n	80058f8 <DMA_CalcBaseAndBitshift+0xa8>
 80058e4:	687b      	ldr	r3, [r7, #4]
 80058e6:	681b      	ldr	r3, [r3, #0]
 80058e8:	4a2d      	ldr	r2, [pc, #180]	@ (80059a0 <DMA_CalcBaseAndBitshift+0x150>)
 80058ea:	4293      	cmp	r3, r2
 80058ec:	d004      	beq.n	80058f8 <DMA_CalcBaseAndBitshift+0xa8>
 80058ee:	687b      	ldr	r3, [r7, #4]
 80058f0:	681b      	ldr	r3, [r3, #0]
 80058f2:	4a2c      	ldr	r2, [pc, #176]	@ (80059a4 <DMA_CalcBaseAndBitshift+0x154>)
 80058f4:	4293      	cmp	r3, r2
 80058f6:	d101      	bne.n	80058fc <DMA_CalcBaseAndBitshift+0xac>
 80058f8:	2301      	movs	r3, #1
 80058fa:	e000      	b.n	80058fe <DMA_CalcBaseAndBitshift+0xae>
 80058fc:	2300      	movs	r3, #0
 80058fe:	2b00      	cmp	r3, #0
 8005900:	d024      	beq.n	800594c <DMA_CalcBaseAndBitshift+0xfc>
 8005902:	687b      	ldr	r3, [r7, #4]
 8005904:	681b      	ldr	r3, [r3, #0]
 8005906:	b2db      	uxtb	r3, r3
 8005908:	3b10      	subs	r3, #16
 800590a:	4a27      	ldr	r2, [pc, #156]	@ (80059a8 <DMA_CalcBaseAndBitshift+0x158>)
 800590c:	fba2 2303 	umull	r2, r3, r2, r3
 8005910:	091b      	lsrs	r3, r3, #4
 8005912:	60fb      	str	r3, [r7, #12]
 8005914:	68fb      	ldr	r3, [r7, #12]
 8005916:	f003 0307 	and.w	r3, r3, #7
 800591a:	4a24      	ldr	r2, [pc, #144]	@ (80059ac <DMA_CalcBaseAndBitshift+0x15c>)
 800591c:	5cd3      	ldrb	r3, [r2, r3]
 800591e:	461a      	mov	r2, r3
 8005920:	687b      	ldr	r3, [r7, #4]
 8005922:	65da      	str	r2, [r3, #92]	@ 0x5c
 8005924:	68fb      	ldr	r3, [r7, #12]
 8005926:	2b03      	cmp	r3, #3
 8005928:	d908      	bls.n	800593c <DMA_CalcBaseAndBitshift+0xec>
 800592a:	687b      	ldr	r3, [r7, #4]
 800592c:	681b      	ldr	r3, [r3, #0]
 800592e:	461a      	mov	r2, r3
 8005930:	4b1f      	ldr	r3, [pc, #124]	@ (80059b0 <DMA_CalcBaseAndBitshift+0x160>)
 8005932:	4013      	ands	r3, r2
 8005934:	1d1a      	adds	r2, r3, #4
 8005936:	687b      	ldr	r3, [r7, #4]
 8005938:	659a      	str	r2, [r3, #88]	@ 0x58
 800593a:	e00d      	b.n	8005958 <DMA_CalcBaseAndBitshift+0x108>
 800593c:	687b      	ldr	r3, [r7, #4]
 800593e:	681b      	ldr	r3, [r3, #0]
 8005940:	461a      	mov	r2, r3
 8005942:	4b1b      	ldr	r3, [pc, #108]	@ (80059b0 <DMA_CalcBaseAndBitshift+0x160>)
 8005944:	4013      	ands	r3, r2
 8005946:	687a      	ldr	r2, [r7, #4]
 8005948:	6593      	str	r3, [r2, #88]	@ 0x58
 800594a:	e005      	b.n	8005958 <DMA_CalcBaseAndBitshift+0x108>
 800594c:	687b      	ldr	r3, [r7, #4]
 800594e:	681b      	ldr	r3, [r3, #0]
 8005950:	f023 02ff 	bic.w	r2, r3, #255	@ 0xff
 8005954:	687b      	ldr	r3, [r7, #4]
 8005956:	659a      	str	r2, [r3, #88]	@ 0x58
 8005958:	687b      	ldr	r3, [r7, #4]
 800595a:	6d9b      	ldr	r3, [r3, #88]	@ 0x58
 800595c:	4618      	mov	r0, r3
 800595e:	3714      	adds	r7, #20
 8005960:	46bd      	mov	sp, r7
 8005962:	f85d 7b04 	ldr.w	r7, [sp], #4
 8005966:	4770      	bx	lr
 8005968:	40020010 	.word	0x40020010
 800596c:	40020028 	.word	0x40020028
 8005970:	40020040 	.word	0x40020040
 8005974:	40020058 	.word	0x40020058
 8005978:	40020070 	.word	0x40020070
 800597c:	40020088 	.word	0x40020088
 8005980:	400200a0 	.word	0x400200a0
 8005984:	400200b8 	.word	0x400200b8
 8005988:	40020410 	.word	0x40020410
 800598c:	40020428 	.word	0x40020428
 8005990:	40020440 	.word	0x40020440
 8005994:	40020458 	.word	0x40020458
 8005998:	40020470 	.word	0x40020470
 800599c:	40020488 	.word	0x40020488
 80059a0:	400204a0 	.word	0x400204a0
 80059a4:	400204b8 	.word	0x400204b8
 80059a8:	aaaaaaab 	.word	0xaaaaaaab
 80059ac:	0800b6f0 	.word	0x0800b6f0
 80059b0:	fffffc00 	.word	0xfffffc00

080059b4 <DMA_CheckFifoParam>:
 80059b4:	b480      	push	{r7}
 80059b6:	b085      	sub	sp, #20
 80059b8:	af00      	add	r7, sp, #0
 80059ba:	6078      	str	r0, [r7, #4]
 80059bc:	2300      	movs	r3, #0
 80059be:	73fb      	strb	r3, [r7, #15]
 80059c0:	687b      	ldr	r3, [r7, #4]
 80059c2:	699b      	ldr	r3, [r3, #24]
 80059c4:	2b00      	cmp	r3, #0
 80059c6:	d120      	bne.n	8005a0a <DMA_CheckFifoParam+0x56>
 80059c8:	687b      	ldr	r3, [r7, #4]
 80059ca:	6a9b      	ldr	r3, [r3, #40]	@ 0x28
 80059cc:	2b03      	cmp	r3, #3
 80059ce:	d858      	bhi.n	8005a82 <DMA_CheckFifoParam+0xce>
 80059d0:	a201      	add	r2, pc, #4	@ (adr r2, 80059d8 <DMA_CheckFifoParam+0x24>)
 80059d2:	f852 f023 	ldr.w	pc, [r2, r3, lsl #2]
 80059d6:	bf00      	nop
 80059d8:	080059e9 	.word	0x080059e9
 80059dc:	080059fb 	.word	0x080059fb
 80059e0:	080059e9 	.word	0x080059e9
 80059e4:	08005a83 	.word	0x08005a83
 80059e8:	687b      	ldr	r3, [r7, #4]
 80059ea:	6adb      	ldr	r3, [r3, #44]	@ 0x2c
 80059ec:	f003 7380 	and.w	r3, r3, #16777216	@ 0x1000000
 80059f0:	2b00      	cmp	r3, #0
 80059f2:	d048      	beq.n	8005a86 <DMA_CheckFifoParam+0xd2>
 80059f4:	2301      	movs	r3, #1
 80059f6:	73fb      	strb	r3, [r7, #15]
 80059f8:	e045      	b.n	8005a86 <DMA_CheckFifoParam+0xd2>
 80059fa:	687b      	ldr	r3, [r7, #4]
 80059fc:	6adb      	ldr	r3, [r3, #44]	@ 0x2c
 80059fe:	f1b3 7fc0 	cmp.w	r3, #25165824	@ 0x1800000
 8005a02:	d142      	bne.n	8005a8a <DMA_CheckFifoParam+0xd6>
 8005a04:	2301      	movs	r3, #1
 8005a06:	73fb      	strb	r3, [r7, #15]
 8005a08:	e03f      	b.n	8005a8a <DMA_CheckFifoParam+0xd6>
 8005a0a:	687b      	ldr	r3, [r7, #4]
 8005a0c:	699b      	ldr	r3, [r3, #24]
 8005a0e:	f5b3 5f00 	cmp.w	r3, #8192	@ 0x2000
 8005a12:	d123      	bne.n	8005a5c <DMA_CheckFifoParam+0xa8>
 8005a14:	687b      	ldr	r3, [r7, #4]
 8005a16:	6a9b      	ldr	r3, [r3, #40]	@ 0x28
 8005a18:	2b03      	cmp	r3, #3
 8005a1a:	d838      	bhi.n	8005a8e <DMA_CheckFifoParam+0xda>
 8005a1c:	a201      	add	r2, pc, #4	@ (adr r2, 8005a24 <DMA_CheckFifoParam+0x70>)
 8005a1e:	f852 f023 	ldr.w	pc, [r2, r3, lsl #2]
 8005a22:	bf00      	nop
 8005a24:	08005a35 	.word	0x08005a35
 8005a28:	08005a3b 	.word	0x08005a3b
 8005a2c:	08005a35 	.word	0x08005a35
 8005a30:	08005a4d 	.word	0x08005a4d
 8005a34:	2301      	movs	r3, #1
 8005a36:	73fb      	strb	r3, [r7, #15]
 8005a38:	e030      	b.n	8005a9c <DMA_CheckFifoParam+0xe8>
 8005a3a:	687b      	ldr	r3, [r7, #4]
 8005a3c:	6adb      	ldr	r3, [r3, #44]	@ 0x2c
 8005a3e:	f003 7380 	and.w	r3, r3, #16777216	@ 0x1000000
 8005a42:	2b00      	cmp	r3, #0
 8005a44:	d025      	beq.n	8005a92 <DMA_CheckFifoParam+0xde>
 8005a46:	2301      	movs	r3, #1
 8005a48:	73fb      	strb	r3, [r7, #15]
 8005a4a:	e022      	b.n	8005a92 <DMA_CheckFifoParam+0xde>
 8005a4c:	687b      	ldr	r3, [r7, #4]
 8005a4e:	6adb      	ldr	r3, [r3, #44]	@ 0x2c
 8005a50:	f1b3 7fc0 	cmp.w	r3, #25165824	@ 0x1800000
 8005a54:	d11f      	bne.n	8005a96 <DMA_CheckFifoParam+0xe2>
 8005a56:	2301      	movs	r3, #1
 8005a58:	73fb      	strb	r3, [r7, #15]
 8005a5a:	e01c      	b.n	8005a96 <DMA_CheckFifoParam+0xe2>
 8005a5c:	687b      	ldr	r3, [r7, #4]
 8005a5e:	6a9b      	ldr	r3, [r3, #40]	@ 0x28
 8005a60:	2b02      	cmp	r3, #2
 8005a62:	d902      	bls.n	8005a6a <DMA_CheckFifoParam+0xb6>
 8005a64:	2b03      	cmp	r3, #3
 8005a66:	d003      	beq.n	8005a70 <DMA_CheckFifoParam+0xbc>
 8005a68:	e018      	b.n	8005a9c <DMA_CheckFifoParam+0xe8>
 8005a6a:	2301      	movs	r3, #1
 8005a6c:	73fb      	strb	r3, [r7, #15]
 8005a6e:	e015      	b.n	8005a9c <DMA_CheckFifoParam+0xe8>
 8005a70:	687b      	ldr	r3, [r7, #4]
 8005a72:	6adb      	ldr	r3, [r3, #44]	@ 0x2c
 8005a74:	f003 7380 	and.w	r3, r3, #16777216	@ 0x1000000
 8005a78:	2b00      	cmp	r3, #0
 8005a7a:	d00e      	beq.n	8005a9a <DMA_CheckFifoParam+0xe6>
 8005a7c:	2301      	movs	r3, #1
 8005a7e:	73fb      	strb	r3, [r7, #15]
 8005a80:	e00b      	b.n	8005a9a <DMA_CheckFifoParam+0xe6>
 8005a82:	bf00      	nop
 8005a84:	e00a      	b.n	8005a9c <DMA_CheckFifoParam+0xe8>
 8005a86:	bf00      	nop
 8005a88:	e008      	b.n	8005a9c <DMA_CheckFifoParam+0xe8>
 8005a8a:	bf00      	nop
 8005a8c:	e006      	b.n	8005a9c <DMA_CheckFifoParam+0xe8>
 8005a8e:	bf00      	nop
 8005a90:	e004      	b.n	8005a9c <DMA_CheckFifoParam+0xe8>
 8005a92:	bf00      	nop
 8005a94:	e002      	b.n	8005a9c <DMA_CheckFifoParam+0xe8>
 8005a96:	bf00      	nop
 8005a98:	e000      	b.n	8005a9c <DMA_CheckFifoParam+0xe8>
 8005a9a:	bf00      	nop
 8005a9c:	7bfb      	ldrb	r3, [r7, #15]
 8005a9e:	4618      	mov	r0, r3
 8005aa0:	3714      	adds	r7, #20
 8005aa2:	46bd      	mov	sp, r7
 8005aa4:	f85d 7b04 	ldr.w	r7, [sp], #4
 8005aa8:	4770      	bx	lr
 8005aaa:	bf00      	nop

08005aac <DMA_CalcDMAMUXChannelBaseAndMask>:
 8005aac:	b480      	push	{r7}
 8005aae:	b085      	sub	sp, #20
 8005ab0:	af00      	add	r7, sp, #0
 8005ab2:	6078      	str	r0, [r7, #4]
 8005ab4:	687b      	ldr	r3, [r7, #4]
 8005ab6:	681b      	ldr	r3, [r3, #0]
 8005ab8:	60bb      	str	r3, [r7, #8]
 8005aba:	687b      	ldr	r3, [r7, #4]
 8005abc:	681b      	ldr	r3, [r3, #0]
 8005abe:	4a38      	ldr	r2, [pc, #224]	@ (8005ba0 <DMA_CalcDMAMUXChannelBaseAndMask+0xf4>)
 8005ac0:	4293      	cmp	r3, r2
 8005ac2:	d022      	beq.n	8005b0a <DMA_CalcDMAMUXChannelBaseAndMask+0x5e>
 8005ac4:	687b      	ldr	r3, [r7, #4]
 8005ac6:	681b      	ldr	r3, [r3, #0]
 8005ac8:	4a36      	ldr	r2, [pc, #216]	@ (8005ba4 <DMA_CalcDMAMUXChannelBaseAndMask+0xf8>)
 8005aca:	4293      	cmp	r3, r2
 8005acc:	d01d      	beq.n	8005b0a <DMA_CalcDMAMUXChannelBaseAndMask+0x5e>
 8005ace:	687b      	ldr	r3, [r7, #4]
 8005ad0:	681b      	ldr	r3, [r3, #0]
 8005ad2:	4a35      	ldr	r2, [pc, #212]	@ (8005ba8 <DMA_CalcDMAMUXChannelBaseAndMask+0xfc>)
 8005ad4:	4293      	cmp	r3, r2
 8005ad6:	d018      	beq.n	8005b0a <DMA_CalcDMAMUXChannelBaseAndMask+0x5e>
 8005ad8:	687b      	ldr	r3, [r7, #4]
 8005ada:	681b      	ldr	r3, [r3, #0]
 8005adc:	4a33      	ldr	r2, [pc, #204]	@ (8005bac <DMA_CalcDMAMUXChannelBaseAndMask+0x100>)
 8005ade:	4293      	cmp	r3, r2
 8005ae0:	d013      	beq.n	8005b0a <DMA_CalcDMAMUXChannelBaseAndMask+0x5e>
 8005ae2:	687b      	ldr	r3, [r7, #4]
 8005ae4:	681b      	ldr	r3, [r3, #0]
 8005ae6:	4a32      	ldr	r2, [pc, #200]	@ (8005bb0 <DMA_CalcDMAMUXChannelBaseAndMask+0x104>)
 8005ae8:	4293      	cmp	r3, r2
 8005aea:	d00e      	beq.n	8005b0a <DMA_CalcDMAMUXChannelBaseAndMask+0x5e>
 8005aec:	687b      	ldr	r3, [r7, #4]
 8005aee:	681b      	ldr	r3, [r3, #0]
 8005af0:	4a30      	ldr	r2, [pc, #192]	@ (8005bb4 <DMA_CalcDMAMUXChannelBaseAndMask+0x108>)
 8005af2:	4293      	cmp	r3, r2
 8005af4:	d009      	beq.n	8005b0a <DMA_CalcDMAMUXChannelBaseAndMask+0x5e>
 8005af6:	687b      	ldr	r3, [r7, #4]
 8005af8:	681b      	ldr	r3, [r3, #0]
 8005afa:	4a2f      	ldr	r2, [pc, #188]	@ (8005bb8 <DMA_CalcDMAMUXChannelBaseAndMask+0x10c>)
 8005afc:	4293      	cmp	r3, r2
 8005afe:	d004      	beq.n	8005b0a <DMA_CalcDMAMUXChannelBaseAndMask+0x5e>
 8005b00:	687b      	ldr	r3, [r7, #4]
 8005b02:	681b      	ldr	r3, [r3, #0]
 8005b04:	4a2d      	ldr	r2, [pc, #180]	@ (8005bbc <DMA_CalcDMAMUXChannelBaseAndMask+0x110>)
 8005b06:	4293      	cmp	r3, r2
 8005b08:	d101      	bne.n	8005b0e <DMA_CalcDMAMUXChannelBaseAndMask+0x62>
 8005b0a:	2301      	movs	r3, #1
 8005b0c:	e000      	b.n	8005b10 <DMA_CalcDMAMUXChannelBaseAndMask+0x64>
 8005b0e:	2300      	movs	r3, #0
 8005b10:	2b00      	cmp	r3, #0
 8005b12:	d01a      	beq.n	8005b4a <DMA_CalcDMAMUXChannelBaseAndMask+0x9e>
 8005b14:	687b      	ldr	r3, [r7, #4]
 8005b16:	681b      	ldr	r3, [r3, #0]
 8005b18:	b2db      	uxtb	r3, r3
 8005b1a:	3b08      	subs	r3, #8
 8005b1c:	4a28      	ldr	r2, [pc, #160]	@ (8005bc0 <DMA_CalcDMAMUXChannelBaseAndMask+0x114>)
 8005b1e:	fba2 2303 	umull	r2, r3, r2, r3
 8005b22:	091b      	lsrs	r3, r3, #4
 8005b24:	60fb      	str	r3, [r7, #12]
 8005b26:	68fa      	ldr	r2, [r7, #12]
 8005b28:	4b26      	ldr	r3, [pc, #152]	@ (8005bc4 <DMA_CalcDMAMUXChannelBaseAndMask+0x118>)
 8005b2a:	4413      	add	r3, r2
 8005b2c:	009b      	lsls	r3, r3, #2
 8005b2e:	461a      	mov	r2, r3
 8005b30:	687b      	ldr	r3, [r7, #4]
 8005b32:	661a      	str	r2, [r3, #96]	@ 0x60
 8005b34:	687b      	ldr	r3, [r7, #4]
 8005b36:	4a24      	ldr	r2, [pc, #144]	@ (8005bc8 <DMA_CalcDMAMUXChannelBaseAndMask+0x11c>)
 8005b38:	665a      	str	r2, [r3, #100]	@ 0x64
 8005b3a:	68fb      	ldr	r3, [r7, #12]
 8005b3c:	f003 031f 	and.w	r3, r3, #31
 8005b40:	2201      	movs	r2, #1
 8005b42:	409a      	lsls	r2, r3
 8005b44:	687b      	ldr	r3, [r7, #4]
 8005b46:	669a      	str	r2, [r3, #104]	@ 0x68
 8005b48:	e024      	b.n	8005b94 <DMA_CalcDMAMUXChannelBaseAndMask+0xe8>
 8005b4a:	687b      	ldr	r3, [r7, #4]
 8005b4c:	681b      	ldr	r3, [r3, #0]
 8005b4e:	b2db      	uxtb	r3, r3
 8005b50:	3b10      	subs	r3, #16
 8005b52:	4a1e      	ldr	r2, [pc, #120]	@ (8005bcc <DMA_CalcDMAMUXChannelBaseAndMask+0x120>)
 8005b54:	fba2 2303 	umull	r2, r3, r2, r3
 8005b58:	091b      	lsrs	r3, r3, #4
 8005b5a:	60fb      	str	r3, [r7, #12]
 8005b5c:	68bb      	ldr	r3, [r7, #8]
 8005b5e:	4a1c      	ldr	r2, [pc, #112]	@ (8005bd0 <DMA_CalcDMAMUXChannelBaseAndMask+0x124>)
 8005b60:	4293      	cmp	r3, r2
 8005b62:	d806      	bhi.n	8005b72 <DMA_CalcDMAMUXChannelBaseAndMask+0xc6>
 8005b64:	68bb      	ldr	r3, [r7, #8]
 8005b66:	4a1b      	ldr	r2, [pc, #108]	@ (8005bd4 <DMA_CalcDMAMUXChannelBaseAndMask+0x128>)
 8005b68:	4293      	cmp	r3, r2
 8005b6a:	d902      	bls.n	8005b72 <DMA_CalcDMAMUXChannelBaseAndMask+0xc6>
 8005b6c:	68fb      	ldr	r3, [r7, #12]
 8005b6e:	3308      	adds	r3, #8
 8005b70:	60fb      	str	r3, [r7, #12]
 8005b72:	68fa      	ldr	r2, [r7, #12]
 8005b74:	4b18      	ldr	r3, [pc, #96]	@ (8005bd8 <DMA_CalcDMAMUXChannelBaseAndMask+0x12c>)
 8005b76:	4413      	add	r3, r2
 8005b78:	009b      	lsls	r3, r3, #2
 8005b7a:	461a      	mov	r2, r3
 8005b7c:	687b      	ldr	r3, [r7, #4]
 8005b7e:	661a      	str	r2, [r3, #96]	@ 0x60
 8005b80:	687b      	ldr	r3, [r7, #4]
 8005b82:	4a16      	ldr	r2, [pc, #88]	@ (8005bdc <DMA_CalcDMAMUXChannelBaseAndMask+0x130>)
 8005b84:	665a      	str	r2, [r3, #100]	@ 0x64
 8005b86:	68fb      	ldr	r3, [r7, #12]
 8005b88:	f003 031f 	and.w	r3, r3, #31
 8005b8c:	2201      	movs	r2, #1
 8005b8e:	409a      	lsls	r2, r3
 8005b90:	687b      	ldr	r3, [r7, #4]
 8005b92:	669a      	str	r2, [r3, #104]	@ 0x68
 8005b94:	bf00      	nop
 8005b96:	3714      	adds	r7, #20
 8005b98:	46bd      	mov	sp, r7
 8005b9a:	f85d 7b04 	ldr.w	r7, [sp], #4
 8005b9e:	4770      	bx	lr
 8005ba0:	58025408 	.word	0x58025408
 8005ba4:	5802541c 	.word	0x5802541c
 8005ba8:	58025430 	.word	0x58025430
 8005bac:	58025444 	.word	0x58025444
 8005bb0:	58025458 	.word	0x58025458
 8005bb4:	5802546c 	.word	0x5802546c
 8005bb8:	58025480 	.word	0x58025480
 8005bbc:	58025494 	.word	0x58025494
 8005bc0:	cccccccd 	.word	0xcccccccd
 8005bc4:	16009600 	.word	0x16009600
 8005bc8:	58025880 	.word	0x58025880
 8005bcc:	aaaaaaab 	.word	0xaaaaaaab
 8005bd0:	400204b8 	.word	0x400204b8
 8005bd4:	4002040f 	.word	0x4002040f
 8005bd8:	10008200 	.word	0x10008200
 8005bdc:	40020880 	.word	0x40020880

08005be0 <DMA_CalcDMAMUXRequestGenBaseAndMask>:
 8005be0:	b480      	push	{r7}
 8005be2:	b085      	sub	sp, #20
 8005be4:	af00      	add	r7, sp, #0
 8005be6:	6078      	str	r0, [r7, #4]
 8005be8:	687b      	ldr	r3, [r7, #4]
 8005bea:	685b      	ldr	r3, [r3, #4]
 8005bec:	b2db      	uxtb	r3, r3
 8005bee:	60fb      	str	r3, [r7, #12]
 8005bf0:	68fb      	ldr	r3, [r7, #12]
 8005bf2:	2b00      	cmp	r3, #0
 8005bf4:	d04a      	beq.n	8005c8c <DMA_CalcDMAMUXRequestGenBaseAndMask+0xac>
 8005bf6:	68fb      	ldr	r3, [r7, #12]
 8005bf8:	2b08      	cmp	r3, #8
 8005bfa:	d847      	bhi.n	8005c8c <DMA_CalcDMAMUXRequestGenBaseAndMask+0xac>
 8005bfc:	687b      	ldr	r3, [r7, #4]
 8005bfe:	681b      	ldr	r3, [r3, #0]
 8005c00:	4a25      	ldr	r2, [pc, #148]	@ (8005c98 <DMA_CalcDMAMUXRequestGenBaseAndMask+0xb8>)
 8005c02:	4293      	cmp	r3, r2
 8005c04:	d022      	beq.n	8005c4c <DMA_CalcDMAMUXRequestGenBaseAndMask+0x6c>
 8005c06:	687b      	ldr	r3, [r7, #4]
 8005c08:	681b      	ldr	r3, [r3, #0]
 8005c0a:	4a24      	ldr	r2, [pc, #144]	@ (8005c9c <DMA_CalcDMAMUXRequestGenBaseAndMask+0xbc>)
 8005c0c:	4293      	cmp	r3, r2
 8005c0e:	d01d      	beq.n	8005c4c <DMA_CalcDMAMUXRequestGenBaseAndMask+0x6c>
 8005c10:	687b      	ldr	r3, [r7, #4]
 8005c12:	681b      	ldr	r3, [r3, #0]
 8005c14:	4a22      	ldr	r2, [pc, #136]	@ (8005ca0 <DMA_CalcDMAMUXRequestGenBaseAndMask+0xc0>)
 8005c16:	4293      	cmp	r3, r2
 8005c18:	d018      	beq.n	8005c4c <DMA_CalcDMAMUXRequestGenBaseAndMask+0x6c>
 8005c1a:	687b      	ldr	r3, [r7, #4]
 8005c1c:	681b      	ldr	r3, [r3, #0]
 8005c1e:	4a21      	ldr	r2, [pc, #132]	@ (8005ca4 <DMA_CalcDMAMUXRequestGenBaseAndMask+0xc4>)
 8005c20:	4293      	cmp	r3, r2
 8005c22:	d013      	beq.n	8005c4c <DMA_CalcDMAMUXRequestGenBaseAndMask+0x6c>
 8005c24:	687b      	ldr	r3, [r7, #4]
 8005c26:	681b      	ldr	r3, [r3, #0]
 8005c28:	4a1f      	ldr	r2, [pc, #124]	@ (8005ca8 <DMA_CalcDMAMUXRequestGenBaseAndMask+0xc8>)
 8005c2a:	4293      	cmp	r3, r2
 8005c2c:	d00e      	beq.n	8005c4c <DMA_CalcDMAMUXRequestGenBaseAndMask+0x6c>
 8005c2e:	687b      	ldr	r3, [r7, #4]
 8005c30:	681b      	ldr	r3, [r3, #0]
 8005c32:	4a1e      	ldr	r2, [pc, #120]	@ (8005cac <DMA_CalcDMAMUXRequestGenBaseAndMask+0xcc>)
 8005c34:	4293      	cmp	r3, r2
 8005c36:	d009      	beq.n	8005c4c <DMA_CalcDMAMUXRequestGenBaseAndMask+0x6c>
 8005c38:	687b      	ldr	r3, [r7, #4]
 8005c3a:	681b      	ldr	r3, [r3, #0]
 8005c3c:	4a1c      	ldr	r2, [pc, #112]	@ (8005cb0 <DMA_CalcDMAMUXRequestGenBaseAndMask+0xd0>)
 8005c3e:	4293      	cmp	r3, r2
 8005c40:	d004      	beq.n	8005c4c <DMA_CalcDMAMUXRequestGenBaseAndMask+0x6c>
 8005c42:	687b      	ldr	r3, [r7, #4]
 8005c44:	681b      	ldr	r3, [r3, #0]
 8005c46:	4a1b      	ldr	r2, [pc, #108]	@ (8005cb4 <DMA_CalcDMAMUXRequestGenBaseAndMask+0xd4>)
 8005c48:	4293      	cmp	r3, r2
 8005c4a:	d101      	bne.n	8005c50 <DMA_CalcDMAMUXRequestGenBaseAndMask+0x70>
 8005c4c:	2301      	movs	r3, #1
 8005c4e:	e000      	b.n	8005c52 <DMA_CalcDMAMUXRequestGenBaseAndMask+0x72>
 8005c50:	2300      	movs	r3, #0
 8005c52:	2b00      	cmp	r3, #0
 8005c54:	d00a      	beq.n	8005c6c <DMA_CalcDMAMUXRequestGenBaseAndMask+0x8c>
 8005c56:	68fa      	ldr	r2, [r7, #12]
 8005c58:	4b17      	ldr	r3, [pc, #92]	@ (8005cb8 <DMA_CalcDMAMUXRequestGenBaseAndMask+0xd8>)
 8005c5a:	4413      	add	r3, r2
 8005c5c:	009b      	lsls	r3, r3, #2
 8005c5e:	461a      	mov	r2, r3
 8005c60:	687b      	ldr	r3, [r7, #4]
 8005c62:	66da      	str	r2, [r3, #108]	@ 0x6c
 8005c64:	687b      	ldr	r3, [r7, #4]
 8005c66:	4a15      	ldr	r2, [pc, #84]	@ (8005cbc <DMA_CalcDMAMUXRequestGenBaseAndMask+0xdc>)
 8005c68:	671a      	str	r2, [r3, #112]	@ 0x70
 8005c6a:	e009      	b.n	8005c80 <DMA_CalcDMAMUXRequestGenBaseAndMask+0xa0>
 8005c6c:	68fa      	ldr	r2, [r7, #12]
 8005c6e:	4b14      	ldr	r3, [pc, #80]	@ (8005cc0 <DMA_CalcDMAMUXRequestGenBaseAndMask+0xe0>)
 8005c70:	4413      	add	r3, r2
 8005c72:	009b      	lsls	r3, r3, #2
 8005c74:	461a      	mov	r2, r3
 8005c76:	687b      	ldr	r3, [r7, #4]
 8005c78:	66da      	str	r2, [r3, #108]	@ 0x6c
 8005c7a:	687b      	ldr	r3, [r7, #4]
 8005c7c:	4a11      	ldr	r2, [pc, #68]	@ (8005cc4 <DMA_CalcDMAMUXRequestGenBaseAndMask+0xe4>)
 8005c7e:	671a      	str	r2, [r3, #112]	@ 0x70
 8005c80:	68fb      	ldr	r3, [r7, #12]
 8005c82:	3b01      	subs	r3, #1
 8005c84:	2201      	movs	r2, #1
 8005c86:	409a      	lsls	r2, r3
 8005c88:	687b      	ldr	r3, [r7, #4]
 8005c8a:	675a      	str	r2, [r3, #116]	@ 0x74
 8005c8c:	bf00      	nop
 8005c8e:	3714      	adds	r7, #20
 8005c90:	46bd      	mov	sp, r7
 8005c92:	f85d 7b04 	ldr.w	r7, [sp], #4
 8005c96:	4770      	bx	lr
 8005c98:	58025408 	.word	0x58025408
 8005c9c:	5802541c 	.word	0x5802541c
 8005ca0:	58025430 	.word	0x58025430
 8005ca4:	58025444 	.word	0x58025444
 8005ca8:	58025458 	.word	0x58025458
 8005cac:	5802546c 	.word	0x5802546c
 8005cb0:	58025480 	.word	0x58025480
 8005cb4:	58025494 	.word	0x58025494
 8005cb8:	1600963f 	.word	0x1600963f
 8005cbc:	58025940 	.word	0x58025940
 8005cc0:	1000823f 	.word	0x1000823f
 8005cc4:	40020940 	.word	0x40020940

08005cc8 <HAL_GPIO_Init>:
 8005cc8:	b480      	push	{r7}
 8005cca:	b089      	sub	sp, #36	@ 0x24
 8005ccc:	af00      	add	r7, sp, #0
 8005cce:	6078      	str	r0, [r7, #4]
 8005cd0:	6039      	str	r1, [r7, #0]
 8005cd2:	2300      	movs	r3, #0
 8005cd4:	61fb      	str	r3, [r7, #28]
 8005cd6:	4b89      	ldr	r3, [pc, #548]	@ (8005efc <HAL_GPIO_Init+0x234>)
 8005cd8:	617b      	str	r3, [r7, #20]
 8005cda:	e194      	b.n	8006006 <HAL_GPIO_Init+0x33e>
 8005cdc:	683b      	ldr	r3, [r7, #0]
 8005cde:	681a      	ldr	r2, [r3, #0]
 8005ce0:	2101      	movs	r1, #1
 8005ce2:	69fb      	ldr	r3, [r7, #28]
 8005ce4:	fa01 f303 	lsl.w	r3, r1, r3
 8005ce8:	4013      	ands	r3, r2
 8005cea:	613b      	str	r3, [r7, #16]
 8005cec:	693b      	ldr	r3, [r7, #16]
 8005cee:	2b00      	cmp	r3, #0
 8005cf0:	f000 8186 	beq.w	8006000 <HAL_GPIO_Init+0x338>
 8005cf4:	683b      	ldr	r3, [r7, #0]
 8005cf6:	685b      	ldr	r3, [r3, #4]
 8005cf8:	f003 0303 	and.w	r3, r3, #3
 8005cfc:	2b01      	cmp	r3, #1
 8005cfe:	d005      	beq.n	8005d0c <HAL_GPIO_Init+0x44>
 8005d00:	683b      	ldr	r3, [r7, #0]
 8005d02:	685b      	ldr	r3, [r3, #4]
 8005d04:	f003 0303 	and.w	r3, r3, #3
 8005d08:	2b02      	cmp	r3, #2
 8005d0a:	d130      	bne.n	8005d6e <HAL_GPIO_Init+0xa6>
 8005d0c:	687b      	ldr	r3, [r7, #4]
 8005d0e:	689b      	ldr	r3, [r3, #8]
 8005d10:	61bb      	str	r3, [r7, #24]
 8005d12:	69fb      	ldr	r3, [r7, #28]
 8005d14:	005b      	lsls	r3, r3, #1
 8005d16:	2203      	movs	r2, #3
 8005d18:	fa02 f303 	lsl.w	r3, r2, r3
 8005d1c:	43db      	mvns	r3, r3
 8005d1e:	69ba      	ldr	r2, [r7, #24]
 8005d20:	4013      	ands	r3, r2
 8005d22:	61bb      	str	r3, [r7, #24]
 8005d24:	683b      	ldr	r3, [r7, #0]
 8005d26:	68da      	ldr	r2, [r3, #12]
 8005d28:	69fb      	ldr	r3, [r7, #28]
 8005d2a:	005b      	lsls	r3, r3, #1
 8005d2c:	fa02 f303 	lsl.w	r3, r2, r3
 8005d30:	69ba      	ldr	r2, [r7, #24]
 8005d32:	4313      	orrs	r3, r2
 8005d34:	61bb      	str	r3, [r7, #24]
 8005d36:	687b      	ldr	r3, [r7, #4]
 8005d38:	69ba      	ldr	r2, [r7, #24]
 8005d3a:	609a      	str	r2, [r3, #8]
 8005d3c:	687b      	ldr	r3, [r7, #4]
 8005d3e:	685b      	ldr	r3, [r3, #4]
 8005d40:	61bb      	str	r3, [r7, #24]
 8005d42:	2201      	movs	r2, #1
 8005d44:	69fb      	ldr	r3, [r7, #28]
 8005d46:	fa02 f303 	lsl.w	r3, r2, r3
 8005d4a:	43db      	mvns	r3, r3
 8005d4c:	69ba      	ldr	r2, [r7, #24]
 8005d4e:	4013      	ands	r3, r2
 8005d50:	61bb      	str	r3, [r7, #24]
 8005d52:	683b      	ldr	r3, [r7, #0]
 8005d54:	685b      	ldr	r3, [r3, #4]
 8005d56:	091b      	lsrs	r3, r3, #4
 8005d58:	f003 0201 	and.w	r2, r3, #1
 8005d5c:	69fb      	ldr	r3, [r7, #28]
 8005d5e:	fa02 f303 	lsl.w	r3, r2, r3
 8005d62:	69ba      	ldr	r2, [r7, #24]
 8005d64:	4313      	orrs	r3, r2
 8005d66:	61bb      	str	r3, [r7, #24]
 8005d68:	687b      	ldr	r3, [r7, #4]
 8005d6a:	69ba      	ldr	r2, [r7, #24]
 8005d6c:	605a      	str	r2, [r3, #4]
 8005d6e:	683b      	ldr	r3, [r7, #0]
 8005d70:	685b      	ldr	r3, [r3, #4]
 8005d72:	f003 0303 	and.w	r3, r3, #3
 8005d76:	2b03      	cmp	r3, #3
 8005d78:	d017      	beq.n	8005daa <HAL_GPIO_Init+0xe2>
 8005d7a:	687b      	ldr	r3, [r7, #4]
 8005d7c:	68db      	ldr	r3, [r3, #12]
 8005d7e:	61bb      	str	r3, [r7, #24]
 8005d80:	69fb      	ldr	r3, [r7, #28]
 8005d82:	005b      	lsls	r3, r3, #1
 8005d84:	2203      	movs	r2, #3
 8005d86:	fa02 f303 	lsl.w	r3, r2, r3
 8005d8a:	43db      	mvns	r3, r3
 8005d8c:	69ba      	ldr	r2, [r7, #24]
 8005d8e:	4013      	ands	r3, r2
 8005d90:	61bb      	str	r3, [r7, #24]
 8005d92:	683b      	ldr	r3, [r7, #0]
 8005d94:	689a      	ldr	r2, [r3, #8]
 8005d96:	69fb      	ldr	r3, [r7, #28]
 8005d98:	005b      	lsls	r3, r3, #1
 8005d9a:	fa02 f303 	lsl.w	r3, r2, r3
 8005d9e:	69ba      	ldr	r2, [r7, #24]
 8005da0:	4313      	orrs	r3, r2
 8005da2:	61bb      	str	r3, [r7, #24]
 8005da4:	687b      	ldr	r3, [r7, #4]
 8005da6:	69ba      	ldr	r2, [r7, #24]
 8005da8:	60da      	str	r2, [r3, #12]
 8005daa:	683b      	ldr	r3, [r7, #0]
 8005dac:	685b      	ldr	r3, [r3, #4]
 8005dae:	f003 0303 	and.w	r3, r3, #3
 8005db2:	2b02      	cmp	r3, #2
 8005db4:	d123      	bne.n	8005dfe <HAL_GPIO_Init+0x136>
 8005db6:	69fb      	ldr	r3, [r7, #28]
 8005db8:	08da      	lsrs	r2, r3, #3
 8005dba:	687b      	ldr	r3, [r7, #4]
 8005dbc:	3208      	adds	r2, #8
 8005dbe:	f853 3022 	ldr.w	r3, [r3, r2, lsl #2]
 8005dc2:	61bb      	str	r3, [r7, #24]
 8005dc4:	69fb      	ldr	r3, [r7, #28]
 8005dc6:	f003 0307 	and.w	r3, r3, #7
 8005dca:	009b      	lsls	r3, r3, #2
 8005dcc:	220f      	movs	r2, #15
 8005dce:	fa02 f303 	lsl.w	r3, r2, r3
 8005dd2:	43db      	mvns	r3, r3
 8005dd4:	69ba      	ldr	r2, [r7, #24]
 8005dd6:	4013      	ands	r3, r2
 8005dd8:	61bb      	str	r3, [r7, #24]
 8005dda:	683b      	ldr	r3, [r7, #0]
 8005ddc:	691a      	ldr	r2, [r3, #16]
 8005dde:	69fb      	ldr	r3, [r7, #28]
 8005de0:	f003 0307 	and.w	r3, r3, #7
 8005de4:	009b      	lsls	r3, r3, #2
 8005de6:	fa02 f303 	lsl.w	r3, r2, r3
 8005dea:	69ba      	ldr	r2, [r7, #24]
 8005dec:	4313      	orrs	r3, r2
 8005dee:	61bb      	str	r3, [r7, #24]
 8005df0:	69fb      	ldr	r3, [r7, #28]
 8005df2:	08da      	lsrs	r2, r3, #3
 8005df4:	687b      	ldr	r3, [r7, #4]
 8005df6:	3208      	adds	r2, #8
 8005df8:	69b9      	ldr	r1, [r7, #24]
 8005dfa:	f843 1022 	str.w	r1, [r3, r2, lsl #2]
 8005dfe:	687b      	ldr	r3, [r7, #4]
 8005e00:	681b      	ldr	r3, [r3, #0]
 8005e02:	61bb      	str	r3, [r7, #24]
 8005e04:	69fb      	ldr	r3, [r7, #28]
 8005e06:	005b      	lsls	r3, r3, #1
 8005e08:	2203      	movs	r2, #3
 8005e0a:	fa02 f303 	lsl.w	r3, r2, r3
 8005e0e:	43db      	mvns	r3, r3
 8005e10:	69ba      	ldr	r2, [r7, #24]
 8005e12:	4013      	ands	r3, r2
 8005e14:	61bb      	str	r3, [r7, #24]
 8005e16:	683b      	ldr	r3, [r7, #0]
 8005e18:	685b      	ldr	r3, [r3, #4]
 8005e1a:	f003 0203 	and.w	r2, r3, #3
 8005e1e:	69fb      	ldr	r3, [r7, #28]
 8005e20:	005b      	lsls	r3, r3, #1
 8005e22:	fa02 f303 	lsl.w	r3, r2, r3
 8005e26:	69ba      	ldr	r2, [r7, #24]
 8005e28:	4313      	orrs	r3, r2
 8005e2a:	61bb      	str	r3, [r7, #24]
 8005e2c:	687b      	ldr	r3, [r7, #4]
 8005e2e:	69ba      	ldr	r2, [r7, #24]
 8005e30:	601a      	str	r2, [r3, #0]
 8005e32:	683b      	ldr	r3, [r7, #0]
 8005e34:	685b      	ldr	r3, [r3, #4]
 8005e36:	f403 3340 	and.w	r3, r3, #196608	@ 0x30000
 8005e3a:	2b00      	cmp	r3, #0
 8005e3c:	f000 80e0 	beq.w	8006000 <HAL_GPIO_Init+0x338>
 8005e40:	4b2f      	ldr	r3, [pc, #188]	@ (8005f00 <HAL_GPIO_Init+0x238>)
 8005e42:	f8d3 3154 	ldr.w	r3, [r3, #340]	@ 0x154
 8005e46:	4a2e      	ldr	r2, [pc, #184]	@ (8005f00 <HAL_GPIO_Init+0x238>)
 8005e48:	f043 0302 	orr.w	r3, r3, #2
 8005e4c:	f8c2 3154 	str.w	r3, [r2, #340]	@ 0x154
 8005e50:	4b2b      	ldr	r3, [pc, #172]	@ (8005f00 <HAL_GPIO_Init+0x238>)
 8005e52:	f8d3 3154 	ldr.w	r3, [r3, #340]	@ 0x154
 8005e56:	f003 0302 	and.w	r3, r3, #2
 8005e5a:	60fb      	str	r3, [r7, #12]
 8005e5c:	68fb      	ldr	r3, [r7, #12]
 8005e5e:	4a29      	ldr	r2, [pc, #164]	@ (8005f04 <HAL_GPIO_Init+0x23c>)
 8005e60:	69fb      	ldr	r3, [r7, #28]
 8005e62:	089b      	lsrs	r3, r3, #2
 8005e64:	3302      	adds	r3, #2
 8005e66:	f852 3023 	ldr.w	r3, [r2, r3, lsl #2]
 8005e6a:	61bb      	str	r3, [r7, #24]
 8005e6c:	69fb      	ldr	r3, [r7, #28]
 8005e6e:	f003 0303 	and.w	r3, r3, #3
 8005e72:	009b      	lsls	r3, r3, #2
 8005e74:	220f      	movs	r2, #15
 8005e76:	fa02 f303 	lsl.w	r3, r2, r3
 8005e7a:	43db      	mvns	r3, r3
 8005e7c:	69ba      	ldr	r2, [r7, #24]
 8005e7e:	4013      	ands	r3, r2
 8005e80:	61bb      	str	r3, [r7, #24]
 8005e82:	687b      	ldr	r3, [r7, #4]
 8005e84:	4a20      	ldr	r2, [pc, #128]	@ (8005f08 <HAL_GPIO_Init+0x240>)
 8005e86:	4293      	cmp	r3, r2
 8005e88:	d052      	beq.n	8005f30 <HAL_GPIO_Init+0x268>
 8005e8a:	687b      	ldr	r3, [r7, #4]
 8005e8c:	4a1f      	ldr	r2, [pc, #124]	@ (8005f0c <HAL_GPIO_Init+0x244>)
 8005e8e:	4293      	cmp	r3, r2
 8005e90:	d031      	beq.n	8005ef6 <HAL_GPIO_Init+0x22e>
 8005e92:	687b      	ldr	r3, [r7, #4]
 8005e94:	4a1e      	ldr	r2, [pc, #120]	@ (8005f10 <HAL_GPIO_Init+0x248>)
 8005e96:	4293      	cmp	r3, r2
 8005e98:	d02b      	beq.n	8005ef2 <HAL_GPIO_Init+0x22a>
 8005e9a:	687b      	ldr	r3, [r7, #4]
 8005e9c:	4a1d      	ldr	r2, [pc, #116]	@ (8005f14 <HAL_GPIO_Init+0x24c>)
 8005e9e:	4293      	cmp	r3, r2
 8005ea0:	d025      	beq.n	8005eee <HAL_GPIO_Init+0x226>
 8005ea2:	687b      	ldr	r3, [r7, #4]
 8005ea4:	4a1c      	ldr	r2, [pc, #112]	@ (8005f18 <HAL_GPIO_Init+0x250>)
 8005ea6:	4293      	cmp	r3, r2
 8005ea8:	d01f      	beq.n	8005eea <HAL_GPIO_Init+0x222>
 8005eaa:	687b      	ldr	r3, [r7, #4]
 8005eac:	4a1b      	ldr	r2, [pc, #108]	@ (8005f1c <HAL_GPIO_Init+0x254>)
 8005eae:	4293      	cmp	r3, r2
 8005eb0:	d019      	beq.n	8005ee6 <HAL_GPIO_Init+0x21e>
 8005eb2:	687b      	ldr	r3, [r7, #4]
 8005eb4:	4a1a      	ldr	r2, [pc, #104]	@ (8005f20 <HAL_GPIO_Init+0x258>)
 8005eb6:	4293      	cmp	r3, r2
 8005eb8:	d013      	beq.n	8005ee2 <HAL_GPIO_Init+0x21a>
 8005eba:	687b      	ldr	r3, [r7, #4]
 8005ebc:	4a19      	ldr	r2, [pc, #100]	@ (8005f24 <HAL_GPIO_Init+0x25c>)
 8005ebe:	4293      	cmp	r3, r2
 8005ec0:	d00d      	beq.n	8005ede <HAL_GPIO_Init+0x216>
 8005ec2:	687b      	ldr	r3, [r7, #4]
 8005ec4:	4a18      	ldr	r2, [pc, #96]	@ (8005f28 <HAL_GPIO_Init+0x260>)
 8005ec6:	4293      	cmp	r3, r2
 8005ec8:	d007      	beq.n	8005eda <HAL_GPIO_Init+0x212>
 8005eca:	687b      	ldr	r3, [r7, #4]
 8005ecc:	4a17      	ldr	r2, [pc, #92]	@ (8005f2c <HAL_GPIO_Init+0x264>)
 8005ece:	4293      	cmp	r3, r2
 8005ed0:	d101      	bne.n	8005ed6 <HAL_GPIO_Init+0x20e>
 8005ed2:	2309      	movs	r3, #9
 8005ed4:	e02d      	b.n	8005f32 <HAL_GPIO_Init+0x26a>
 8005ed6:	230a      	movs	r3, #10
 8005ed8:	e02b      	b.n	8005f32 <HAL_GPIO_Init+0x26a>
 8005eda:	2308      	movs	r3, #8
 8005edc:	e029      	b.n	8005f32 <HAL_GPIO_Init+0x26a>
 8005ede:	2307      	movs	r3, #7
 8005ee0:	e027      	b.n	8005f32 <HAL_GPIO_Init+0x26a>
 8005ee2:	2306      	movs	r3, #6
 8005ee4:	e025      	b.n	8005f32 <HAL_GPIO_Init+0x26a>
 8005ee6:	2305      	movs	r3, #5
 8005ee8:	e023      	b.n	8005f32 <HAL_GPIO_Init+0x26a>
 8005eea:	2304      	movs	r3, #4
 8005eec:	e021      	b.n	8005f32 <HAL_GPIO_Init+0x26a>
 8005eee:	2303      	movs	r3, #3
 8005ef0:	e01f      	b.n	8005f32 <HAL_GPIO_Init+0x26a>
 8005ef2:	2302      	movs	r3, #2
 8005ef4:	e01d      	b.n	8005f32 <HAL_GPIO_Init+0x26a>
 8005ef6:	2301      	movs	r3, #1
 8005ef8:	e01b      	b.n	8005f32 <HAL_GPIO_Init+0x26a>
 8005efa:	bf00      	nop
 8005efc:	58000080 	.word	0x58000080
 8005f00:	58024400 	.word	0x58024400
 8005f04:	58000400 	.word	0x58000400
 8005f08:	58020000 	.word	0x58020000
 8005f0c:	58020400 	.word	0x58020400
 8005f10:	58020800 	.word	0x58020800
 8005f14:	58020c00 	.word	0x58020c00
 8005f18:	58021000 	.word	0x58021000
 8005f1c:	58021400 	.word	0x58021400
 8005f20:	58021800 	.word	0x58021800
 8005f24:	58021c00 	.word	0x58021c00
 8005f28:	58022000 	.word	0x58022000
 8005f2c:	58022400 	.word	0x58022400
 8005f30:	2300      	movs	r3, #0
 8005f32:	69fa      	ldr	r2, [r7, #28]
 8005f34:	f002 0203 	and.w	r2, r2, #3
 8005f38:	0092      	lsls	r2, r2, #2
 8005f3a:	4093      	lsls	r3, r2
 8005f3c:	69ba      	ldr	r2, [r7, #24]
 8005f3e:	4313      	orrs	r3, r2
 8005f40:	61bb      	str	r3, [r7, #24]
 8005f42:	4938      	ldr	r1, [pc, #224]	@ (8006024 <HAL_GPIO_Init+0x35c>)
 8005f44:	69fb      	ldr	r3, [r7, #28]
 8005f46:	089b      	lsrs	r3, r3, #2
 8005f48:	3302      	adds	r3, #2
 8005f4a:	69ba      	ldr	r2, [r7, #24]
 8005f4c:	f841 2023 	str.w	r2, [r1, r3, lsl #2]
 8005f50:	f04f 43b0 	mov.w	r3, #1476395008	@ 0x58000000
 8005f54:	681b      	ldr	r3, [r3, #0]
 8005f56:	61bb      	str	r3, [r7, #24]
 8005f58:	693b      	ldr	r3, [r7, #16]
 8005f5a:	43db      	mvns	r3, r3
 8005f5c:	69ba      	ldr	r2, [r7, #24]
 8005f5e:	4013      	ands	r3, r2
 8005f60:	61bb      	str	r3, [r7, #24]
 8005f62:	683b      	ldr	r3, [r7, #0]
 8005f64:	685b      	ldr	r3, [r3, #4]
 8005f66:	f403 1380 	and.w	r3, r3, #1048576	@ 0x100000
 8005f6a:	2b00      	cmp	r3, #0
 8005f6c:	d003      	beq.n	8005f76 <HAL_GPIO_Init+0x2ae>
 8005f6e:	69ba      	ldr	r2, [r7, #24]
 8005f70:	693b      	ldr	r3, [r7, #16]
 8005f72:	4313      	orrs	r3, r2
 8005f74:	61bb      	str	r3, [r7, #24]
 8005f76:	f04f 42b0 	mov.w	r2, #1476395008	@ 0x58000000
 8005f7a:	69bb      	ldr	r3, [r7, #24]
 8005f7c:	6013      	str	r3, [r2, #0]
 8005f7e:	f04f 43b0 	mov.w	r3, #1476395008	@ 0x58000000
 8005f82:	685b      	ldr	r3, [r3, #4]
 8005f84:	61bb      	str	r3, [r7, #24]
 8005f86:	693b      	ldr	r3, [r7, #16]
 8005f88:	43db      	mvns	r3, r3
 8005f8a:	69ba      	ldr	r2, [r7, #24]
 8005f8c:	4013      	ands	r3, r2
 8005f8e:	61bb      	str	r3, [r7, #24]
 8005f90:	683b      	ldr	r3, [r7, #0]
 8005f92:	685b      	ldr	r3, [r3, #4]
 8005f94:	f403 1300 	and.w	r3, r3, #2097152	@ 0x200000
 8005f98:	2b00      	cmp	r3, #0
 8005f9a:	d003      	beq.n	8005fa4 <HAL_GPIO_Init+0x2dc>
 8005f9c:	69ba      	ldr	r2, [r7, #24]
 8005f9e:	693b      	ldr	r3, [r7, #16]
 8005fa0:	4313      	orrs	r3, r2
 8005fa2:	61bb      	str	r3, [r7, #24]
 8005fa4:	f04f 42b0 	mov.w	r2, #1476395008	@ 0x58000000
 8005fa8:	69bb      	ldr	r3, [r7, #24]
 8005faa:	6053      	str	r3, [r2, #4]
 8005fac:	697b      	ldr	r3, [r7, #20]
 8005fae:	685b      	ldr	r3, [r3, #4]
 8005fb0:	61bb      	str	r3, [r7, #24]
 8005fb2:	693b      	ldr	r3, [r7, #16]
 8005fb4:	43db      	mvns	r3, r3
 8005fb6:	69ba      	ldr	r2, [r7, #24]
 8005fb8:	4013      	ands	r3, r2
 8005fba:	61bb      	str	r3, [r7, #24]
 8005fbc:	683b      	ldr	r3, [r7, #0]
 8005fbe:	685b      	ldr	r3, [r3, #4]
 8005fc0:	f403 3300 	and.w	r3, r3, #131072	@ 0x20000
 8005fc4:	2b00      	cmp	r3, #0
 8005fc6:	d003      	beq.n	8005fd0 <HAL_GPIO_Init+0x308>
 8005fc8:	69ba      	ldr	r2, [r7, #24]
 8005fca:	693b      	ldr	r3, [r7, #16]
 8005fcc:	4313      	orrs	r3, r2
 8005fce:	61bb      	str	r3, [r7, #24]
 8005fd0:	697b      	ldr	r3, [r7, #20]
 8005fd2:	69ba      	ldr	r2, [r7, #24]
 8005fd4:	605a      	str	r2, [r3, #4]
 8005fd6:	697b      	ldr	r3, [r7, #20]
 8005fd8:	681b      	ldr	r3, [r3, #0]
 8005fda:	61bb      	str	r3, [r7, #24]
 8005fdc:	693b      	ldr	r3, [r7, #16]
 8005fde:	43db      	mvns	r3, r3
 8005fe0:	69ba      	ldr	r2, [r7, #24]
 8005fe2:	4013      	ands	r3, r2
 8005fe4:	61bb      	str	r3, [r7, #24]
 8005fe6:	683b      	ldr	r3, [r7, #0]
 8005fe8:	685b      	ldr	r3, [r3, #4]
 8005fea:	f403 3380 	and.w	r3, r3, #65536	@ 0x10000
 8005fee:	2b00      	cmp	r3, #0
 8005ff0:	d003      	beq.n	8005ffa <HAL_GPIO_Init+0x332>
 8005ff2:	69ba      	ldr	r2, [r7, #24]
 8005ff4:	693b      	ldr	r3, [r7, #16]
 8005ff6:	4313      	orrs	r3, r2
 8005ff8:	61bb      	str	r3, [r7, #24]
 8005ffa:	697b      	ldr	r3, [r7, #20]
 8005ffc:	69ba      	ldr	r2, [r7, #24]
 8005ffe:	601a      	str	r2, [r3, #0]
 8006000:	69fb      	ldr	r3, [r7, #28]
 8006002:	3301      	adds	r3, #1
 8006004:	61fb      	str	r3, [r7, #28]
 8006006:	683b      	ldr	r3, [r7, #0]
 8006008:	681a      	ldr	r2, [r3, #0]
 800600a:	69fb      	ldr	r3, [r7, #28]
 800600c:	fa22 f303 	lsr.w	r3, r2, r3
 8006010:	2b00      	cmp	r3, #0
 8006012:	f47f ae63 	bne.w	8005cdc <HAL_GPIO_Init+0x14>
 8006016:	bf00      	nop
 8006018:	bf00      	nop
 800601a:	3724      	adds	r7, #36	@ 0x24
 800601c:	46bd      	mov	sp, r7
 800601e:	f85d 7b04 	ldr.w	r7, [sp], #4
 8006022:	4770      	bx	lr
 8006024:	58000400 	.word	0x58000400

08006028 <HAL_GPIO_WritePin>:
 8006028:	b480      	push	{r7}
 800602a:	b083      	sub	sp, #12
 800602c:	af00      	add	r7, sp, #0
 800602e:	6078      	str	r0, [r7, #4]
 8006030:	460b      	mov	r3, r1
 8006032:	807b      	strh	r3, [r7, #2]
 8006034:	4613      	mov	r3, r2
 8006036:	707b      	strb	r3, [r7, #1]
 8006038:	787b      	ldrb	r3, [r7, #1]
 800603a:	2b00      	cmp	r3, #0
 800603c:	d003      	beq.n	8006046 <HAL_GPIO_WritePin+0x1e>
 800603e:	887a      	ldrh	r2, [r7, #2]
 8006040:	687b      	ldr	r3, [r7, #4]
 8006042:	619a      	str	r2, [r3, #24]
 8006044:	e003      	b.n	800604e <HAL_GPIO_WritePin+0x26>
 8006046:	887b      	ldrh	r3, [r7, #2]
 8006048:	041a      	lsls	r2, r3, #16
 800604a:	687b      	ldr	r3, [r7, #4]
 800604c:	619a      	str	r2, [r3, #24]
 800604e:	bf00      	nop
 8006050:	370c      	adds	r7, #12
 8006052:	46bd      	mov	sp, r7
 8006054:	f85d 7b04 	ldr.w	r7, [sp], #4
 8006058:	4770      	bx	lr
	...

0800605c <HAL_PWR_EnableBkUpAccess>:
 800605c:	b480      	push	{r7}
 800605e:	af00      	add	r7, sp, #0
 8006060:	4b05      	ldr	r3, [pc, #20]	@ (8006078 <HAL_PWR_EnableBkUpAccess+0x1c>)
 8006062:	681b      	ldr	r3, [r3, #0]
 8006064:	4a04      	ldr	r2, [pc, #16]	@ (8006078 <HAL_PWR_EnableBkUpAccess+0x1c>)
 8006066:	f443 7380 	orr.w	r3, r3, #256	@ 0x100
 800606a:	6013      	str	r3, [r2, #0]
 800606c:	bf00      	nop
 800606e:	46bd      	mov	sp, r7
 8006070:	f85d 7b04 	ldr.w	r7, [sp], #4
 8006074:	4770      	bx	lr
 8006076:	bf00      	nop
 8006078:	58024800 	.word	0x58024800

0800607c <HAL_PWREx_ConfigSupply>:
 800607c:	b580      	push	{r7, lr}
 800607e:	b084      	sub	sp, #16
 8006080:	af00      	add	r7, sp, #0
 8006082:	6078      	str	r0, [r7, #4]
 8006084:	4b29      	ldr	r3, [pc, #164]	@ (800612c <HAL_PWREx_ConfigSupply+0xb0>)
 8006086:	68db      	ldr	r3, [r3, #12]
 8006088:	f003 0307 	and.w	r3, r3, #7
 800608c:	2b06      	cmp	r3, #6
 800608e:	d00a      	beq.n	80060a6 <HAL_PWREx_ConfigSupply+0x2a>
 8006090:	4b26      	ldr	r3, [pc, #152]	@ (800612c <HAL_PWREx_ConfigSupply+0xb0>)
 8006092:	68db      	ldr	r3, [r3, #12]
 8006094:	f003 033f 	and.w	r3, r3, #63	@ 0x3f
 8006098:	687a      	ldr	r2, [r7, #4]
 800609a:	429a      	cmp	r2, r3
 800609c:	d001      	beq.n	80060a2 <HAL_PWREx_ConfigSupply+0x26>
 800609e:	2301      	movs	r3, #1
 80060a0:	e040      	b.n	8006124 <HAL_PWREx_ConfigSupply+0xa8>
 80060a2:	2300      	movs	r3, #0
 80060a4:	e03e      	b.n	8006124 <HAL_PWREx_ConfigSupply+0xa8>
 80060a6:	4b21      	ldr	r3, [pc, #132]	@ (800612c <HAL_PWREx_ConfigSupply+0xb0>)
 80060a8:	68db      	ldr	r3, [r3, #12]
 80060aa:	f023 023f 	bic.w	r2, r3, #63	@ 0x3f
 80060ae:	491f      	ldr	r1, [pc, #124]	@ (800612c <HAL_PWREx_ConfigSupply+0xb0>)
 80060b0:	687b      	ldr	r3, [r7, #4]
 80060b2:	4313      	orrs	r3, r2
 80060b4:	60cb      	str	r3, [r1, #12]
 80060b6:	f7fb f8af 	bl	8001218 <HAL_GetTick>
 80060ba:	60f8      	str	r0, [r7, #12]
 80060bc:	e009      	b.n	80060d2 <HAL_PWREx_ConfigSupply+0x56>
 80060be:	f7fb f8ab 	bl	8001218 <HAL_GetTick>
 80060c2:	4602      	mov	r2, r0
 80060c4:	68fb      	ldr	r3, [r7, #12]
 80060c6:	1ad3      	subs	r3, r2, r3
 80060c8:	f5b3 7f7a 	cmp.w	r3, #1000	@ 0x3e8
 80060cc:	d901      	bls.n	80060d2 <HAL_PWREx_ConfigSupply+0x56>
 80060ce:	2301      	movs	r3, #1
 80060d0:	e028      	b.n	8006124 <HAL_PWREx_ConfigSupply+0xa8>
 80060d2:	4b16      	ldr	r3, [pc, #88]	@ (800612c <HAL_PWREx_ConfigSupply+0xb0>)
 80060d4:	685b      	ldr	r3, [r3, #4]
 80060d6:	f403 5300 	and.w	r3, r3, #8192	@ 0x2000
 80060da:	f5b3 5f00 	cmp.w	r3, #8192	@ 0x2000
 80060de:	d1ee      	bne.n	80060be <HAL_PWREx_ConfigSupply+0x42>
 80060e0:	687b      	ldr	r3, [r7, #4]
 80060e2:	2b1e      	cmp	r3, #30
 80060e4:	d008      	beq.n	80060f8 <HAL_PWREx_ConfigSupply+0x7c>
 80060e6:	687b      	ldr	r3, [r7, #4]
 80060e8:	2b2e      	cmp	r3, #46	@ 0x2e
 80060ea:	d005      	beq.n	80060f8 <HAL_PWREx_ConfigSupply+0x7c>
 80060ec:	687b      	ldr	r3, [r7, #4]
 80060ee:	2b1d      	cmp	r3, #29
 80060f0:	d002      	beq.n	80060f8 <HAL_PWREx_ConfigSupply+0x7c>
 80060f2:	687b      	ldr	r3, [r7, #4]
 80060f4:	2b2d      	cmp	r3, #45	@ 0x2d
 80060f6:	d114      	bne.n	8006122 <HAL_PWREx_ConfigSupply+0xa6>
 80060f8:	f7fb f88e 	bl	8001218 <HAL_GetTick>
 80060fc:	60f8      	str	r0, [r7, #12]
 80060fe:	e009      	b.n	8006114 <HAL_PWREx_ConfigSupply+0x98>
 8006100:	f7fb f88a 	bl	8001218 <HAL_GetTick>
 8006104:	4602      	mov	r2, r0
 8006106:	68fb      	ldr	r3, [r7, #12]
 8006108:	1ad3      	subs	r3, r2, r3
 800610a:	f5b3 7f7a 	cmp.w	r3, #1000	@ 0x3e8
 800610e:	d901      	bls.n	8006114 <HAL_PWREx_ConfigSupply+0x98>
 8006110:	2301      	movs	r3, #1
 8006112:	e007      	b.n	8006124 <HAL_PWREx_ConfigSupply+0xa8>
 8006114:	4b05      	ldr	r3, [pc, #20]	@ (800612c <HAL_PWREx_ConfigSupply+0xb0>)
 8006116:	68db      	ldr	r3, [r3, #12]
 8006118:	f403 3380 	and.w	r3, r3, #65536	@ 0x10000
 800611c:	f5b3 3f80 	cmp.w	r3, #65536	@ 0x10000
 8006120:	d1ee      	bne.n	8006100 <HAL_PWREx_ConfigSupply+0x84>
 8006122:	2300      	movs	r3, #0
 8006124:	4618      	mov	r0, r3
 8006126:	3710      	adds	r7, #16
 8006128:	46bd      	mov	sp, r7
 800612a:	bd80      	pop	{r7, pc}
 800612c:	58024800 	.word	0x58024800

08006130 <HAL_RCC_OscConfig>:
 8006130:	b580      	push	{r7, lr}
 8006132:	b08c      	sub	sp, #48	@ 0x30
 8006134:	af00      	add	r7, sp, #0
 8006136:	6078      	str	r0, [r7, #4]
 8006138:	687b      	ldr	r3, [r7, #4]
 800613a:	2b00      	cmp	r3, #0
 800613c:	d102      	bne.n	8006144 <HAL_RCC_OscConfig+0x14>
 800613e:	2301      	movs	r3, #1
 8006140:	f000 bc1f 	b.w	8006982 <HAL_RCC_OscConfig+0x852>
 8006144:	687b      	ldr	r3, [r7, #4]
 8006146:	681b      	ldr	r3, [r3, #0]
 8006148:	f003 0301 	and.w	r3, r3, #1
 800614c:	2b00      	cmp	r3, #0
 800614e:	f000 80b3 	beq.w	80062b8 <HAL_RCC_OscConfig+0x188>
 8006152:	4b95      	ldr	r3, [pc, #596]	@ (80063a8 <HAL_RCC_OscConfig+0x278>)
 8006154:	691b      	ldr	r3, [r3, #16]
 8006156:	f003 0338 	and.w	r3, r3, #56	@ 0x38
 800615a:	62fb      	str	r3, [r7, #44]	@ 0x2c
 800615c:	4b92      	ldr	r3, [pc, #584]	@ (80063a8 <HAL_RCC_OscConfig+0x278>)
 800615e:	6a9b      	ldr	r3, [r3, #40]	@ 0x28
 8006160:	62bb      	str	r3, [r7, #40]	@ 0x28
 8006162:	6afb      	ldr	r3, [r7, #44]	@ 0x2c
 8006164:	2b10      	cmp	r3, #16
 8006166:	d007      	beq.n	8006178 <HAL_RCC_OscConfig+0x48>
 8006168:	6afb      	ldr	r3, [r7, #44]	@ 0x2c
 800616a:	2b18      	cmp	r3, #24
 800616c:	d112      	bne.n	8006194 <HAL_RCC_OscConfig+0x64>
 800616e:	6abb      	ldr	r3, [r7, #40]	@ 0x28
 8006170:	f003 0303 	and.w	r3, r3, #3
 8006174:	2b02      	cmp	r3, #2
 8006176:	d10d      	bne.n	8006194 <HAL_RCC_OscConfig+0x64>
 8006178:	4b8b      	ldr	r3, [pc, #556]	@ (80063a8 <HAL_RCC_OscConfig+0x278>)
 800617a:	681b      	ldr	r3, [r3, #0]
 800617c:	f403 3300 	and.w	r3, r3, #131072	@ 0x20000
 8006180:	2b00      	cmp	r3, #0
 8006182:	f000 8098 	beq.w	80062b6 <HAL_RCC_OscConfig+0x186>
 8006186:	687b      	ldr	r3, [r7, #4]
 8006188:	685b      	ldr	r3, [r3, #4]
 800618a:	2b00      	cmp	r3, #0
 800618c:	f040 8093 	bne.w	80062b6 <HAL_RCC_OscConfig+0x186>
 8006190:	2301      	movs	r3, #1
 8006192:	e3f6      	b.n	8006982 <HAL_RCC_OscConfig+0x852>
 8006194:	687b      	ldr	r3, [r7, #4]
 8006196:	685b      	ldr	r3, [r3, #4]
 8006198:	f5b3 3f80 	cmp.w	r3, #65536	@ 0x10000
 800619c:	d106      	bne.n	80061ac <HAL_RCC_OscConfig+0x7c>
 800619e:	4b82      	ldr	r3, [pc, #520]	@ (80063a8 <HAL_RCC_OscConfig+0x278>)
 80061a0:	681b      	ldr	r3, [r3, #0]
 80061a2:	4a81      	ldr	r2, [pc, #516]	@ (80063a8 <HAL_RCC_OscConfig+0x278>)
 80061a4:	f443 3380 	orr.w	r3, r3, #65536	@ 0x10000
 80061a8:	6013      	str	r3, [r2, #0]
 80061aa:	e058      	b.n	800625e <HAL_RCC_OscConfig+0x12e>
 80061ac:	687b      	ldr	r3, [r7, #4]
 80061ae:	685b      	ldr	r3, [r3, #4]
 80061b0:	2b00      	cmp	r3, #0
 80061b2:	d112      	bne.n	80061da <HAL_RCC_OscConfig+0xaa>
 80061b4:	4b7c      	ldr	r3, [pc, #496]	@ (80063a8 <HAL_RCC_OscConfig+0x278>)
 80061b6:	681b      	ldr	r3, [r3, #0]
 80061b8:	4a7b      	ldr	r2, [pc, #492]	@ (80063a8 <HAL_RCC_OscConfig+0x278>)
 80061ba:	f423 3380 	bic.w	r3, r3, #65536	@ 0x10000
 80061be:	6013      	str	r3, [r2, #0]
 80061c0:	4b79      	ldr	r3, [pc, #484]	@ (80063a8 <HAL_RCC_OscConfig+0x278>)
 80061c2:	681b      	ldr	r3, [r3, #0]
 80061c4:	4a78      	ldr	r2, [pc, #480]	@ (80063a8 <HAL_RCC_OscConfig+0x278>)
 80061c6:	f423 1380 	bic.w	r3, r3, #1048576	@ 0x100000
 80061ca:	6013      	str	r3, [r2, #0]
 80061cc:	4b76      	ldr	r3, [pc, #472]	@ (80063a8 <HAL_RCC_OscConfig+0x278>)
 80061ce:	681b      	ldr	r3, [r3, #0]
 80061d0:	4a75      	ldr	r2, [pc, #468]	@ (80063a8 <HAL_RCC_OscConfig+0x278>)
 80061d2:	f423 2380 	bic.w	r3, r3, #262144	@ 0x40000
 80061d6:	6013      	str	r3, [r2, #0]
 80061d8:	e041      	b.n	800625e <HAL_RCC_OscConfig+0x12e>
 80061da:	687b      	ldr	r3, [r7, #4]
 80061dc:	685b      	ldr	r3, [r3, #4]
 80061de:	f5b3 2fa0 	cmp.w	r3, #327680	@ 0x50000
 80061e2:	d112      	bne.n	800620a <HAL_RCC_OscConfig+0xda>
 80061e4:	4b70      	ldr	r3, [pc, #448]	@ (80063a8 <HAL_RCC_OscConfig+0x278>)
 80061e6:	681b      	ldr	r3, [r3, #0]
 80061e8:	4a6f      	ldr	r2, [pc, #444]	@ (80063a8 <HAL_RCC_OscConfig+0x278>)
 80061ea:	f443 2380 	orr.w	r3, r3, #262144	@ 0x40000
 80061ee:	6013      	str	r3, [r2, #0]
 80061f0:	4b6d      	ldr	r3, [pc, #436]	@ (80063a8 <HAL_RCC_OscConfig+0x278>)
 80061f2:	681b      	ldr	r3, [r3, #0]
 80061f4:	4a6c      	ldr	r2, [pc, #432]	@ (80063a8 <HAL_RCC_OscConfig+0x278>)
 80061f6:	f423 1380 	bic.w	r3, r3, #1048576	@ 0x100000
 80061fa:	6013      	str	r3, [r2, #0]
 80061fc:	4b6a      	ldr	r3, [pc, #424]	@ (80063a8 <HAL_RCC_OscConfig+0x278>)
 80061fe:	681b      	ldr	r3, [r3, #0]
 8006200:	4a69      	ldr	r2, [pc, #420]	@ (80063a8 <HAL_RCC_OscConfig+0x278>)
 8006202:	f443 3380 	orr.w	r3, r3, #65536	@ 0x10000
 8006206:	6013      	str	r3, [r2, #0]
 8006208:	e029      	b.n	800625e <HAL_RCC_OscConfig+0x12e>
 800620a:	687b      	ldr	r3, [r7, #4]
 800620c:	685b      	ldr	r3, [r3, #4]
 800620e:	f5b3 1fa8 	cmp.w	r3, #1376256	@ 0x150000
 8006212:	d112      	bne.n	800623a <HAL_RCC_OscConfig+0x10a>
 8006214:	4b64      	ldr	r3, [pc, #400]	@ (80063a8 <HAL_RCC_OscConfig+0x278>)
 8006216:	681b      	ldr	r3, [r3, #0]
 8006218:	4a63      	ldr	r2, [pc, #396]	@ (80063a8 <HAL_RCC_OscConfig+0x278>)
 800621a:	f443 2380 	orr.w	r3, r3, #262144	@ 0x40000
 800621e:	6013      	str	r3, [r2, #0]
 8006220:	4b61      	ldr	r3, [pc, #388]	@ (80063a8 <HAL_RCC_OscConfig+0x278>)
 8006222:	681b      	ldr	r3, [r3, #0]
 8006224:	4a60      	ldr	r2, [pc, #384]	@ (80063a8 <HAL_RCC_OscConfig+0x278>)
 8006226:	f443 1380 	orr.w	r3, r3, #1048576	@ 0x100000
 800622a:	6013      	str	r3, [r2, #0]
 800622c:	4b5e      	ldr	r3, [pc, #376]	@ (80063a8 <HAL_RCC_OscConfig+0x278>)
 800622e:	681b      	ldr	r3, [r3, #0]
 8006230:	4a5d      	ldr	r2, [pc, #372]	@ (80063a8 <HAL_RCC_OscConfig+0x278>)
 8006232:	f443 3380 	orr.w	r3, r3, #65536	@ 0x10000
 8006236:	6013      	str	r3, [r2, #0]
 8006238:	e011      	b.n	800625e <HAL_RCC_OscConfig+0x12e>
 800623a:	4b5b      	ldr	r3, [pc, #364]	@ (80063a8 <HAL_RCC_OscConfig+0x278>)
 800623c:	681b      	ldr	r3, [r3, #0]
 800623e:	4a5a      	ldr	r2, [pc, #360]	@ (80063a8 <HAL_RCC_OscConfig+0x278>)
 8006240:	f423 3380 	bic.w	r3, r3, #65536	@ 0x10000
 8006244:	6013      	str	r3, [r2, #0]
 8006246:	4b58      	ldr	r3, [pc, #352]	@ (80063a8 <HAL_RCC_OscConfig+0x278>)
 8006248:	681b      	ldr	r3, [r3, #0]
 800624a:	4a57      	ldr	r2, [pc, #348]	@ (80063a8 <HAL_RCC_OscConfig+0x278>)
 800624c:	f423 2380 	bic.w	r3, r3, #262144	@ 0x40000
 8006250:	6013      	str	r3, [r2, #0]
 8006252:	4b55      	ldr	r3, [pc, #340]	@ (80063a8 <HAL_RCC_OscConfig+0x278>)
 8006254:	681b      	ldr	r3, [r3, #0]
 8006256:	4a54      	ldr	r2, [pc, #336]	@ (80063a8 <HAL_RCC_OscConfig+0x278>)
 8006258:	f423 1380 	bic.w	r3, r3, #1048576	@ 0x100000
 800625c:	6013      	str	r3, [r2, #0]
 800625e:	687b      	ldr	r3, [r7, #4]
 8006260:	685b      	ldr	r3, [r3, #4]
 8006262:	2b00      	cmp	r3, #0
 8006264:	d013      	beq.n	800628e <HAL_RCC_OscConfig+0x15e>
 8006266:	f7fa ffd7 	bl	8001218 <HAL_GetTick>
 800626a:	6278      	str	r0, [r7, #36]	@ 0x24
 800626c:	e008      	b.n	8006280 <HAL_RCC_OscConfig+0x150>
 800626e:	f7fa ffd3 	bl	8001218 <HAL_GetTick>
 8006272:	4602      	mov	r2, r0
 8006274:	6a7b      	ldr	r3, [r7, #36]	@ 0x24
 8006276:	1ad3      	subs	r3, r2, r3
 8006278:	2b64      	cmp	r3, #100	@ 0x64
 800627a:	d901      	bls.n	8006280 <HAL_RCC_OscConfig+0x150>
 800627c:	2303      	movs	r3, #3
 800627e:	e380      	b.n	8006982 <HAL_RCC_OscConfig+0x852>
 8006280:	4b49      	ldr	r3, [pc, #292]	@ (80063a8 <HAL_RCC_OscConfig+0x278>)
 8006282:	681b      	ldr	r3, [r3, #0]
 8006284:	f403 3300 	and.w	r3, r3, #131072	@ 0x20000
 8006288:	2b00      	cmp	r3, #0
 800628a:	d0f0      	beq.n	800626e <HAL_RCC_OscConfig+0x13e>
 800628c:	e014      	b.n	80062b8 <HAL_RCC_OscConfig+0x188>
 800628e:	f7fa ffc3 	bl	8001218 <HAL_GetTick>
 8006292:	6278      	str	r0, [r7, #36]	@ 0x24
 8006294:	e008      	b.n	80062a8 <HAL_RCC_OscConfig+0x178>
 8006296:	f7fa ffbf 	bl	8001218 <HAL_GetTick>
 800629a:	4602      	mov	r2, r0
 800629c:	6a7b      	ldr	r3, [r7, #36]	@ 0x24
 800629e:	1ad3      	subs	r3, r2, r3
 80062a0:	2b64      	cmp	r3, #100	@ 0x64
 80062a2:	d901      	bls.n	80062a8 <HAL_RCC_OscConfig+0x178>
 80062a4:	2303      	movs	r3, #3
 80062a6:	e36c      	b.n	8006982 <HAL_RCC_OscConfig+0x852>
 80062a8:	4b3f      	ldr	r3, [pc, #252]	@ (80063a8 <HAL_RCC_OscConfig+0x278>)
 80062aa:	681b      	ldr	r3, [r3, #0]
 80062ac:	f403 3300 	and.w	r3, r3, #131072	@ 0x20000
 80062b0:	2b00      	cmp	r3, #0
 80062b2:	d1f0      	bne.n	8006296 <HAL_RCC_OscConfig+0x166>
 80062b4:	e000      	b.n	80062b8 <HAL_RCC_OscConfig+0x188>
 80062b6:	bf00      	nop
 80062b8:	687b      	ldr	r3, [r7, #4]
 80062ba:	681b      	ldr	r3, [r3, #0]
 80062bc:	f003 0302 	and.w	r3, r3, #2
 80062c0:	2b00      	cmp	r3, #0
 80062c2:	f000 808c 	beq.w	80063de <HAL_RCC_OscConfig+0x2ae>
 80062c6:	4b38      	ldr	r3, [pc, #224]	@ (80063a8 <HAL_RCC_OscConfig+0x278>)
 80062c8:	691b      	ldr	r3, [r3, #16]
 80062ca:	f003 0338 	and.w	r3, r3, #56	@ 0x38
 80062ce:	623b      	str	r3, [r7, #32]
 80062d0:	4b35      	ldr	r3, [pc, #212]	@ (80063a8 <HAL_RCC_OscConfig+0x278>)
 80062d2:	6a9b      	ldr	r3, [r3, #40]	@ 0x28
 80062d4:	61fb      	str	r3, [r7, #28]
 80062d6:	6a3b      	ldr	r3, [r7, #32]
 80062d8:	2b00      	cmp	r3, #0
 80062da:	d007      	beq.n	80062ec <HAL_RCC_OscConfig+0x1bc>
 80062dc:	6a3b      	ldr	r3, [r7, #32]
 80062de:	2b18      	cmp	r3, #24
 80062e0:	d137      	bne.n	8006352 <HAL_RCC_OscConfig+0x222>
 80062e2:	69fb      	ldr	r3, [r7, #28]
 80062e4:	f003 0303 	and.w	r3, r3, #3
 80062e8:	2b00      	cmp	r3, #0
 80062ea:	d132      	bne.n	8006352 <HAL_RCC_OscConfig+0x222>
 80062ec:	4b2e      	ldr	r3, [pc, #184]	@ (80063a8 <HAL_RCC_OscConfig+0x278>)
 80062ee:	681b      	ldr	r3, [r3, #0]
 80062f0:	f003 0304 	and.w	r3, r3, #4
 80062f4:	2b00      	cmp	r3, #0
 80062f6:	d005      	beq.n	8006304 <HAL_RCC_OscConfig+0x1d4>
 80062f8:	687b      	ldr	r3, [r7, #4]
 80062fa:	68db      	ldr	r3, [r3, #12]
 80062fc:	2b00      	cmp	r3, #0
 80062fe:	d101      	bne.n	8006304 <HAL_RCC_OscConfig+0x1d4>
 8006300:	2301      	movs	r3, #1
 8006302:	e33e      	b.n	8006982 <HAL_RCC_OscConfig+0x852>
 8006304:	4b28      	ldr	r3, [pc, #160]	@ (80063a8 <HAL_RCC_OscConfig+0x278>)
 8006306:	681b      	ldr	r3, [r3, #0]
 8006308:	f023 0219 	bic.w	r2, r3, #25
 800630c:	687b      	ldr	r3, [r7, #4]
 800630e:	68db      	ldr	r3, [r3, #12]
 8006310:	4925      	ldr	r1, [pc, #148]	@ (80063a8 <HAL_RCC_OscConfig+0x278>)
 8006312:	4313      	orrs	r3, r2
 8006314:	600b      	str	r3, [r1, #0]
 8006316:	f7fa ff7f 	bl	8001218 <HAL_GetTick>
 800631a:	6278      	str	r0, [r7, #36]	@ 0x24
 800631c:	e008      	b.n	8006330 <HAL_RCC_OscConfig+0x200>
 800631e:	f7fa ff7b 	bl	8001218 <HAL_GetTick>
 8006322:	4602      	mov	r2, r0
 8006324:	6a7b      	ldr	r3, [r7, #36]	@ 0x24
 8006326:	1ad3      	subs	r3, r2, r3
 8006328:	2b02      	cmp	r3, #2
 800632a:	d901      	bls.n	8006330 <HAL_RCC_OscConfig+0x200>
 800632c:	2303      	movs	r3, #3
 800632e:	e328      	b.n	8006982 <HAL_RCC_OscConfig+0x852>
 8006330:	4b1d      	ldr	r3, [pc, #116]	@ (80063a8 <HAL_RCC_OscConfig+0x278>)
 8006332:	681b      	ldr	r3, [r3, #0]
 8006334:	f003 0304 	and.w	r3, r3, #4
 8006338:	2b00      	cmp	r3, #0
 800633a:	d0f0      	beq.n	800631e <HAL_RCC_OscConfig+0x1ee>
 800633c:	4b1a      	ldr	r3, [pc, #104]	@ (80063a8 <HAL_RCC_OscConfig+0x278>)
 800633e:	685b      	ldr	r3, [r3, #4]
 8006340:	f023 42fe 	bic.w	r2, r3, #2130706432	@ 0x7f000000
 8006344:	687b      	ldr	r3, [r7, #4]
 8006346:	691b      	ldr	r3, [r3, #16]
 8006348:	061b      	lsls	r3, r3, #24
 800634a:	4917      	ldr	r1, [pc, #92]	@ (80063a8 <HAL_RCC_OscConfig+0x278>)
 800634c:	4313      	orrs	r3, r2
 800634e:	604b      	str	r3, [r1, #4]
 8006350:	e045      	b.n	80063de <HAL_RCC_OscConfig+0x2ae>
 8006352:	687b      	ldr	r3, [r7, #4]
 8006354:	68db      	ldr	r3, [r3, #12]
 8006356:	2b00      	cmp	r3, #0
 8006358:	d028      	beq.n	80063ac <HAL_RCC_OscConfig+0x27c>
 800635a:	4b13      	ldr	r3, [pc, #76]	@ (80063a8 <HAL_RCC_OscConfig+0x278>)
 800635c:	681b      	ldr	r3, [r3, #0]
 800635e:	f023 0219 	bic.w	r2, r3, #25
 8006362:	687b      	ldr	r3, [r7, #4]
 8006364:	68db      	ldr	r3, [r3, #12]
 8006366:	4910      	ldr	r1, [pc, #64]	@ (80063a8 <HAL_RCC_OscConfig+0x278>)
 8006368:	4313      	orrs	r3, r2
 800636a:	600b      	str	r3, [r1, #0]
 800636c:	f7fa ff54 	bl	8001218 <HAL_GetTick>
 8006370:	6278      	str	r0, [r7, #36]	@ 0x24
 8006372:	e008      	b.n	8006386 <HAL_RCC_OscConfig+0x256>
 8006374:	f7fa ff50 	bl	8001218 <HAL_GetTick>
 8006378:	4602      	mov	r2, r0
 800637a:	6a7b      	ldr	r3, [r7, #36]	@ 0x24
 800637c:	1ad3      	subs	r3, r2, r3
 800637e:	2b02      	cmp	r3, #2
 8006380:	d901      	bls.n	8006386 <HAL_RCC_OscConfig+0x256>
 8006382:	2303      	movs	r3, #3
 8006384:	e2fd      	b.n	8006982 <HAL_RCC_OscConfig+0x852>
 8006386:	4b08      	ldr	r3, [pc, #32]	@ (80063a8 <HAL_RCC_OscConfig+0x278>)
 8006388:	681b      	ldr	r3, [r3, #0]
 800638a:	f003 0304 	and.w	r3, r3, #4
 800638e:	2b00      	cmp	r3, #0
 8006390:	d0f0      	beq.n	8006374 <HAL_RCC_OscConfig+0x244>
 8006392:	4b05      	ldr	r3, [pc, #20]	@ (80063a8 <HAL_RCC_OscConfig+0x278>)
 8006394:	685b      	ldr	r3, [r3, #4]
 8006396:	f023 42fe 	bic.w	r2, r3, #2130706432	@ 0x7f000000
 800639a:	687b      	ldr	r3, [r7, #4]
 800639c:	691b      	ldr	r3, [r3, #16]
 800639e:	061b      	lsls	r3, r3, #24
 80063a0:	4901      	ldr	r1, [pc, #4]	@ (80063a8 <HAL_RCC_OscConfig+0x278>)
 80063a2:	4313      	orrs	r3, r2
 80063a4:	604b      	str	r3, [r1, #4]
 80063a6:	e01a      	b.n	80063de <HAL_RCC_OscConfig+0x2ae>
 80063a8:	58024400 	.word	0x58024400
 80063ac:	4b97      	ldr	r3, [pc, #604]	@ (800660c <HAL_RCC_OscConfig+0x4dc>)
 80063ae:	681b      	ldr	r3, [r3, #0]
 80063b0:	4a96      	ldr	r2, [pc, #600]	@ (800660c <HAL_RCC_OscConfig+0x4dc>)
 80063b2:	f023 0301 	bic.w	r3, r3, #1
 80063b6:	6013      	str	r3, [r2, #0]
 80063b8:	f7fa ff2e 	bl	8001218 <HAL_GetTick>
 80063bc:	6278      	str	r0, [r7, #36]	@ 0x24
 80063be:	e008      	b.n	80063d2 <HAL_RCC_OscConfig+0x2a2>
 80063c0:	f7fa ff2a 	bl	8001218 <HAL_GetTick>
 80063c4:	4602      	mov	r2, r0
 80063c6:	6a7b      	ldr	r3, [r7, #36]	@ 0x24
 80063c8:	1ad3      	subs	r3, r2, r3
 80063ca:	2b02      	cmp	r3, #2
 80063cc:	d901      	bls.n	80063d2 <HAL_RCC_OscConfig+0x2a2>
 80063ce:	2303      	movs	r3, #3
 80063d0:	e2d7      	b.n	8006982 <HAL_RCC_OscConfig+0x852>
 80063d2:	4b8e      	ldr	r3, [pc, #568]	@ (800660c <HAL_RCC_OscConfig+0x4dc>)
 80063d4:	681b      	ldr	r3, [r3, #0]
 80063d6:	f003 0304 	and.w	r3, r3, #4
 80063da:	2b00      	cmp	r3, #0
 80063dc:	d1f0      	bne.n	80063c0 <HAL_RCC_OscConfig+0x290>
 80063de:	687b      	ldr	r3, [r7, #4]
 80063e0:	681b      	ldr	r3, [r3, #0]
 80063e2:	f003 0310 	and.w	r3, r3, #16
 80063e6:	2b00      	cmp	r3, #0
 80063e8:	d06a      	beq.n	80064c0 <HAL_RCC_OscConfig+0x390>
 80063ea:	4b88      	ldr	r3, [pc, #544]	@ (800660c <HAL_RCC_OscConfig+0x4dc>)
 80063ec:	691b      	ldr	r3, [r3, #16]
 80063ee:	f003 0338 	and.w	r3, r3, #56	@ 0x38
 80063f2:	61bb      	str	r3, [r7, #24]
 80063f4:	4b85      	ldr	r3, [pc, #532]	@ (800660c <HAL_RCC_OscConfig+0x4dc>)
 80063f6:	6a9b      	ldr	r3, [r3, #40]	@ 0x28
 80063f8:	617b      	str	r3, [r7, #20]
 80063fa:	69bb      	ldr	r3, [r7, #24]
 80063fc:	2b08      	cmp	r3, #8
 80063fe:	d007      	beq.n	8006410 <HAL_RCC_OscConfig+0x2e0>
 8006400:	69bb      	ldr	r3, [r7, #24]
 8006402:	2b18      	cmp	r3, #24
 8006404:	d11b      	bne.n	800643e <HAL_RCC_OscConfig+0x30e>
 8006406:	697b      	ldr	r3, [r7, #20]
 8006408:	f003 0303 	and.w	r3, r3, #3
 800640c:	2b01      	cmp	r3, #1
 800640e:	d116      	bne.n	800643e <HAL_RCC_OscConfig+0x30e>
 8006410:	4b7e      	ldr	r3, [pc, #504]	@ (800660c <HAL_RCC_OscConfig+0x4dc>)
 8006412:	681b      	ldr	r3, [r3, #0]
 8006414:	f403 7380 	and.w	r3, r3, #256	@ 0x100
 8006418:	2b00      	cmp	r3, #0
 800641a:	d005      	beq.n	8006428 <HAL_RCC_OscConfig+0x2f8>
 800641c:	687b      	ldr	r3, [r7, #4]
 800641e:	69db      	ldr	r3, [r3, #28]
 8006420:	2b80      	cmp	r3, #128	@ 0x80
 8006422:	d001      	beq.n	8006428 <HAL_RCC_OscConfig+0x2f8>
 8006424:	2301      	movs	r3, #1
 8006426:	e2ac      	b.n	8006982 <HAL_RCC_OscConfig+0x852>
 8006428:	4b78      	ldr	r3, [pc, #480]	@ (800660c <HAL_RCC_OscConfig+0x4dc>)
 800642a:	68db      	ldr	r3, [r3, #12]
 800642c:	f023 527c 	bic.w	r2, r3, #1056964608	@ 0x3f000000
 8006430:	687b      	ldr	r3, [r7, #4]
 8006432:	6a1b      	ldr	r3, [r3, #32]
 8006434:	061b      	lsls	r3, r3, #24
 8006436:	4975      	ldr	r1, [pc, #468]	@ (800660c <HAL_RCC_OscConfig+0x4dc>)
 8006438:	4313      	orrs	r3, r2
 800643a:	60cb      	str	r3, [r1, #12]
 800643c:	e040      	b.n	80064c0 <HAL_RCC_OscConfig+0x390>
 800643e:	687b      	ldr	r3, [r7, #4]
 8006440:	69db      	ldr	r3, [r3, #28]
 8006442:	2b00      	cmp	r3, #0
 8006444:	d023      	beq.n	800648e <HAL_RCC_OscConfig+0x35e>
 8006446:	4b71      	ldr	r3, [pc, #452]	@ (800660c <HAL_RCC_OscConfig+0x4dc>)
 8006448:	681b      	ldr	r3, [r3, #0]
 800644a:	4a70      	ldr	r2, [pc, #448]	@ (800660c <HAL_RCC_OscConfig+0x4dc>)
 800644c:	f043 0380 	orr.w	r3, r3, #128	@ 0x80
 8006450:	6013      	str	r3, [r2, #0]
 8006452:	f7fa fee1 	bl	8001218 <HAL_GetTick>
 8006456:	6278      	str	r0, [r7, #36]	@ 0x24
 8006458:	e008      	b.n	800646c <HAL_RCC_OscConfig+0x33c>
 800645a:	f7fa fedd 	bl	8001218 <HAL_GetTick>
 800645e:	4602      	mov	r2, r0
 8006460:	6a7b      	ldr	r3, [r7, #36]	@ 0x24
 8006462:	1ad3      	subs	r3, r2, r3
 8006464:	2b02      	cmp	r3, #2
 8006466:	d901      	bls.n	800646c <HAL_RCC_OscConfig+0x33c>
 8006468:	2303      	movs	r3, #3
 800646a:	e28a      	b.n	8006982 <HAL_RCC_OscConfig+0x852>
 800646c:	4b67      	ldr	r3, [pc, #412]	@ (800660c <HAL_RCC_OscConfig+0x4dc>)
 800646e:	681b      	ldr	r3, [r3, #0]
 8006470:	f403 7380 	and.w	r3, r3, #256	@ 0x100
 8006474:	2b00      	cmp	r3, #0
 8006476:	d0f0      	beq.n	800645a <HAL_RCC_OscConfig+0x32a>
 8006478:	4b64      	ldr	r3, [pc, #400]	@ (800660c <HAL_RCC_OscConfig+0x4dc>)
 800647a:	68db      	ldr	r3, [r3, #12]
 800647c:	f023 527c 	bic.w	r2, r3, #1056964608	@ 0x3f000000
 8006480:	687b      	ldr	r3, [r7, #4]
 8006482:	6a1b      	ldr	r3, [r3, #32]
 8006484:	061b      	lsls	r3, r3, #24
 8006486:	4961      	ldr	r1, [pc, #388]	@ (800660c <HAL_RCC_OscConfig+0x4dc>)
 8006488:	4313      	orrs	r3, r2
 800648a:	60cb      	str	r3, [r1, #12]
 800648c:	e018      	b.n	80064c0 <HAL_RCC_OscConfig+0x390>
 800648e:	4b5f      	ldr	r3, [pc, #380]	@ (800660c <HAL_RCC_OscConfig+0x4dc>)
 8006490:	681b      	ldr	r3, [r3, #0]
 8006492:	4a5e      	ldr	r2, [pc, #376]	@ (800660c <HAL_RCC_OscConfig+0x4dc>)
 8006494:	f023 0380 	bic.w	r3, r3, #128	@ 0x80
 8006498:	6013      	str	r3, [r2, #0]
 800649a:	f7fa febd 	bl	8001218 <HAL_GetTick>
 800649e:	6278      	str	r0, [r7, #36]	@ 0x24
 80064a0:	e008      	b.n	80064b4 <HAL_RCC_OscConfig+0x384>
 80064a2:	f7fa feb9 	bl	8001218 <HAL_GetTick>
 80064a6:	4602      	mov	r2, r0
 80064a8:	6a7b      	ldr	r3, [r7, #36]	@ 0x24
 80064aa:	1ad3      	subs	r3, r2, r3
 80064ac:	2b02      	cmp	r3, #2
 80064ae:	d901      	bls.n	80064b4 <HAL_RCC_OscConfig+0x384>
 80064b0:	2303      	movs	r3, #3
 80064b2:	e266      	b.n	8006982 <HAL_RCC_OscConfig+0x852>
 80064b4:	4b55      	ldr	r3, [pc, #340]	@ (800660c <HAL_RCC_OscConfig+0x4dc>)
 80064b6:	681b      	ldr	r3, [r3, #0]
 80064b8:	f403 7380 	and.w	r3, r3, #256	@ 0x100
 80064bc:	2b00      	cmp	r3, #0
 80064be:	d1f0      	bne.n	80064a2 <HAL_RCC_OscConfig+0x372>
 80064c0:	687b      	ldr	r3, [r7, #4]
 80064c2:	681b      	ldr	r3, [r3, #0]
 80064c4:	f003 0308 	and.w	r3, r3, #8
 80064c8:	2b00      	cmp	r3, #0
 80064ca:	d036      	beq.n	800653a <HAL_RCC_OscConfig+0x40a>
 80064cc:	687b      	ldr	r3, [r7, #4]
 80064ce:	695b      	ldr	r3, [r3, #20]
 80064d0:	2b00      	cmp	r3, #0
 80064d2:	d019      	beq.n	8006508 <HAL_RCC_OscConfig+0x3d8>
 80064d4:	4b4d      	ldr	r3, [pc, #308]	@ (800660c <HAL_RCC_OscConfig+0x4dc>)
 80064d6:	6f5b      	ldr	r3, [r3, #116]	@ 0x74
 80064d8:	4a4c      	ldr	r2, [pc, #304]	@ (800660c <HAL_RCC_OscConfig+0x4dc>)
 80064da:	f043 0301 	orr.w	r3, r3, #1
 80064de:	6753      	str	r3, [r2, #116]	@ 0x74
 80064e0:	f7fa fe9a 	bl	8001218 <HAL_GetTick>
 80064e4:	6278      	str	r0, [r7, #36]	@ 0x24
 80064e6:	e008      	b.n	80064fa <HAL_RCC_OscConfig+0x3ca>
 80064e8:	f7fa fe96 	bl	8001218 <HAL_GetTick>
 80064ec:	4602      	mov	r2, r0
 80064ee:	6a7b      	ldr	r3, [r7, #36]	@ 0x24
 80064f0:	1ad3      	subs	r3, r2, r3
 80064f2:	2b02      	cmp	r3, #2
 80064f4:	d901      	bls.n	80064fa <HAL_RCC_OscConfig+0x3ca>
 80064f6:	2303      	movs	r3, #3
 80064f8:	e243      	b.n	8006982 <HAL_RCC_OscConfig+0x852>
 80064fa:	4b44      	ldr	r3, [pc, #272]	@ (800660c <HAL_RCC_OscConfig+0x4dc>)
 80064fc:	6f5b      	ldr	r3, [r3, #116]	@ 0x74
 80064fe:	f003 0302 	and.w	r3, r3, #2
 8006502:	2b00      	cmp	r3, #0
 8006504:	d0f0      	beq.n	80064e8 <HAL_RCC_OscConfig+0x3b8>
 8006506:	e018      	b.n	800653a <HAL_RCC_OscConfig+0x40a>
 8006508:	4b40      	ldr	r3, [pc, #256]	@ (800660c <HAL_RCC_OscConfig+0x4dc>)
 800650a:	6f5b      	ldr	r3, [r3, #116]	@ 0x74
 800650c:	4a3f      	ldr	r2, [pc, #252]	@ (800660c <HAL_RCC_OscConfig+0x4dc>)
 800650e:	f023 0301 	bic.w	r3, r3, #1
 8006512:	6753      	str	r3, [r2, #116]	@ 0x74
 8006514:	f7fa fe80 	bl	8001218 <HAL_GetTick>
 8006518:	6278      	str	r0, [r7, #36]	@ 0x24
 800651a:	e008      	b.n	800652e <HAL_RCC_OscConfig+0x3fe>
 800651c:	f7fa fe7c 	bl	8001218 <HAL_GetTick>
 8006520:	4602      	mov	r2, r0
 8006522:	6a7b      	ldr	r3, [r7, #36]	@ 0x24
 8006524:	1ad3      	subs	r3, r2, r3
 8006526:	2b02      	cmp	r3, #2
 8006528:	d901      	bls.n	800652e <HAL_RCC_OscConfig+0x3fe>
 800652a:	2303      	movs	r3, #3
 800652c:	e229      	b.n	8006982 <HAL_RCC_OscConfig+0x852>
 800652e:	4b37      	ldr	r3, [pc, #220]	@ (800660c <HAL_RCC_OscConfig+0x4dc>)
 8006530:	6f5b      	ldr	r3, [r3, #116]	@ 0x74
 8006532:	f003 0302 	and.w	r3, r3, #2
 8006536:	2b00      	cmp	r3, #0
 8006538:	d1f0      	bne.n	800651c <HAL_RCC_OscConfig+0x3ec>
 800653a:	687b      	ldr	r3, [r7, #4]
 800653c:	681b      	ldr	r3, [r3, #0]
 800653e:	f003 0320 	and.w	r3, r3, #32
 8006542:	2b00      	cmp	r3, #0
 8006544:	d036      	beq.n	80065b4 <HAL_RCC_OscConfig+0x484>
 8006546:	687b      	ldr	r3, [r7, #4]
 8006548:	699b      	ldr	r3, [r3, #24]
 800654a:	2b00      	cmp	r3, #0
 800654c:	d019      	beq.n	8006582 <HAL_RCC_OscConfig+0x452>
 800654e:	4b2f      	ldr	r3, [pc, #188]	@ (800660c <HAL_RCC_OscConfig+0x4dc>)
 8006550:	681b      	ldr	r3, [r3, #0]
 8006552:	4a2e      	ldr	r2, [pc, #184]	@ (800660c <HAL_RCC_OscConfig+0x4dc>)
 8006554:	f443 5380 	orr.w	r3, r3, #4096	@ 0x1000
 8006558:	6013      	str	r3, [r2, #0]
 800655a:	f7fa fe5d 	bl	8001218 <HAL_GetTick>
 800655e:	6278      	str	r0, [r7, #36]	@ 0x24
 8006560:	e008      	b.n	8006574 <HAL_RCC_OscConfig+0x444>
 8006562:	f7fa fe59 	bl	8001218 <HAL_GetTick>
 8006566:	4602      	mov	r2, r0
 8006568:	6a7b      	ldr	r3, [r7, #36]	@ 0x24
 800656a:	1ad3      	subs	r3, r2, r3
 800656c:	2b02      	cmp	r3, #2
 800656e:	d901      	bls.n	8006574 <HAL_RCC_OscConfig+0x444>
 8006570:	2303      	movs	r3, #3
 8006572:	e206      	b.n	8006982 <HAL_RCC_OscConfig+0x852>
 8006574:	4b25      	ldr	r3, [pc, #148]	@ (800660c <HAL_RCC_OscConfig+0x4dc>)
 8006576:	681b      	ldr	r3, [r3, #0]
 8006578:	f403 5300 	and.w	r3, r3, #8192	@ 0x2000
 800657c:	2b00      	cmp	r3, #0
 800657e:	d0f0      	beq.n	8006562 <HAL_RCC_OscConfig+0x432>
 8006580:	e018      	b.n	80065b4 <HAL_RCC_OscConfig+0x484>
 8006582:	4b22      	ldr	r3, [pc, #136]	@ (800660c <HAL_RCC_OscConfig+0x4dc>)
 8006584:	681b      	ldr	r3, [r3, #0]
 8006586:	4a21      	ldr	r2, [pc, #132]	@ (800660c <HAL_RCC_OscConfig+0x4dc>)
 8006588:	f423 5380 	bic.w	r3, r3, #4096	@ 0x1000
 800658c:	6013      	str	r3, [r2, #0]
 800658e:	f7fa fe43 	bl	8001218 <HAL_GetTick>
 8006592:	6278      	str	r0, [r7, #36]	@ 0x24
 8006594:	e008      	b.n	80065a8 <HAL_RCC_OscConfig+0x478>
 8006596:	f7fa fe3f 	bl	8001218 <HAL_GetTick>
 800659a:	4602      	mov	r2, r0
 800659c:	6a7b      	ldr	r3, [r7, #36]	@ 0x24
 800659e:	1ad3      	subs	r3, r2, r3
 80065a0:	2b02      	cmp	r3, #2
 80065a2:	d901      	bls.n	80065a8 <HAL_RCC_OscConfig+0x478>
 80065a4:	2303      	movs	r3, #3
 80065a6:	e1ec      	b.n	8006982 <HAL_RCC_OscConfig+0x852>
 80065a8:	4b18      	ldr	r3, [pc, #96]	@ (800660c <HAL_RCC_OscConfig+0x4dc>)
 80065aa:	681b      	ldr	r3, [r3, #0]
 80065ac:	f403 5300 	and.w	r3, r3, #8192	@ 0x2000
 80065b0:	2b00      	cmp	r3, #0
 80065b2:	d1f0      	bne.n	8006596 <HAL_RCC_OscConfig+0x466>
 80065b4:	687b      	ldr	r3, [r7, #4]
 80065b6:	681b      	ldr	r3, [r3, #0]
 80065b8:	f003 0304 	and.w	r3, r3, #4
 80065bc:	2b00      	cmp	r3, #0
 80065be:	f000 80af 	beq.w	8006720 <HAL_RCC_OscConfig+0x5f0>
 80065c2:	4b13      	ldr	r3, [pc, #76]	@ (8006610 <HAL_RCC_OscConfig+0x4e0>)
 80065c4:	681b      	ldr	r3, [r3, #0]
 80065c6:	4a12      	ldr	r2, [pc, #72]	@ (8006610 <HAL_RCC_OscConfig+0x4e0>)
 80065c8:	f443 7380 	orr.w	r3, r3, #256	@ 0x100
 80065cc:	6013      	str	r3, [r2, #0]
 80065ce:	f7fa fe23 	bl	8001218 <HAL_GetTick>
 80065d2:	6278      	str	r0, [r7, #36]	@ 0x24
 80065d4:	e008      	b.n	80065e8 <HAL_RCC_OscConfig+0x4b8>
 80065d6:	f7fa fe1f 	bl	8001218 <HAL_GetTick>
 80065da:	4602      	mov	r2, r0
 80065dc:	6a7b      	ldr	r3, [r7, #36]	@ 0x24
 80065de:	1ad3      	subs	r3, r2, r3
 80065e0:	2b64      	cmp	r3, #100	@ 0x64
 80065e2:	d901      	bls.n	80065e8 <HAL_RCC_OscConfig+0x4b8>
 80065e4:	2303      	movs	r3, #3
 80065e6:	e1cc      	b.n	8006982 <HAL_RCC_OscConfig+0x852>
 80065e8:	4b09      	ldr	r3, [pc, #36]	@ (8006610 <HAL_RCC_OscConfig+0x4e0>)
 80065ea:	681b      	ldr	r3, [r3, #0]
 80065ec:	f403 7380 	and.w	r3, r3, #256	@ 0x100
 80065f0:	2b00      	cmp	r3, #0
 80065f2:	d0f0      	beq.n	80065d6 <HAL_RCC_OscConfig+0x4a6>
 80065f4:	687b      	ldr	r3, [r7, #4]
 80065f6:	689b      	ldr	r3, [r3, #8]
 80065f8:	2b01      	cmp	r3, #1
 80065fa:	d10b      	bne.n	8006614 <HAL_RCC_OscConfig+0x4e4>
 80065fc:	4b03      	ldr	r3, [pc, #12]	@ (800660c <HAL_RCC_OscConfig+0x4dc>)
 80065fe:	6f1b      	ldr	r3, [r3, #112]	@ 0x70
 8006600:	4a02      	ldr	r2, [pc, #8]	@ (800660c <HAL_RCC_OscConfig+0x4dc>)
 8006602:	f043 0301 	orr.w	r3, r3, #1
 8006606:	6713      	str	r3, [r2, #112]	@ 0x70
 8006608:	e05b      	b.n	80066c2 <HAL_RCC_OscConfig+0x592>
 800660a:	bf00      	nop
 800660c:	58024400 	.word	0x58024400
 8006610:	58024800 	.word	0x58024800
 8006614:	687b      	ldr	r3, [r7, #4]
 8006616:	689b      	ldr	r3, [r3, #8]
 8006618:	2b00      	cmp	r3, #0
 800661a:	d112      	bne.n	8006642 <HAL_RCC_OscConfig+0x512>
 800661c:	4b9d      	ldr	r3, [pc, #628]	@ (8006894 <HAL_RCC_OscConfig+0x764>)
 800661e:	6f1b      	ldr	r3, [r3, #112]	@ 0x70
 8006620:	4a9c      	ldr	r2, [pc, #624]	@ (8006894 <HAL_RCC_OscConfig+0x764>)
 8006622:	f023 0301 	bic.w	r3, r3, #1
 8006626:	6713      	str	r3, [r2, #112]	@ 0x70
 8006628:	4b9a      	ldr	r3, [pc, #616]	@ (8006894 <HAL_RCC_OscConfig+0x764>)
 800662a:	6f1b      	ldr	r3, [r3, #112]	@ 0x70
 800662c:	4a99      	ldr	r2, [pc, #612]	@ (8006894 <HAL_RCC_OscConfig+0x764>)
 800662e:	f023 0380 	bic.w	r3, r3, #128	@ 0x80
 8006632:	6713      	str	r3, [r2, #112]	@ 0x70
 8006634:	4b97      	ldr	r3, [pc, #604]	@ (8006894 <HAL_RCC_OscConfig+0x764>)
 8006636:	6f1b      	ldr	r3, [r3, #112]	@ 0x70
 8006638:	4a96      	ldr	r2, [pc, #600]	@ (8006894 <HAL_RCC_OscConfig+0x764>)
 800663a:	f023 0304 	bic.w	r3, r3, #4
 800663e:	6713      	str	r3, [r2, #112]	@ 0x70
 8006640:	e03f      	b.n	80066c2 <HAL_RCC_OscConfig+0x592>
 8006642:	687b      	ldr	r3, [r7, #4]
 8006644:	689b      	ldr	r3, [r3, #8]
 8006646:	2b05      	cmp	r3, #5
 8006648:	d112      	bne.n	8006670 <HAL_RCC_OscConfig+0x540>
 800664a:	4b92      	ldr	r3, [pc, #584]	@ (8006894 <HAL_RCC_OscConfig+0x764>)
 800664c:	6f1b      	ldr	r3, [r3, #112]	@ 0x70
 800664e:	4a91      	ldr	r2, [pc, #580]	@ (8006894 <HAL_RCC_OscConfig+0x764>)
 8006650:	f043 0304 	orr.w	r3, r3, #4
 8006654:	6713      	str	r3, [r2, #112]	@ 0x70
 8006656:	4b8f      	ldr	r3, [pc, #572]	@ (8006894 <HAL_RCC_OscConfig+0x764>)
 8006658:	6f1b      	ldr	r3, [r3, #112]	@ 0x70
 800665a:	4a8e      	ldr	r2, [pc, #568]	@ (8006894 <HAL_RCC_OscConfig+0x764>)
 800665c:	f023 0380 	bic.w	r3, r3, #128	@ 0x80
 8006660:	6713      	str	r3, [r2, #112]	@ 0x70
 8006662:	4b8c      	ldr	r3, [pc, #560]	@ (8006894 <HAL_RCC_OscConfig+0x764>)
 8006664:	6f1b      	ldr	r3, [r3, #112]	@ 0x70
 8006666:	4a8b      	ldr	r2, [pc, #556]	@ (8006894 <HAL_RCC_OscConfig+0x764>)
 8006668:	f043 0301 	orr.w	r3, r3, #1
 800666c:	6713      	str	r3, [r2, #112]	@ 0x70
 800666e:	e028      	b.n	80066c2 <HAL_RCC_OscConfig+0x592>
 8006670:	687b      	ldr	r3, [r7, #4]
 8006672:	689b      	ldr	r3, [r3, #8]
 8006674:	2b85      	cmp	r3, #133	@ 0x85
 8006676:	d112      	bne.n	800669e <HAL_RCC_OscConfig+0x56e>
 8006678:	4b86      	ldr	r3, [pc, #536]	@ (8006894 <HAL_RCC_OscConfig+0x764>)
 800667a:	6f1b      	ldr	r3, [r3, #112]	@ 0x70
 800667c:	4a85      	ldr	r2, [pc, #532]	@ (8006894 <HAL_RCC_OscConfig+0x764>)
 800667e:	f043 0304 	orr.w	r3, r3, #4
 8006682:	6713      	str	r3, [r2, #112]	@ 0x70
 8006684:	4b83      	ldr	r3, [pc, #524]	@ (8006894 <HAL_RCC_OscConfig+0x764>)
 8006686:	6f1b      	ldr	r3, [r3, #112]	@ 0x70
 8006688:	4a82      	ldr	r2, [pc, #520]	@ (8006894 <HAL_RCC_OscConfig+0x764>)
 800668a:	f043 0380 	orr.w	r3, r3, #128	@ 0x80
 800668e:	6713      	str	r3, [r2, #112]	@ 0x70
 8006690:	4b80      	ldr	r3, [pc, #512]	@ (8006894 <HAL_RCC_OscConfig+0x764>)
 8006692:	6f1b      	ldr	r3, [r3, #112]	@ 0x70
 8006694:	4a7f      	ldr	r2, [pc, #508]	@ (8006894 <HAL_RCC_OscConfig+0x764>)
 8006696:	f043 0301 	orr.w	r3, r3, #1
 800669a:	6713      	str	r3, [r2, #112]	@ 0x70
 800669c:	e011      	b.n	80066c2 <HAL_RCC_OscConfig+0x592>
 800669e:	4b7d      	ldr	r3, [pc, #500]	@ (8006894 <HAL_RCC_OscConfig+0x764>)
 80066a0:	6f1b      	ldr	r3, [r3, #112]	@ 0x70
 80066a2:	4a7c      	ldr	r2, [pc, #496]	@ (8006894 <HAL_RCC_OscConfig+0x764>)
 80066a4:	f023 0301 	bic.w	r3, r3, #1
 80066a8:	6713      	str	r3, [r2, #112]	@ 0x70
 80066aa:	4b7a      	ldr	r3, [pc, #488]	@ (8006894 <HAL_RCC_OscConfig+0x764>)
 80066ac:	6f1b      	ldr	r3, [r3, #112]	@ 0x70
 80066ae:	4a79      	ldr	r2, [pc, #484]	@ (8006894 <HAL_RCC_OscConfig+0x764>)
 80066b0:	f023 0304 	bic.w	r3, r3, #4
 80066b4:	6713      	str	r3, [r2, #112]	@ 0x70
 80066b6:	4b77      	ldr	r3, [pc, #476]	@ (8006894 <HAL_RCC_OscConfig+0x764>)
 80066b8:	6f1b      	ldr	r3, [r3, #112]	@ 0x70
 80066ba:	4a76      	ldr	r2, [pc, #472]	@ (8006894 <HAL_RCC_OscConfig+0x764>)
 80066bc:	f023 0380 	bic.w	r3, r3, #128	@ 0x80
 80066c0:	6713      	str	r3, [r2, #112]	@ 0x70
 80066c2:	687b      	ldr	r3, [r7, #4]
 80066c4:	689b      	ldr	r3, [r3, #8]
 80066c6:	2b00      	cmp	r3, #0
 80066c8:	d015      	beq.n	80066f6 <HAL_RCC_OscConfig+0x5c6>
 80066ca:	f7fa fda5 	bl	8001218 <HAL_GetTick>
 80066ce:	6278      	str	r0, [r7, #36]	@ 0x24
 80066d0:	e00a      	b.n	80066e8 <HAL_RCC_OscConfig+0x5b8>
 80066d2:	f7fa fda1 	bl	8001218 <HAL_GetTick>
 80066d6:	4602      	mov	r2, r0
 80066d8:	6a7b      	ldr	r3, [r7, #36]	@ 0x24
 80066da:	1ad3      	subs	r3, r2, r3
 80066dc:	f241 3288 	movw	r2, #5000	@ 0x1388
 80066e0:	4293      	cmp	r3, r2
 80066e2:	d901      	bls.n	80066e8 <HAL_RCC_OscConfig+0x5b8>
 80066e4:	2303      	movs	r3, #3
 80066e6:	e14c      	b.n	8006982 <HAL_RCC_OscConfig+0x852>
 80066e8:	4b6a      	ldr	r3, [pc, #424]	@ (8006894 <HAL_RCC_OscConfig+0x764>)
 80066ea:	6f1b      	ldr	r3, [r3, #112]	@ 0x70
 80066ec:	f003 0302 	and.w	r3, r3, #2
 80066f0:	2b00      	cmp	r3, #0
 80066f2:	d0ee      	beq.n	80066d2 <HAL_RCC_OscConfig+0x5a2>
 80066f4:	e014      	b.n	8006720 <HAL_RCC_OscConfig+0x5f0>
 80066f6:	f7fa fd8f 	bl	8001218 <HAL_GetTick>
 80066fa:	6278      	str	r0, [r7, #36]	@ 0x24
 80066fc:	e00a      	b.n	8006714 <HAL_RCC_OscConfig+0x5e4>
 80066fe:	f7fa fd8b 	bl	8001218 <HAL_GetTick>
 8006702:	4602      	mov	r2, r0
 8006704:	6a7b      	ldr	r3, [r7, #36]	@ 0x24
 8006706:	1ad3      	subs	r3, r2, r3
 8006708:	f241 3288 	movw	r2, #5000	@ 0x1388
 800670c:	4293      	cmp	r3, r2
 800670e:	d901      	bls.n	8006714 <HAL_RCC_OscConfig+0x5e4>
 8006710:	2303      	movs	r3, #3
 8006712:	e136      	b.n	8006982 <HAL_RCC_OscConfig+0x852>
 8006714:	4b5f      	ldr	r3, [pc, #380]	@ (8006894 <HAL_RCC_OscConfig+0x764>)
 8006716:	6f1b      	ldr	r3, [r3, #112]	@ 0x70
 8006718:	f003 0302 	and.w	r3, r3, #2
 800671c:	2b00      	cmp	r3, #0
 800671e:	d1ee      	bne.n	80066fe <HAL_RCC_OscConfig+0x5ce>
 8006720:	687b      	ldr	r3, [r7, #4]
 8006722:	6a5b      	ldr	r3, [r3, #36]	@ 0x24
 8006724:	2b00      	cmp	r3, #0
 8006726:	f000 812b 	beq.w	8006980 <HAL_RCC_OscConfig+0x850>
 800672a:	4b5a      	ldr	r3, [pc, #360]	@ (8006894 <HAL_RCC_OscConfig+0x764>)
 800672c:	691b      	ldr	r3, [r3, #16]
 800672e:	f003 0338 	and.w	r3, r3, #56	@ 0x38
 8006732:	2b18      	cmp	r3, #24
 8006734:	f000 80bb 	beq.w	80068ae <HAL_RCC_OscConfig+0x77e>
 8006738:	687b      	ldr	r3, [r7, #4]
 800673a:	6a5b      	ldr	r3, [r3, #36]	@ 0x24
 800673c:	2b02      	cmp	r3, #2
 800673e:	f040 8095 	bne.w	800686c <HAL_RCC_OscConfig+0x73c>
 8006742:	4b54      	ldr	r3, [pc, #336]	@ (8006894 <HAL_RCC_OscConfig+0x764>)
 8006744:	681b      	ldr	r3, [r3, #0]
 8006746:	4a53      	ldr	r2, [pc, #332]	@ (8006894 <HAL_RCC_OscConfig+0x764>)
 8006748:	f023 7380 	bic.w	r3, r3, #16777216	@ 0x1000000
 800674c:	6013      	str	r3, [r2, #0]
 800674e:	f7fa fd63 	bl	8001218 <HAL_GetTick>
 8006752:	6278      	str	r0, [r7, #36]	@ 0x24
 8006754:	e008      	b.n	8006768 <HAL_RCC_OscConfig+0x638>
 8006756:	f7fa fd5f 	bl	8001218 <HAL_GetTick>
 800675a:	4602      	mov	r2, r0
 800675c:	6a7b      	ldr	r3, [r7, #36]	@ 0x24
 800675e:	1ad3      	subs	r3, r2, r3
 8006760:	2b02      	cmp	r3, #2
 8006762:	d901      	bls.n	8006768 <HAL_RCC_OscConfig+0x638>
 8006764:	2303      	movs	r3, #3
 8006766:	e10c      	b.n	8006982 <HAL_RCC_OscConfig+0x852>
 8006768:	4b4a      	ldr	r3, [pc, #296]	@ (8006894 <HAL_RCC_OscConfig+0x764>)
 800676a:	681b      	ldr	r3, [r3, #0]
 800676c:	f003 7300 	and.w	r3, r3, #33554432	@ 0x2000000
 8006770:	2b00      	cmp	r3, #0
 8006772:	d1f0      	bne.n	8006756 <HAL_RCC_OscConfig+0x626>
 8006774:	4b47      	ldr	r3, [pc, #284]	@ (8006894 <HAL_RCC_OscConfig+0x764>)
 8006776:	6a9a      	ldr	r2, [r3, #40]	@ 0x28
 8006778:	4b47      	ldr	r3, [pc, #284]	@ (8006898 <HAL_RCC_OscConfig+0x768>)
 800677a:	4013      	ands	r3, r2
 800677c:	687a      	ldr	r2, [r7, #4]
 800677e:	6a91      	ldr	r1, [r2, #40]	@ 0x28
 8006780:	687a      	ldr	r2, [r7, #4]
 8006782:	6ad2      	ldr	r2, [r2, #44]	@ 0x2c
 8006784:	0112      	lsls	r2, r2, #4
 8006786:	430a      	orrs	r2, r1
 8006788:	4942      	ldr	r1, [pc, #264]	@ (8006894 <HAL_RCC_OscConfig+0x764>)
 800678a:	4313      	orrs	r3, r2
 800678c:	628b      	str	r3, [r1, #40]	@ 0x28
 800678e:	687b      	ldr	r3, [r7, #4]
 8006790:	6b1b      	ldr	r3, [r3, #48]	@ 0x30
 8006792:	3b01      	subs	r3, #1
 8006794:	f3c3 0208 	ubfx	r2, r3, #0, #9
 8006798:	687b      	ldr	r3, [r7, #4]
 800679a:	6b5b      	ldr	r3, [r3, #52]	@ 0x34
 800679c:	3b01      	subs	r3, #1
 800679e:	025b      	lsls	r3, r3, #9
 80067a0:	b29b      	uxth	r3, r3
 80067a2:	431a      	orrs	r2, r3
 80067a4:	687b      	ldr	r3, [r7, #4]
 80067a6:	6b9b      	ldr	r3, [r3, #56]	@ 0x38
 80067a8:	3b01      	subs	r3, #1
 80067aa:	041b      	lsls	r3, r3, #16
 80067ac:	f403 03fe 	and.w	r3, r3, #8323072	@ 0x7f0000
 80067b0:	431a      	orrs	r2, r3
 80067b2:	687b      	ldr	r3, [r7, #4]
 80067b4:	6bdb      	ldr	r3, [r3, #60]	@ 0x3c
 80067b6:	3b01      	subs	r3, #1
 80067b8:	061b      	lsls	r3, r3, #24
 80067ba:	f003 43fe 	and.w	r3, r3, #2130706432	@ 0x7f000000
 80067be:	4935      	ldr	r1, [pc, #212]	@ (8006894 <HAL_RCC_OscConfig+0x764>)
 80067c0:	4313      	orrs	r3, r2
 80067c2:	630b      	str	r3, [r1, #48]	@ 0x30
 80067c4:	4b33      	ldr	r3, [pc, #204]	@ (8006894 <HAL_RCC_OscConfig+0x764>)
 80067c6:	6adb      	ldr	r3, [r3, #44]	@ 0x2c
 80067c8:	4a32      	ldr	r2, [pc, #200]	@ (8006894 <HAL_RCC_OscConfig+0x764>)
 80067ca:	f023 0301 	bic.w	r3, r3, #1
 80067ce:	62d3      	str	r3, [r2, #44]	@ 0x2c
 80067d0:	4b30      	ldr	r3, [pc, #192]	@ (8006894 <HAL_RCC_OscConfig+0x764>)
 80067d2:	6b5a      	ldr	r2, [r3, #52]	@ 0x34
 80067d4:	4b31      	ldr	r3, [pc, #196]	@ (800689c <HAL_RCC_OscConfig+0x76c>)
 80067d6:	4013      	ands	r3, r2
 80067d8:	687a      	ldr	r2, [r7, #4]
 80067da:	6c92      	ldr	r2, [r2, #72]	@ 0x48
 80067dc:	00d2      	lsls	r2, r2, #3
 80067de:	492d      	ldr	r1, [pc, #180]	@ (8006894 <HAL_RCC_OscConfig+0x764>)
 80067e0:	4313      	orrs	r3, r2
 80067e2:	634b      	str	r3, [r1, #52]	@ 0x34
 80067e4:	4b2b      	ldr	r3, [pc, #172]	@ (8006894 <HAL_RCC_OscConfig+0x764>)
 80067e6:	6adb      	ldr	r3, [r3, #44]	@ 0x2c
 80067e8:	f023 020c 	bic.w	r2, r3, #12
 80067ec:	687b      	ldr	r3, [r7, #4]
 80067ee:	6c1b      	ldr	r3, [r3, #64]	@ 0x40
 80067f0:	4928      	ldr	r1, [pc, #160]	@ (8006894 <HAL_RCC_OscConfig+0x764>)
 80067f2:	4313      	orrs	r3, r2
 80067f4:	62cb      	str	r3, [r1, #44]	@ 0x2c
 80067f6:	4b27      	ldr	r3, [pc, #156]	@ (8006894 <HAL_RCC_OscConfig+0x764>)
 80067f8:	6adb      	ldr	r3, [r3, #44]	@ 0x2c
 80067fa:	f023 0202 	bic.w	r2, r3, #2
 80067fe:	687b      	ldr	r3, [r7, #4]
 8006800:	6c5b      	ldr	r3, [r3, #68]	@ 0x44
 8006802:	4924      	ldr	r1, [pc, #144]	@ (8006894 <HAL_RCC_OscConfig+0x764>)
 8006804:	4313      	orrs	r3, r2
 8006806:	62cb      	str	r3, [r1, #44]	@ 0x2c
 8006808:	4b22      	ldr	r3, [pc, #136]	@ (8006894 <HAL_RCC_OscConfig+0x764>)
 800680a:	6adb      	ldr	r3, [r3, #44]	@ 0x2c
 800680c:	4a21      	ldr	r2, [pc, #132]	@ (8006894 <HAL_RCC_OscConfig+0x764>)
 800680e:	f443 3380 	orr.w	r3, r3, #65536	@ 0x10000
 8006812:	62d3      	str	r3, [r2, #44]	@ 0x2c
 8006814:	4b1f      	ldr	r3, [pc, #124]	@ (8006894 <HAL_RCC_OscConfig+0x764>)
 8006816:	6adb      	ldr	r3, [r3, #44]	@ 0x2c
 8006818:	4a1e      	ldr	r2, [pc, #120]	@ (8006894 <HAL_RCC_OscConfig+0x764>)
 800681a:	f443 3300 	orr.w	r3, r3, #131072	@ 0x20000
 800681e:	62d3      	str	r3, [r2, #44]	@ 0x2c
 8006820:	4b1c      	ldr	r3, [pc, #112]	@ (8006894 <HAL_RCC_OscConfig+0x764>)
 8006822:	6adb      	ldr	r3, [r3, #44]	@ 0x2c
 8006824:	4a1b      	ldr	r2, [pc, #108]	@ (8006894 <HAL_RCC_OscConfig+0x764>)
 8006826:	f443 2380 	orr.w	r3, r3, #262144	@ 0x40000
 800682a:	62d3      	str	r3, [r2, #44]	@ 0x2c
 800682c:	4b19      	ldr	r3, [pc, #100]	@ (8006894 <HAL_RCC_OscConfig+0x764>)
 800682e:	6adb      	ldr	r3, [r3, #44]	@ 0x2c
 8006830:	4a18      	ldr	r2, [pc, #96]	@ (8006894 <HAL_RCC_OscConfig+0x764>)
 8006832:	f043 0301 	orr.w	r3, r3, #1
 8006836:	62d3      	str	r3, [r2, #44]	@ 0x2c
 8006838:	4b16      	ldr	r3, [pc, #88]	@ (8006894 <HAL_RCC_OscConfig+0x764>)
 800683a:	681b      	ldr	r3, [r3, #0]
 800683c:	4a15      	ldr	r2, [pc, #84]	@ (8006894 <HAL_RCC_OscConfig+0x764>)
 800683e:	f043 7380 	orr.w	r3, r3, #16777216	@ 0x1000000
 8006842:	6013      	str	r3, [r2, #0]
 8006844:	f7fa fce8 	bl	8001218 <HAL_GetTick>
 8006848:	6278      	str	r0, [r7, #36]	@ 0x24
 800684a:	e008      	b.n	800685e <HAL_RCC_OscConfig+0x72e>
 800684c:	f7fa fce4 	bl	8001218 <HAL_GetTick>
 8006850:	4602      	mov	r2, r0
 8006852:	6a7b      	ldr	r3, [r7, #36]	@ 0x24
 8006854:	1ad3      	subs	r3, r2, r3
 8006856:	2b02      	cmp	r3, #2
 8006858:	d901      	bls.n	800685e <HAL_RCC_OscConfig+0x72e>
 800685a:	2303      	movs	r3, #3
 800685c:	e091      	b.n	8006982 <HAL_RCC_OscConfig+0x852>
 800685e:	4b0d      	ldr	r3, [pc, #52]	@ (8006894 <HAL_RCC_OscConfig+0x764>)
 8006860:	681b      	ldr	r3, [r3, #0]
 8006862:	f003 7300 	and.w	r3, r3, #33554432	@ 0x2000000
 8006866:	2b00      	cmp	r3, #0
 8006868:	d0f0      	beq.n	800684c <HAL_RCC_OscConfig+0x71c>
 800686a:	e089      	b.n	8006980 <HAL_RCC_OscConfig+0x850>
 800686c:	4b09      	ldr	r3, [pc, #36]	@ (8006894 <HAL_RCC_OscConfig+0x764>)
 800686e:	681b      	ldr	r3, [r3, #0]
 8006870:	4a08      	ldr	r2, [pc, #32]	@ (8006894 <HAL_RCC_OscConfig+0x764>)
 8006872:	f023 7380 	bic.w	r3, r3, #16777216	@ 0x1000000
 8006876:	6013      	str	r3, [r2, #0]
 8006878:	f7fa fcce 	bl	8001218 <HAL_GetTick>
 800687c:	6278      	str	r0, [r7, #36]	@ 0x24
 800687e:	e00f      	b.n	80068a0 <HAL_RCC_OscConfig+0x770>
 8006880:	f7fa fcca 	bl	8001218 <HAL_GetTick>
 8006884:	4602      	mov	r2, r0
 8006886:	6a7b      	ldr	r3, [r7, #36]	@ 0x24
 8006888:	1ad3      	subs	r3, r2, r3
 800688a:	2b02      	cmp	r3, #2
 800688c:	d908      	bls.n	80068a0 <HAL_RCC_OscConfig+0x770>
 800688e:	2303      	movs	r3, #3
 8006890:	e077      	b.n	8006982 <HAL_RCC_OscConfig+0x852>
 8006892:	bf00      	nop
 8006894:	58024400 	.word	0x58024400
 8006898:	fffffc0c 	.word	0xfffffc0c
 800689c:	ffff0007 	.word	0xffff0007
 80068a0:	4b3a      	ldr	r3, [pc, #232]	@ (800698c <HAL_RCC_OscConfig+0x85c>)
 80068a2:	681b      	ldr	r3, [r3, #0]
 80068a4:	f003 7300 	and.w	r3, r3, #33554432	@ 0x2000000
 80068a8:	2b00      	cmp	r3, #0
 80068aa:	d1e9      	bne.n	8006880 <HAL_RCC_OscConfig+0x750>
 80068ac:	e068      	b.n	8006980 <HAL_RCC_OscConfig+0x850>
 80068ae:	4b37      	ldr	r3, [pc, #220]	@ (800698c <HAL_RCC_OscConfig+0x85c>)
 80068b0:	6a9b      	ldr	r3, [r3, #40]	@ 0x28
 80068b2:	613b      	str	r3, [r7, #16]
 80068b4:	4b35      	ldr	r3, [pc, #212]	@ (800698c <HAL_RCC_OscConfig+0x85c>)
 80068b6:	6b1b      	ldr	r3, [r3, #48]	@ 0x30
 80068b8:	60fb      	str	r3, [r7, #12]
 80068ba:	687b      	ldr	r3, [r7, #4]
 80068bc:	6a5b      	ldr	r3, [r3, #36]	@ 0x24
 80068be:	2b01      	cmp	r3, #1
 80068c0:	d031      	beq.n	8006926 <HAL_RCC_OscConfig+0x7f6>
 80068c2:	693b      	ldr	r3, [r7, #16]
 80068c4:	f003 0203 	and.w	r2, r3, #3
 80068c8:	687b      	ldr	r3, [r7, #4]
 80068ca:	6a9b      	ldr	r3, [r3, #40]	@ 0x28
 80068cc:	429a      	cmp	r2, r3
 80068ce:	d12a      	bne.n	8006926 <HAL_RCC_OscConfig+0x7f6>
 80068d0:	693b      	ldr	r3, [r7, #16]
 80068d2:	091b      	lsrs	r3, r3, #4
 80068d4:	f003 023f 	and.w	r2, r3, #63	@ 0x3f
 80068d8:	687b      	ldr	r3, [r7, #4]
 80068da:	6adb      	ldr	r3, [r3, #44]	@ 0x2c
 80068dc:	429a      	cmp	r2, r3
 80068de:	d122      	bne.n	8006926 <HAL_RCC_OscConfig+0x7f6>
 80068e0:	68fb      	ldr	r3, [r7, #12]
 80068e2:	f3c3 0208 	ubfx	r2, r3, #0, #9
 80068e6:	687b      	ldr	r3, [r7, #4]
 80068e8:	6b1b      	ldr	r3, [r3, #48]	@ 0x30
 80068ea:	3b01      	subs	r3, #1
 80068ec:	429a      	cmp	r2, r3
 80068ee:	d11a      	bne.n	8006926 <HAL_RCC_OscConfig+0x7f6>
 80068f0:	68fb      	ldr	r3, [r7, #12]
 80068f2:	0a5b      	lsrs	r3, r3, #9
 80068f4:	f003 027f 	and.w	r2, r3, #127	@ 0x7f
 80068f8:	687b      	ldr	r3, [r7, #4]
 80068fa:	6b5b      	ldr	r3, [r3, #52]	@ 0x34
 80068fc:	3b01      	subs	r3, #1
 80068fe:	429a      	cmp	r2, r3
 8006900:	d111      	bne.n	8006926 <HAL_RCC_OscConfig+0x7f6>
 8006902:	68fb      	ldr	r3, [r7, #12]
 8006904:	0c1b      	lsrs	r3, r3, #16
 8006906:	f003 027f 	and.w	r2, r3, #127	@ 0x7f
 800690a:	687b      	ldr	r3, [r7, #4]
 800690c:	6b9b      	ldr	r3, [r3, #56]	@ 0x38
 800690e:	3b01      	subs	r3, #1
 8006910:	429a      	cmp	r2, r3
 8006912:	d108      	bne.n	8006926 <HAL_RCC_OscConfig+0x7f6>
 8006914:	68fb      	ldr	r3, [r7, #12]
 8006916:	0e1b      	lsrs	r3, r3, #24
 8006918:	f003 027f 	and.w	r2, r3, #127	@ 0x7f
 800691c:	687b      	ldr	r3, [r7, #4]
 800691e:	6bdb      	ldr	r3, [r3, #60]	@ 0x3c
 8006920:	3b01      	subs	r3, #1
 8006922:	429a      	cmp	r2, r3
 8006924:	d001      	beq.n	800692a <HAL_RCC_OscConfig+0x7fa>
 8006926:	2301      	movs	r3, #1
 8006928:	e02b      	b.n	8006982 <HAL_RCC_OscConfig+0x852>
 800692a:	4b18      	ldr	r3, [pc, #96]	@ (800698c <HAL_RCC_OscConfig+0x85c>)
 800692c:	6b5b      	ldr	r3, [r3, #52]	@ 0x34
 800692e:	08db      	lsrs	r3, r3, #3
 8006930:	f3c3 030c 	ubfx	r3, r3, #0, #13
 8006934:	613b      	str	r3, [r7, #16]
 8006936:	687b      	ldr	r3, [r7, #4]
 8006938:	6c9b      	ldr	r3, [r3, #72]	@ 0x48
 800693a:	693a      	ldr	r2, [r7, #16]
 800693c:	429a      	cmp	r2, r3
 800693e:	d01f      	beq.n	8006980 <HAL_RCC_OscConfig+0x850>
 8006940:	4b12      	ldr	r3, [pc, #72]	@ (800698c <HAL_RCC_OscConfig+0x85c>)
 8006942:	6adb      	ldr	r3, [r3, #44]	@ 0x2c
 8006944:	4a11      	ldr	r2, [pc, #68]	@ (800698c <HAL_RCC_OscConfig+0x85c>)
 8006946:	f023 0301 	bic.w	r3, r3, #1
 800694a:	62d3      	str	r3, [r2, #44]	@ 0x2c
 800694c:	f7fa fc64 	bl	8001218 <HAL_GetTick>
 8006950:	6278      	str	r0, [r7, #36]	@ 0x24
 8006952:	bf00      	nop
 8006954:	f7fa fc60 	bl	8001218 <HAL_GetTick>
 8006958:	4602      	mov	r2, r0
 800695a:	6a7b      	ldr	r3, [r7, #36]	@ 0x24
 800695c:	4293      	cmp	r3, r2
 800695e:	d0f9      	beq.n	8006954 <HAL_RCC_OscConfig+0x824>
 8006960:	4b0a      	ldr	r3, [pc, #40]	@ (800698c <HAL_RCC_OscConfig+0x85c>)
 8006962:	6b5a      	ldr	r2, [r3, #52]	@ 0x34
 8006964:	4b0a      	ldr	r3, [pc, #40]	@ (8006990 <HAL_RCC_OscConfig+0x860>)
 8006966:	4013      	ands	r3, r2
 8006968:	687a      	ldr	r2, [r7, #4]
 800696a:	6c92      	ldr	r2, [r2, #72]	@ 0x48
 800696c:	00d2      	lsls	r2, r2, #3
 800696e:	4907      	ldr	r1, [pc, #28]	@ (800698c <HAL_RCC_OscConfig+0x85c>)
 8006970:	4313      	orrs	r3, r2
 8006972:	634b      	str	r3, [r1, #52]	@ 0x34
 8006974:	4b05      	ldr	r3, [pc, #20]	@ (800698c <HAL_RCC_OscConfig+0x85c>)
 8006976:	6adb      	ldr	r3, [r3, #44]	@ 0x2c
 8006978:	4a04      	ldr	r2, [pc, #16]	@ (800698c <HAL_RCC_OscConfig+0x85c>)
 800697a:	f043 0301 	orr.w	r3, r3, #1
 800697e:	62d3      	str	r3, [r2, #44]	@ 0x2c
 8006980:	2300      	movs	r3, #0
 8006982:	4618      	mov	r0, r3
 8006984:	3730      	adds	r7, #48	@ 0x30
 8006986:	46bd      	mov	sp, r7
 8006988:	bd80      	pop	{r7, pc}
 800698a:	bf00      	nop
 800698c:	58024400 	.word	0x58024400
 8006990:	ffff0007 	.word	0xffff0007

08006994 <HAL_RCC_ClockConfig>:
 8006994:	b580      	push	{r7, lr}
 8006996:	b086      	sub	sp, #24
 8006998:	af00      	add	r7, sp, #0
 800699a:	6078      	str	r0, [r7, #4]
 800699c:	6039      	str	r1, [r7, #0]
 800699e:	687b      	ldr	r3, [r7, #4]
 80069a0:	2b00      	cmp	r3, #0
 80069a2:	d101      	bne.n	80069a8 <HAL_RCC_ClockConfig+0x14>
 80069a4:	2301      	movs	r3, #1
 80069a6:	e19c      	b.n	8006ce2 <HAL_RCC_ClockConfig+0x34e>
 80069a8:	4b8a      	ldr	r3, [pc, #552]	@ (8006bd4 <HAL_RCC_ClockConfig+0x240>)
 80069aa:	681b      	ldr	r3, [r3, #0]
 80069ac:	f003 030f 	and.w	r3, r3, #15
 80069b0:	683a      	ldr	r2, [r7, #0]
 80069b2:	429a      	cmp	r2, r3
 80069b4:	d910      	bls.n	80069d8 <HAL_RCC_ClockConfig+0x44>
 80069b6:	4b87      	ldr	r3, [pc, #540]	@ (8006bd4 <HAL_RCC_ClockConfig+0x240>)
 80069b8:	681b      	ldr	r3, [r3, #0]
 80069ba:	f023 020f 	bic.w	r2, r3, #15
 80069be:	4985      	ldr	r1, [pc, #532]	@ (8006bd4 <HAL_RCC_ClockConfig+0x240>)
 80069c0:	683b      	ldr	r3, [r7, #0]
 80069c2:	4313      	orrs	r3, r2
 80069c4:	600b      	str	r3, [r1, #0]
 80069c6:	4b83      	ldr	r3, [pc, #524]	@ (8006bd4 <HAL_RCC_ClockConfig+0x240>)
 80069c8:	681b      	ldr	r3, [r3, #0]
 80069ca:	f003 030f 	and.w	r3, r3, #15
 80069ce:	683a      	ldr	r2, [r7, #0]
 80069d0:	429a      	cmp	r2, r3
 80069d2:	d001      	beq.n	80069d8 <HAL_RCC_ClockConfig+0x44>
 80069d4:	2301      	movs	r3, #1
 80069d6:	e184      	b.n	8006ce2 <HAL_RCC_ClockConfig+0x34e>
 80069d8:	687b      	ldr	r3, [r7, #4]
 80069da:	681b      	ldr	r3, [r3, #0]
 80069dc:	f003 0304 	and.w	r3, r3, #4
 80069e0:	2b00      	cmp	r3, #0
 80069e2:	d010      	beq.n	8006a06 <HAL_RCC_ClockConfig+0x72>
 80069e4:	687b      	ldr	r3, [r7, #4]
 80069e6:	691a      	ldr	r2, [r3, #16]
 80069e8:	4b7b      	ldr	r3, [pc, #492]	@ (8006bd8 <HAL_RCC_ClockConfig+0x244>)
 80069ea:	699b      	ldr	r3, [r3, #24]
 80069ec:	f003 0370 	and.w	r3, r3, #112	@ 0x70
 80069f0:	429a      	cmp	r2, r3
 80069f2:	d908      	bls.n	8006a06 <HAL_RCC_ClockConfig+0x72>
 80069f4:	4b78      	ldr	r3, [pc, #480]	@ (8006bd8 <HAL_RCC_ClockConfig+0x244>)
 80069f6:	699b      	ldr	r3, [r3, #24]
 80069f8:	f023 0270 	bic.w	r2, r3, #112	@ 0x70
 80069fc:	687b      	ldr	r3, [r7, #4]
 80069fe:	691b      	ldr	r3, [r3, #16]
 8006a00:	4975      	ldr	r1, [pc, #468]	@ (8006bd8 <HAL_RCC_ClockConfig+0x244>)
 8006a02:	4313      	orrs	r3, r2
 8006a04:	618b      	str	r3, [r1, #24]
 8006a06:	687b      	ldr	r3, [r7, #4]
 8006a08:	681b      	ldr	r3, [r3, #0]
 8006a0a:	f003 0308 	and.w	r3, r3, #8
 8006a0e:	2b00      	cmp	r3, #0
 8006a10:	d010      	beq.n	8006a34 <HAL_RCC_ClockConfig+0xa0>
 8006a12:	687b      	ldr	r3, [r7, #4]
 8006a14:	695a      	ldr	r2, [r3, #20]
 8006a16:	4b70      	ldr	r3, [pc, #448]	@ (8006bd8 <HAL_RCC_ClockConfig+0x244>)
 8006a18:	69db      	ldr	r3, [r3, #28]
 8006a1a:	f003 0370 	and.w	r3, r3, #112	@ 0x70
 8006a1e:	429a      	cmp	r2, r3
 8006a20:	d908      	bls.n	8006a34 <HAL_RCC_ClockConfig+0xa0>
 8006a22:	4b6d      	ldr	r3, [pc, #436]	@ (8006bd8 <HAL_RCC_ClockConfig+0x244>)
 8006a24:	69db      	ldr	r3, [r3, #28]
 8006a26:	f023 0270 	bic.w	r2, r3, #112	@ 0x70
 8006a2a:	687b      	ldr	r3, [r7, #4]
 8006a2c:	695b      	ldr	r3, [r3, #20]
 8006a2e:	496a      	ldr	r1, [pc, #424]	@ (8006bd8 <HAL_RCC_ClockConfig+0x244>)
 8006a30:	4313      	orrs	r3, r2
 8006a32:	61cb      	str	r3, [r1, #28]
 8006a34:	687b      	ldr	r3, [r7, #4]
 8006a36:	681b      	ldr	r3, [r3, #0]
 8006a38:	f003 0310 	and.w	r3, r3, #16
 8006a3c:	2b00      	cmp	r3, #0
 8006a3e:	d010      	beq.n	8006a62 <HAL_RCC_ClockConfig+0xce>
 8006a40:	687b      	ldr	r3, [r7, #4]
 8006a42:	699a      	ldr	r2, [r3, #24]
 8006a44:	4b64      	ldr	r3, [pc, #400]	@ (8006bd8 <HAL_RCC_ClockConfig+0x244>)
 8006a46:	69db      	ldr	r3, [r3, #28]
 8006a48:	f403 63e0 	and.w	r3, r3, #1792	@ 0x700
 8006a4c:	429a      	cmp	r2, r3
 8006a4e:	d908      	bls.n	8006a62 <HAL_RCC_ClockConfig+0xce>
 8006a50:	4b61      	ldr	r3, [pc, #388]	@ (8006bd8 <HAL_RCC_ClockConfig+0x244>)
 8006a52:	69db      	ldr	r3, [r3, #28]
 8006a54:	f423 62e0 	bic.w	r2, r3, #1792	@ 0x700
 8006a58:	687b      	ldr	r3, [r7, #4]
 8006a5a:	699b      	ldr	r3, [r3, #24]
 8006a5c:	495e      	ldr	r1, [pc, #376]	@ (8006bd8 <HAL_RCC_ClockConfig+0x244>)
 8006a5e:	4313      	orrs	r3, r2
 8006a60:	61cb      	str	r3, [r1, #28]
 8006a62:	687b      	ldr	r3, [r7, #4]
 8006a64:	681b      	ldr	r3, [r3, #0]
 8006a66:	f003 0320 	and.w	r3, r3, #32
 8006a6a:	2b00      	cmp	r3, #0
 8006a6c:	d010      	beq.n	8006a90 <HAL_RCC_ClockConfig+0xfc>
 8006a6e:	687b      	ldr	r3, [r7, #4]
 8006a70:	69da      	ldr	r2, [r3, #28]
 8006a72:	4b59      	ldr	r3, [pc, #356]	@ (8006bd8 <HAL_RCC_ClockConfig+0x244>)
 8006a74:	6a1b      	ldr	r3, [r3, #32]
 8006a76:	f003 0370 	and.w	r3, r3, #112	@ 0x70
 8006a7a:	429a      	cmp	r2, r3
 8006a7c:	d908      	bls.n	8006a90 <HAL_RCC_ClockConfig+0xfc>
 8006a7e:	4b56      	ldr	r3, [pc, #344]	@ (8006bd8 <HAL_RCC_ClockConfig+0x244>)
 8006a80:	6a1b      	ldr	r3, [r3, #32]
 8006a82:	f023 0270 	bic.w	r2, r3, #112	@ 0x70
 8006a86:	687b      	ldr	r3, [r7, #4]
 8006a88:	69db      	ldr	r3, [r3, #28]
 8006a8a:	4953      	ldr	r1, [pc, #332]	@ (8006bd8 <HAL_RCC_ClockConfig+0x244>)
 8006a8c:	4313      	orrs	r3, r2
 8006a8e:	620b      	str	r3, [r1, #32]
 8006a90:	687b      	ldr	r3, [r7, #4]
 8006a92:	681b      	ldr	r3, [r3, #0]
 8006a94:	f003 0302 	and.w	r3, r3, #2
 8006a98:	2b00      	cmp	r3, #0
 8006a9a:	d010      	beq.n	8006abe <HAL_RCC_ClockConfig+0x12a>
 8006a9c:	687b      	ldr	r3, [r7, #4]
 8006a9e:	68da      	ldr	r2, [r3, #12]
 8006aa0:	4b4d      	ldr	r3, [pc, #308]	@ (8006bd8 <HAL_RCC_ClockConfig+0x244>)
 8006aa2:	699b      	ldr	r3, [r3, #24]
 8006aa4:	f003 030f 	and.w	r3, r3, #15
 8006aa8:	429a      	cmp	r2, r3
 8006aaa:	d908      	bls.n	8006abe <HAL_RCC_ClockConfig+0x12a>
 8006aac:	4b4a      	ldr	r3, [pc, #296]	@ (8006bd8 <HAL_RCC_ClockConfig+0x244>)
 8006aae:	699b      	ldr	r3, [r3, #24]
 8006ab0:	f023 020f 	bic.w	r2, r3, #15
 8006ab4:	687b      	ldr	r3, [r7, #4]
 8006ab6:	68db      	ldr	r3, [r3, #12]
 8006ab8:	4947      	ldr	r1, [pc, #284]	@ (8006bd8 <HAL_RCC_ClockConfig+0x244>)
 8006aba:	4313      	orrs	r3, r2
 8006abc:	618b      	str	r3, [r1, #24]
 8006abe:	687b      	ldr	r3, [r7, #4]
 8006ac0:	681b      	ldr	r3, [r3, #0]
 8006ac2:	f003 0301 	and.w	r3, r3, #1
 8006ac6:	2b00      	cmp	r3, #0
 8006ac8:	d055      	beq.n	8006b76 <HAL_RCC_ClockConfig+0x1e2>
 8006aca:	4b43      	ldr	r3, [pc, #268]	@ (8006bd8 <HAL_RCC_ClockConfig+0x244>)
 8006acc:	699b      	ldr	r3, [r3, #24]
 8006ace:	f423 6270 	bic.w	r2, r3, #3840	@ 0xf00
 8006ad2:	687b      	ldr	r3, [r7, #4]
 8006ad4:	689b      	ldr	r3, [r3, #8]
 8006ad6:	4940      	ldr	r1, [pc, #256]	@ (8006bd8 <HAL_RCC_ClockConfig+0x244>)
 8006ad8:	4313      	orrs	r3, r2
 8006ada:	618b      	str	r3, [r1, #24]
 8006adc:	687b      	ldr	r3, [r7, #4]
 8006ade:	685b      	ldr	r3, [r3, #4]
 8006ae0:	2b02      	cmp	r3, #2
 8006ae2:	d107      	bne.n	8006af4 <HAL_RCC_ClockConfig+0x160>
 8006ae4:	4b3c      	ldr	r3, [pc, #240]	@ (8006bd8 <HAL_RCC_ClockConfig+0x244>)
 8006ae6:	681b      	ldr	r3, [r3, #0]
 8006ae8:	f403 3300 	and.w	r3, r3, #131072	@ 0x20000
 8006aec:	2b00      	cmp	r3, #0
 8006aee:	d121      	bne.n	8006b34 <HAL_RCC_ClockConfig+0x1a0>
 8006af0:	2301      	movs	r3, #1
 8006af2:	e0f6      	b.n	8006ce2 <HAL_RCC_ClockConfig+0x34e>
 8006af4:	687b      	ldr	r3, [r7, #4]
 8006af6:	685b      	ldr	r3, [r3, #4]
 8006af8:	2b03      	cmp	r3, #3
 8006afa:	d107      	bne.n	8006b0c <HAL_RCC_ClockConfig+0x178>
 8006afc:	4b36      	ldr	r3, [pc, #216]	@ (8006bd8 <HAL_RCC_ClockConfig+0x244>)
 8006afe:	681b      	ldr	r3, [r3, #0]
 8006b00:	f003 7300 	and.w	r3, r3, #33554432	@ 0x2000000
 8006b04:	2b00      	cmp	r3, #0
 8006b06:	d115      	bne.n	8006b34 <HAL_RCC_ClockConfig+0x1a0>
 8006b08:	2301      	movs	r3, #1
 8006b0a:	e0ea      	b.n	8006ce2 <HAL_RCC_ClockConfig+0x34e>
 8006b0c:	687b      	ldr	r3, [r7, #4]
 8006b0e:	685b      	ldr	r3, [r3, #4]
 8006b10:	2b01      	cmp	r3, #1
 8006b12:	d107      	bne.n	8006b24 <HAL_RCC_ClockConfig+0x190>
 8006b14:	4b30      	ldr	r3, [pc, #192]	@ (8006bd8 <HAL_RCC_ClockConfig+0x244>)
 8006b16:	681b      	ldr	r3, [r3, #0]
 8006b18:	f403 7380 	and.w	r3, r3, #256	@ 0x100
 8006b1c:	2b00      	cmp	r3, #0
 8006b1e:	d109      	bne.n	8006b34 <HAL_RCC_ClockConfig+0x1a0>
 8006b20:	2301      	movs	r3, #1
 8006b22:	e0de      	b.n	8006ce2 <HAL_RCC_ClockConfig+0x34e>
 8006b24:	4b2c      	ldr	r3, [pc, #176]	@ (8006bd8 <HAL_RCC_ClockConfig+0x244>)
 8006b26:	681b      	ldr	r3, [r3, #0]
 8006b28:	f003 0304 	and.w	r3, r3, #4
 8006b2c:	2b00      	cmp	r3, #0
 8006b2e:	d101      	bne.n	8006b34 <HAL_RCC_ClockConfig+0x1a0>
 8006b30:	2301      	movs	r3, #1
 8006b32:	e0d6      	b.n	8006ce2 <HAL_RCC_ClockConfig+0x34e>
 8006b34:	4b28      	ldr	r3, [pc, #160]	@ (8006bd8 <HAL_RCC_ClockConfig+0x244>)
 8006b36:	691b      	ldr	r3, [r3, #16]
 8006b38:	f023 0207 	bic.w	r2, r3, #7
 8006b3c:	687b      	ldr	r3, [r7, #4]
 8006b3e:	685b      	ldr	r3, [r3, #4]
 8006b40:	4925      	ldr	r1, [pc, #148]	@ (8006bd8 <HAL_RCC_ClockConfig+0x244>)
 8006b42:	4313      	orrs	r3, r2
 8006b44:	610b      	str	r3, [r1, #16]
 8006b46:	f7fa fb67 	bl	8001218 <HAL_GetTick>
 8006b4a:	6178      	str	r0, [r7, #20]
 8006b4c:	e00a      	b.n	8006b64 <HAL_RCC_ClockConfig+0x1d0>
 8006b4e:	f7fa fb63 	bl	8001218 <HAL_GetTick>
 8006b52:	4602      	mov	r2, r0
 8006b54:	697b      	ldr	r3, [r7, #20]
 8006b56:	1ad3      	subs	r3, r2, r3
 8006b58:	f241 3288 	movw	r2, #5000	@ 0x1388
 8006b5c:	4293      	cmp	r3, r2
 8006b5e:	d901      	bls.n	8006b64 <HAL_RCC_ClockConfig+0x1d0>
 8006b60:	2303      	movs	r3, #3
 8006b62:	e0be      	b.n	8006ce2 <HAL_RCC_ClockConfig+0x34e>
 8006b64:	4b1c      	ldr	r3, [pc, #112]	@ (8006bd8 <HAL_RCC_ClockConfig+0x244>)
 8006b66:	691b      	ldr	r3, [r3, #16]
 8006b68:	f003 0238 	and.w	r2, r3, #56	@ 0x38
 8006b6c:	687b      	ldr	r3, [r7, #4]
 8006b6e:	685b      	ldr	r3, [r3, #4]
 8006b70:	00db      	lsls	r3, r3, #3
 8006b72:	429a      	cmp	r2, r3
 8006b74:	d1eb      	bne.n	8006b4e <HAL_RCC_ClockConfig+0x1ba>
 8006b76:	687b      	ldr	r3, [r7, #4]
 8006b78:	681b      	ldr	r3, [r3, #0]
 8006b7a:	f003 0302 	and.w	r3, r3, #2
 8006b7e:	2b00      	cmp	r3, #0
 8006b80:	d010      	beq.n	8006ba4 <HAL_RCC_ClockConfig+0x210>
 8006b82:	687b      	ldr	r3, [r7, #4]
 8006b84:	68da      	ldr	r2, [r3, #12]
 8006b86:	4b14      	ldr	r3, [pc, #80]	@ (8006bd8 <HAL_RCC_ClockConfig+0x244>)
 8006b88:	699b      	ldr	r3, [r3, #24]
 8006b8a:	f003 030f 	and.w	r3, r3, #15
 8006b8e:	429a      	cmp	r2, r3
 8006b90:	d208      	bcs.n	8006ba4 <HAL_RCC_ClockConfig+0x210>
 8006b92:	4b11      	ldr	r3, [pc, #68]	@ (8006bd8 <HAL_RCC_ClockConfig+0x244>)
 8006b94:	699b      	ldr	r3, [r3, #24]
 8006b96:	f023 020f 	bic.w	r2, r3, #15
 8006b9a:	687b      	ldr	r3, [r7, #4]
 8006b9c:	68db      	ldr	r3, [r3, #12]
 8006b9e:	490e      	ldr	r1, [pc, #56]	@ (8006bd8 <HAL_RCC_ClockConfig+0x244>)
 8006ba0:	4313      	orrs	r3, r2
 8006ba2:	618b      	str	r3, [r1, #24]
 8006ba4:	4b0b      	ldr	r3, [pc, #44]	@ (8006bd4 <HAL_RCC_ClockConfig+0x240>)
 8006ba6:	681b      	ldr	r3, [r3, #0]
 8006ba8:	f003 030f 	and.w	r3, r3, #15
 8006bac:	683a      	ldr	r2, [r7, #0]
 8006bae:	429a      	cmp	r2, r3
 8006bb0:	d214      	bcs.n	8006bdc <HAL_RCC_ClockConfig+0x248>
 8006bb2:	4b08      	ldr	r3, [pc, #32]	@ (8006bd4 <HAL_RCC_ClockConfig+0x240>)
 8006bb4:	681b      	ldr	r3, [r3, #0]
 8006bb6:	f023 020f 	bic.w	r2, r3, #15
 8006bba:	4906      	ldr	r1, [pc, #24]	@ (8006bd4 <HAL_RCC_ClockConfig+0x240>)
 8006bbc:	683b      	ldr	r3, [r7, #0]
 8006bbe:	4313      	orrs	r3, r2
 8006bc0:	600b      	str	r3, [r1, #0]
 8006bc2:	4b04      	ldr	r3, [pc, #16]	@ (8006bd4 <HAL_RCC_ClockConfig+0x240>)
 8006bc4:	681b      	ldr	r3, [r3, #0]
 8006bc6:	f003 030f 	and.w	r3, r3, #15
 8006bca:	683a      	ldr	r2, [r7, #0]
 8006bcc:	429a      	cmp	r2, r3
 8006bce:	d005      	beq.n	8006bdc <HAL_RCC_ClockConfig+0x248>
 8006bd0:	2301      	movs	r3, #1
 8006bd2:	e086      	b.n	8006ce2 <HAL_RCC_ClockConfig+0x34e>
 8006bd4:	52002000 	.word	0x52002000
 8006bd8:	58024400 	.word	0x58024400
 8006bdc:	687b      	ldr	r3, [r7, #4]
 8006bde:	681b      	ldr	r3, [r3, #0]
 8006be0:	f003 0304 	and.w	r3, r3, #4
 8006be4:	2b00      	cmp	r3, #0
 8006be6:	d010      	beq.n	8006c0a <HAL_RCC_ClockConfig+0x276>
 8006be8:	687b      	ldr	r3, [r7, #4]
 8006bea:	691a      	ldr	r2, [r3, #16]
 8006bec:	4b3f      	ldr	r3, [pc, #252]	@ (8006cec <HAL_RCC_ClockConfig+0x358>)
 8006bee:	699b      	ldr	r3, [r3, #24]
 8006bf0:	f003 0370 	and.w	r3, r3, #112	@ 0x70
 8006bf4:	429a      	cmp	r2, r3
 8006bf6:	d208      	bcs.n	8006c0a <HAL_RCC_ClockConfig+0x276>
 8006bf8:	4b3c      	ldr	r3, [pc, #240]	@ (8006cec <HAL_RCC_ClockConfig+0x358>)
 8006bfa:	699b      	ldr	r3, [r3, #24]
 8006bfc:	f023 0270 	bic.w	r2, r3, #112	@ 0x70
 8006c00:	687b      	ldr	r3, [r7, #4]
 8006c02:	691b      	ldr	r3, [r3, #16]
 8006c04:	4939      	ldr	r1, [pc, #228]	@ (8006cec <HAL_RCC_ClockConfig+0x358>)
 8006c06:	4313      	orrs	r3, r2
 8006c08:	618b      	str	r3, [r1, #24]
 8006c0a:	687b      	ldr	r3, [r7, #4]
 8006c0c:	681b      	ldr	r3, [r3, #0]
 8006c0e:	f003 0308 	and.w	r3, r3, #8
 8006c12:	2b00      	cmp	r3, #0
 8006c14:	d010      	beq.n	8006c38 <HAL_RCC_ClockConfig+0x2a4>
 8006c16:	687b      	ldr	r3, [r7, #4]
 8006c18:	695a      	ldr	r2, [r3, #20]
 8006c1a:	4b34      	ldr	r3, [pc, #208]	@ (8006cec <HAL_RCC_ClockConfig+0x358>)
 8006c1c:	69db      	ldr	r3, [r3, #28]
 8006c1e:	f003 0370 	and.w	r3, r3, #112	@ 0x70
 8006c22:	429a      	cmp	r2, r3
 8006c24:	d208      	bcs.n	8006c38 <HAL_RCC_ClockConfig+0x2a4>
 8006c26:	4b31      	ldr	r3, [pc, #196]	@ (8006cec <HAL_RCC_ClockConfig+0x358>)
 8006c28:	69db      	ldr	r3, [r3, #28]
 8006c2a:	f023 0270 	bic.w	r2, r3, #112	@ 0x70
 8006c2e:	687b      	ldr	r3, [r7, #4]
 8006c30:	695b      	ldr	r3, [r3, #20]
 8006c32:	492e      	ldr	r1, [pc, #184]	@ (8006cec <HAL_RCC_ClockConfig+0x358>)
 8006c34:	4313      	orrs	r3, r2
 8006c36:	61cb      	str	r3, [r1, #28]
 8006c38:	687b      	ldr	r3, [r7, #4]
 8006c3a:	681b      	ldr	r3, [r3, #0]
 8006c3c:	f003 0310 	and.w	r3, r3, #16
 8006c40:	2b00      	cmp	r3, #0
 8006c42:	d010      	beq.n	8006c66 <HAL_RCC_ClockConfig+0x2d2>
 8006c44:	687b      	ldr	r3, [r7, #4]
 8006c46:	699a      	ldr	r2, [r3, #24]
 8006c48:	4b28      	ldr	r3, [pc, #160]	@ (8006cec <HAL_RCC_ClockConfig+0x358>)
 8006c4a:	69db      	ldr	r3, [r3, #28]
 8006c4c:	f403 63e0 	and.w	r3, r3, #1792	@ 0x700
 8006c50:	429a      	cmp	r2, r3
 8006c52:	d208      	bcs.n	8006c66 <HAL_RCC_ClockConfig+0x2d2>
 8006c54:	4b25      	ldr	r3, [pc, #148]	@ (8006cec <HAL_RCC_ClockConfig+0x358>)
 8006c56:	69db      	ldr	r3, [r3, #28]
 8006c58:	f423 62e0 	bic.w	r2, r3, #1792	@ 0x700
 8006c5c:	687b      	ldr	r3, [r7, #4]
 8006c5e:	699b      	ldr	r3, [r3, #24]
 8006c60:	4922      	ldr	r1, [pc, #136]	@ (8006cec <HAL_RCC_ClockConfig+0x358>)
 8006c62:	4313      	orrs	r3, r2
 8006c64:	61cb      	str	r3, [r1, #28]
 8006c66:	687b      	ldr	r3, [r7, #4]
 8006c68:	681b      	ldr	r3, [r3, #0]
 8006c6a:	f003 0320 	and.w	r3, r3, #32
 8006c6e:	2b00      	cmp	r3, #0
 8006c70:	d010      	beq.n	8006c94 <HAL_RCC_ClockConfig+0x300>
 8006c72:	687b      	ldr	r3, [r7, #4]
 8006c74:	69da      	ldr	r2, [r3, #28]
 8006c76:	4b1d      	ldr	r3, [pc, #116]	@ (8006cec <HAL_RCC_ClockConfig+0x358>)
 8006c78:	6a1b      	ldr	r3, [r3, #32]
 8006c7a:	f003 0370 	and.w	r3, r3, #112	@ 0x70
 8006c7e:	429a      	cmp	r2, r3
 8006c80:	d208      	bcs.n	8006c94 <HAL_RCC_ClockConfig+0x300>
 8006c82:	4b1a      	ldr	r3, [pc, #104]	@ (8006cec <HAL_RCC_ClockConfig+0x358>)
 8006c84:	6a1b      	ldr	r3, [r3, #32]
 8006c86:	f023 0270 	bic.w	r2, r3, #112	@ 0x70
 8006c8a:	687b      	ldr	r3, [r7, #4]
 8006c8c:	69db      	ldr	r3, [r3, #28]
 8006c8e:	4917      	ldr	r1, [pc, #92]	@ (8006cec <HAL_RCC_ClockConfig+0x358>)
 8006c90:	4313      	orrs	r3, r2
 8006c92:	620b      	str	r3, [r1, #32]
 8006c94:	f000 f89e 	bl	8006dd4 <HAL_RCC_GetSysClockFreq>
 8006c98:	4602      	mov	r2, r0
 8006c9a:	4b14      	ldr	r3, [pc, #80]	@ (8006cec <HAL_RCC_ClockConfig+0x358>)
 8006c9c:	699b      	ldr	r3, [r3, #24]
 8006c9e:	0a1b      	lsrs	r3, r3, #8
 8006ca0:	f003 030f 	and.w	r3, r3, #15
 8006ca4:	4912      	ldr	r1, [pc, #72]	@ (8006cf0 <HAL_RCC_ClockConfig+0x35c>)
 8006ca6:	5ccb      	ldrb	r3, [r1, r3]
 8006ca8:	f003 031f 	and.w	r3, r3, #31
 8006cac:	fa22 f303 	lsr.w	r3, r2, r3
 8006cb0:	613b      	str	r3, [r7, #16]
 8006cb2:	4b0e      	ldr	r3, [pc, #56]	@ (8006cec <HAL_RCC_ClockConfig+0x358>)
 8006cb4:	699b      	ldr	r3, [r3, #24]
 8006cb6:	f003 030f 	and.w	r3, r3, #15
 8006cba:	4a0d      	ldr	r2, [pc, #52]	@ (8006cf0 <HAL_RCC_ClockConfig+0x35c>)
 8006cbc:	5cd3      	ldrb	r3, [r2, r3]
 8006cbe:	f003 031f 	and.w	r3, r3, #31
 8006cc2:	693a      	ldr	r2, [r7, #16]
 8006cc4:	fa22 f303 	lsr.w	r3, r2, r3
 8006cc8:	4a0a      	ldr	r2, [pc, #40]	@ (8006cf4 <HAL_RCC_ClockConfig+0x360>)
 8006cca:	6013      	str	r3, [r2, #0]
 8006ccc:	4a0a      	ldr	r2, [pc, #40]	@ (8006cf8 <HAL_RCC_ClockConfig+0x364>)
 8006cce:	693b      	ldr	r3, [r7, #16]
 8006cd0:	6013      	str	r3, [r2, #0]
 8006cd2:	4b0a      	ldr	r3, [pc, #40]	@ (8006cfc <HAL_RCC_ClockConfig+0x368>)
 8006cd4:	681b      	ldr	r3, [r3, #0]
 8006cd6:	4618      	mov	r0, r3
 8006cd8:	f7fa fa54 	bl	8001184 <HAL_InitTick>
 8006cdc:	4603      	mov	r3, r0
 8006cde:	73fb      	strb	r3, [r7, #15]
 8006ce0:	7bfb      	ldrb	r3, [r7, #15]
 8006ce2:	4618      	mov	r0, r3
 8006ce4:	3718      	adds	r7, #24
 8006ce6:	46bd      	mov	sp, r7
 8006ce8:	bd80      	pop	{r7, pc}
 8006cea:	bf00      	nop
 8006cec:	58024400 	.word	0x58024400
 8006cf0:	0800b6e0 	.word	0x0800b6e0
 8006cf4:	24000004 	.word	0x24000004
 8006cf8:	24000000 	.word	0x24000000
 8006cfc:	24000008 	.word	0x24000008

08006d00 <HAL_RCC_MCOConfig>:
 8006d00:	b580      	push	{r7, lr}
 8006d02:	b08c      	sub	sp, #48	@ 0x30
 8006d04:	af00      	add	r7, sp, #0
 8006d06:	60f8      	str	r0, [r7, #12]
 8006d08:	60b9      	str	r1, [r7, #8]
 8006d0a:	607a      	str	r2, [r7, #4]
 8006d0c:	68fb      	ldr	r3, [r7, #12]
 8006d0e:	2b00      	cmp	r3, #0
 8006d10:	d12a      	bne.n	8006d68 <HAL_RCC_MCOConfig+0x68>
 8006d12:	4b2d      	ldr	r3, [pc, #180]	@ (8006dc8 <HAL_RCC_MCOConfig+0xc8>)
 8006d14:	f8d3 3140 	ldr.w	r3, [r3, #320]	@ 0x140
 8006d18:	4a2b      	ldr	r2, [pc, #172]	@ (8006dc8 <HAL_RCC_MCOConfig+0xc8>)
 8006d1a:	f043 0301 	orr.w	r3, r3, #1
 8006d1e:	f8c2 3140 	str.w	r3, [r2, #320]	@ 0x140
 8006d22:	4b29      	ldr	r3, [pc, #164]	@ (8006dc8 <HAL_RCC_MCOConfig+0xc8>)
 8006d24:	f8d3 3140 	ldr.w	r3, [r3, #320]	@ 0x140
 8006d28:	f003 0301 	and.w	r3, r3, #1
 8006d2c:	61bb      	str	r3, [r7, #24]
 8006d2e:	69bb      	ldr	r3, [r7, #24]
 8006d30:	f44f 7380 	mov.w	r3, #256	@ 0x100
 8006d34:	61fb      	str	r3, [r7, #28]
 8006d36:	2302      	movs	r3, #2
 8006d38:	623b      	str	r3, [r7, #32]
 8006d3a:	2303      	movs	r3, #3
 8006d3c:	62bb      	str	r3, [r7, #40]	@ 0x28
 8006d3e:	2300      	movs	r3, #0
 8006d40:	627b      	str	r3, [r7, #36]	@ 0x24
 8006d42:	2300      	movs	r3, #0
 8006d44:	62fb      	str	r3, [r7, #44]	@ 0x2c
 8006d46:	f107 031c 	add.w	r3, r7, #28
 8006d4a:	4619      	mov	r1, r3
 8006d4c:	481f      	ldr	r0, [pc, #124]	@ (8006dcc <HAL_RCC_MCOConfig+0xcc>)
 8006d4e:	f7fe ffbb 	bl	8005cc8 <HAL_GPIO_Init>
 8006d52:	4b1d      	ldr	r3, [pc, #116]	@ (8006dc8 <HAL_RCC_MCOConfig+0xc8>)
 8006d54:	691b      	ldr	r3, [r3, #16]
 8006d56:	f023 72fe 	bic.w	r2, r3, #33292288	@ 0x1fc0000
 8006d5a:	68b9      	ldr	r1, [r7, #8]
 8006d5c:	687b      	ldr	r3, [r7, #4]
 8006d5e:	430b      	orrs	r3, r1
 8006d60:	4919      	ldr	r1, [pc, #100]	@ (8006dc8 <HAL_RCC_MCOConfig+0xc8>)
 8006d62:	4313      	orrs	r3, r2
 8006d64:	610b      	str	r3, [r1, #16]
 8006d66:	e02a      	b.n	8006dbe <HAL_RCC_MCOConfig+0xbe>
 8006d68:	4b17      	ldr	r3, [pc, #92]	@ (8006dc8 <HAL_RCC_MCOConfig+0xc8>)
 8006d6a:	f8d3 3140 	ldr.w	r3, [r3, #320]	@ 0x140
 8006d6e:	4a16      	ldr	r2, [pc, #88]	@ (8006dc8 <HAL_RCC_MCOConfig+0xc8>)
 8006d70:	f043 0304 	orr.w	r3, r3, #4
 8006d74:	f8c2 3140 	str.w	r3, [r2, #320]	@ 0x140
 8006d78:	4b13      	ldr	r3, [pc, #76]	@ (8006dc8 <HAL_RCC_MCOConfig+0xc8>)
 8006d7a:	f8d3 3140 	ldr.w	r3, [r3, #320]	@ 0x140
 8006d7e:	f003 0304 	and.w	r3, r3, #4
 8006d82:	617b      	str	r3, [r7, #20]
 8006d84:	697b      	ldr	r3, [r7, #20]
 8006d86:	f44f 7300 	mov.w	r3, #512	@ 0x200
 8006d8a:	61fb      	str	r3, [r7, #28]
 8006d8c:	2302      	movs	r3, #2
 8006d8e:	623b      	str	r3, [r7, #32]
 8006d90:	2303      	movs	r3, #3
 8006d92:	62bb      	str	r3, [r7, #40]	@ 0x28
 8006d94:	2300      	movs	r3, #0
 8006d96:	627b      	str	r3, [r7, #36]	@ 0x24
 8006d98:	2300      	movs	r3, #0
 8006d9a:	62fb      	str	r3, [r7, #44]	@ 0x2c
 8006d9c:	f107 031c 	add.w	r3, r7, #28
 8006da0:	4619      	mov	r1, r3
 8006da2:	480b      	ldr	r0, [pc, #44]	@ (8006dd0 <HAL_RCC_MCOConfig+0xd0>)
 8006da4:	f7fe ff90 	bl	8005cc8 <HAL_GPIO_Init>
 8006da8:	4b07      	ldr	r3, [pc, #28]	@ (8006dc8 <HAL_RCC_MCOConfig+0xc8>)
 8006daa:	691b      	ldr	r3, [r3, #16]
 8006dac:	f023 427e 	bic.w	r2, r3, #4261412864	@ 0xfe000000
 8006db0:	687b      	ldr	r3, [r7, #4]
 8006db2:	01d9      	lsls	r1, r3, #7
 8006db4:	68bb      	ldr	r3, [r7, #8]
 8006db6:	430b      	orrs	r3, r1
 8006db8:	4903      	ldr	r1, [pc, #12]	@ (8006dc8 <HAL_RCC_MCOConfig+0xc8>)
 8006dba:	4313      	orrs	r3, r2
 8006dbc:	610b      	str	r3, [r1, #16]
 8006dbe:	bf00      	nop
 8006dc0:	3730      	adds	r7, #48	@ 0x30
 8006dc2:	46bd      	mov	sp, r7
 8006dc4:	bd80      	pop	{r7, pc}
 8006dc6:	bf00      	nop
 8006dc8:	58024400 	.word	0x58024400
 8006dcc:	58020000 	.word	0x58020000
 8006dd0:	58020800 	.word	0x58020800

08006dd4 <HAL_RCC_GetSysClockFreq>:
 8006dd4:	b480      	push	{r7}
 8006dd6:	b089      	sub	sp, #36	@ 0x24
 8006dd8:	af00      	add	r7, sp, #0
 8006dda:	4bb3      	ldr	r3, [pc, #716]	@ (80070a8 <HAL_RCC_GetSysClockFreq+0x2d4>)
 8006ddc:	691b      	ldr	r3, [r3, #16]
 8006dde:	f003 0338 	and.w	r3, r3, #56	@ 0x38
 8006de2:	2b18      	cmp	r3, #24
 8006de4:	f200 8155 	bhi.w	8007092 <HAL_RCC_GetSysClockFreq+0x2be>
 8006de8:	a201      	add	r2, pc, #4	@ (adr r2, 8006df0 <HAL_RCC_GetSysClockFreq+0x1c>)
 8006dea:	f852 f023 	ldr.w	pc, [r2, r3, lsl #2]
 8006dee:	bf00      	nop
 8006df0:	08006e55 	.word	0x08006e55
 8006df4:	08007093 	.word	0x08007093
 8006df8:	08007093 	.word	0x08007093
 8006dfc:	08007093 	.word	0x08007093
 8006e00:	08007093 	.word	0x08007093
 8006e04:	08007093 	.word	0x08007093
 8006e08:	08007093 	.word	0x08007093
 8006e0c:	08007093 	.word	0x08007093
 8006e10:	08006e7b 	.word	0x08006e7b
 8006e14:	08007093 	.word	0x08007093
 8006e18:	08007093 	.word	0x08007093
 8006e1c:	08007093 	.word	0x08007093
 8006e20:	08007093 	.word	0x08007093
 8006e24:	08007093 	.word	0x08007093
 8006e28:	08007093 	.word	0x08007093
 8006e2c:	08007093 	.word	0x08007093
 8006e30:	08006e81 	.word	0x08006e81
 8006e34:	08007093 	.word	0x08007093
 8006e38:	08007093 	.word	0x08007093
 8006e3c:	08007093 	.word	0x08007093
 8006e40:	08007093 	.word	0x08007093
 8006e44:	08007093 	.word	0x08007093
 8006e48:	08007093 	.word	0x08007093
 8006e4c:	08007093 	.word	0x08007093
 8006e50:	08006e87 	.word	0x08006e87
 8006e54:	4b94      	ldr	r3, [pc, #592]	@ (80070a8 <HAL_RCC_GetSysClockFreq+0x2d4>)
 8006e56:	681b      	ldr	r3, [r3, #0]
 8006e58:	f003 0320 	and.w	r3, r3, #32
 8006e5c:	2b00      	cmp	r3, #0
 8006e5e:	d009      	beq.n	8006e74 <HAL_RCC_GetSysClockFreq+0xa0>
 8006e60:	4b91      	ldr	r3, [pc, #580]	@ (80070a8 <HAL_RCC_GetSysClockFreq+0x2d4>)
 8006e62:	681b      	ldr	r3, [r3, #0]
 8006e64:	08db      	lsrs	r3, r3, #3
 8006e66:	f003 0303 	and.w	r3, r3, #3
 8006e6a:	4a90      	ldr	r2, [pc, #576]	@ (80070ac <HAL_RCC_GetSysClockFreq+0x2d8>)
 8006e6c:	fa22 f303 	lsr.w	r3, r2, r3
 8006e70:	61bb      	str	r3, [r7, #24]
 8006e72:	e111      	b.n	8007098 <HAL_RCC_GetSysClockFreq+0x2c4>
 8006e74:	4b8d      	ldr	r3, [pc, #564]	@ (80070ac <HAL_RCC_GetSysClockFreq+0x2d8>)
 8006e76:	61bb      	str	r3, [r7, #24]
 8006e78:	e10e      	b.n	8007098 <HAL_RCC_GetSysClockFreq+0x2c4>
 8006e7a:	4b8d      	ldr	r3, [pc, #564]	@ (80070b0 <HAL_RCC_GetSysClockFreq+0x2dc>)
 8006e7c:	61bb      	str	r3, [r7, #24]
 8006e7e:	e10b      	b.n	8007098 <HAL_RCC_GetSysClockFreq+0x2c4>
 8006e80:	4b8c      	ldr	r3, [pc, #560]	@ (80070b4 <HAL_RCC_GetSysClockFreq+0x2e0>)
 8006e82:	61bb      	str	r3, [r7, #24]
 8006e84:	e108      	b.n	8007098 <HAL_RCC_GetSysClockFreq+0x2c4>
 8006e86:	4b88      	ldr	r3, [pc, #544]	@ (80070a8 <HAL_RCC_GetSysClockFreq+0x2d4>)
 8006e88:	6a9b      	ldr	r3, [r3, #40]	@ 0x28
 8006e8a:	f003 0303 	and.w	r3, r3, #3
 8006e8e:	617b      	str	r3, [r7, #20]
 8006e90:	4b85      	ldr	r3, [pc, #532]	@ (80070a8 <HAL_RCC_GetSysClockFreq+0x2d4>)
 8006e92:	6a9b      	ldr	r3, [r3, #40]	@ 0x28
 8006e94:	091b      	lsrs	r3, r3, #4
 8006e96:	f003 033f 	and.w	r3, r3, #63	@ 0x3f
 8006e9a:	613b      	str	r3, [r7, #16]
 8006e9c:	4b82      	ldr	r3, [pc, #520]	@ (80070a8 <HAL_RCC_GetSysClockFreq+0x2d4>)
 8006e9e:	6adb      	ldr	r3, [r3, #44]	@ 0x2c
 8006ea0:	f003 0301 	and.w	r3, r3, #1
 8006ea4:	60fb      	str	r3, [r7, #12]
 8006ea6:	4b80      	ldr	r3, [pc, #512]	@ (80070a8 <HAL_RCC_GetSysClockFreq+0x2d4>)
 8006ea8:	6b5b      	ldr	r3, [r3, #52]	@ 0x34
 8006eaa:	08db      	lsrs	r3, r3, #3
 8006eac:	f3c3 030c 	ubfx	r3, r3, #0, #13
 8006eb0:	68fa      	ldr	r2, [r7, #12]
 8006eb2:	fb02 f303 	mul.w	r3, r2, r3
 8006eb6:	ee07 3a90 	vmov	s15, r3
 8006eba:	eef8 7a67 	vcvt.f32.u32	s15, s15
 8006ebe:	edc7 7a02 	vstr	s15, [r7, #8]
 8006ec2:	693b      	ldr	r3, [r7, #16]
 8006ec4:	2b00      	cmp	r3, #0
 8006ec6:	f000 80e1 	beq.w	800708c <HAL_RCC_GetSysClockFreq+0x2b8>
 8006eca:	697b      	ldr	r3, [r7, #20]
 8006ecc:	2b02      	cmp	r3, #2
 8006ece:	f000 8083 	beq.w	8006fd8 <HAL_RCC_GetSysClockFreq+0x204>
 8006ed2:	697b      	ldr	r3, [r7, #20]
 8006ed4:	2b02      	cmp	r3, #2
 8006ed6:	f200 80a1 	bhi.w	800701c <HAL_RCC_GetSysClockFreq+0x248>
 8006eda:	697b      	ldr	r3, [r7, #20]
 8006edc:	2b00      	cmp	r3, #0
 8006ede:	d003      	beq.n	8006ee8 <HAL_RCC_GetSysClockFreq+0x114>
 8006ee0:	697b      	ldr	r3, [r7, #20]
 8006ee2:	2b01      	cmp	r3, #1
 8006ee4:	d056      	beq.n	8006f94 <HAL_RCC_GetSysClockFreq+0x1c0>
 8006ee6:	e099      	b.n	800701c <HAL_RCC_GetSysClockFreq+0x248>
 8006ee8:	4b6f      	ldr	r3, [pc, #444]	@ (80070a8 <HAL_RCC_GetSysClockFreq+0x2d4>)
 8006eea:	681b      	ldr	r3, [r3, #0]
 8006eec:	f003 0320 	and.w	r3, r3, #32
 8006ef0:	2b00      	cmp	r3, #0
 8006ef2:	d02d      	beq.n	8006f50 <HAL_RCC_GetSysClockFreq+0x17c>
 8006ef4:	4b6c      	ldr	r3, [pc, #432]	@ (80070a8 <HAL_RCC_GetSysClockFreq+0x2d4>)
 8006ef6:	681b      	ldr	r3, [r3, #0]
 8006ef8:	08db      	lsrs	r3, r3, #3
 8006efa:	f003 0303 	and.w	r3, r3, #3
 8006efe:	4a6b      	ldr	r2, [pc, #428]	@ (80070ac <HAL_RCC_GetSysClockFreq+0x2d8>)
 8006f00:	fa22 f303 	lsr.w	r3, r2, r3
 8006f04:	607b      	str	r3, [r7, #4]
 8006f06:	687b      	ldr	r3, [r7, #4]
 8006f08:	ee07 3a90 	vmov	s15, r3
 8006f0c:	eef8 6a67 	vcvt.f32.u32	s13, s15
 8006f10:	693b      	ldr	r3, [r7, #16]
 8006f12:	ee07 3a90 	vmov	s15, r3
 8006f16:	eef8 7a67 	vcvt.f32.u32	s15, s15
 8006f1a:	ee86 7aa7 	vdiv.f32	s14, s13, s15
 8006f1e:	4b62      	ldr	r3, [pc, #392]	@ (80070a8 <HAL_RCC_GetSysClockFreq+0x2d4>)
 8006f20:	6b1b      	ldr	r3, [r3, #48]	@ 0x30
 8006f22:	f3c3 0308 	ubfx	r3, r3, #0, #9
 8006f26:	ee07 3a90 	vmov	s15, r3
 8006f2a:	eef8 6a67 	vcvt.f32.u32	s13, s15
 8006f2e:	ed97 6a02 	vldr	s12, [r7, #8]
 8006f32:	eddf 5a61 	vldr	s11, [pc, #388]	@ 80070b8 <HAL_RCC_GetSysClockFreq+0x2e4>
 8006f36:	eec6 7a25 	vdiv.f32	s15, s12, s11
 8006f3a:	ee76 7aa7 	vadd.f32	s15, s13, s15
 8006f3e:	eef7 6a00 	vmov.f32	s13, #112	@ 0x3f800000  1.0
 8006f42:	ee77 7aa6 	vadd.f32	s15, s15, s13
 8006f46:	ee67 7a27 	vmul.f32	s15, s14, s15
 8006f4a:	edc7 7a07 	vstr	s15, [r7, #28]
 8006f4e:	e087      	b.n	8007060 <HAL_RCC_GetSysClockFreq+0x28c>
 8006f50:	693b      	ldr	r3, [r7, #16]
 8006f52:	ee07 3a90 	vmov	s15, r3
 8006f56:	eef8 7a67 	vcvt.f32.u32	s15, s15
 8006f5a:	eddf 6a58 	vldr	s13, [pc, #352]	@ 80070bc <HAL_RCC_GetSysClockFreq+0x2e8>
 8006f5e:	ee86 7aa7 	vdiv.f32	s14, s13, s15
 8006f62:	4b51      	ldr	r3, [pc, #324]	@ (80070a8 <HAL_RCC_GetSysClockFreq+0x2d4>)
 8006f64:	6b1b      	ldr	r3, [r3, #48]	@ 0x30
 8006f66:	f3c3 0308 	ubfx	r3, r3, #0, #9
 8006f6a:	ee07 3a90 	vmov	s15, r3
 8006f6e:	eef8 6a67 	vcvt.f32.u32	s13, s15
 8006f72:	ed97 6a02 	vldr	s12, [r7, #8]
 8006f76:	eddf 5a50 	vldr	s11, [pc, #320]	@ 80070b8 <HAL_RCC_GetSysClockFreq+0x2e4>
 8006f7a:	eec6 7a25 	vdiv.f32	s15, s12, s11
 8006f7e:	ee76 7aa7 	vadd.f32	s15, s13, s15
 8006f82:	eef7 6a00 	vmov.f32	s13, #112	@ 0x3f800000  1.0
 8006f86:	ee77 7aa6 	vadd.f32	s15, s15, s13
 8006f8a:	ee67 7a27 	vmul.f32	s15, s14, s15
 8006f8e:	edc7 7a07 	vstr	s15, [r7, #28]
 8006f92:	e065      	b.n	8007060 <HAL_RCC_GetSysClockFreq+0x28c>
 8006f94:	693b      	ldr	r3, [r7, #16]
 8006f96:	ee07 3a90 	vmov	s15, r3
 8006f9a:	eef8 7a67 	vcvt.f32.u32	s15, s15
 8006f9e:	eddf 6a48 	vldr	s13, [pc, #288]	@ 80070c0 <HAL_RCC_GetSysClockFreq+0x2ec>
 8006fa2:	ee86 7aa7 	vdiv.f32	s14, s13, s15
 8006fa6:	4b40      	ldr	r3, [pc, #256]	@ (80070a8 <HAL_RCC_GetSysClockFreq+0x2d4>)
 8006fa8:	6b1b      	ldr	r3, [r3, #48]	@ 0x30
 8006faa:	f3c3 0308 	ubfx	r3, r3, #0, #9
 8006fae:	ee07 3a90 	vmov	s15, r3
 8006fb2:	eef8 6a67 	vcvt.f32.u32	s13, s15
 8006fb6:	ed97 6a02 	vldr	s12, [r7, #8]
 8006fba:	eddf 5a3f 	vldr	s11, [pc, #252]	@ 80070b8 <HAL_RCC_GetSysClockFreq+0x2e4>
 8006fbe:	eec6 7a25 	vdiv.f32	s15, s12, s11
 8006fc2:	ee76 7aa7 	vadd.f32	s15, s13, s15
 8006fc6:	eef7 6a00 	vmov.f32	s13, #112	@ 0x3f800000  1.0
 8006fca:	ee77 7aa6 	vadd.f32	s15, s15, s13
 8006fce:	ee67 7a27 	vmul.f32	s15, s14, s15
 8006fd2:	edc7 7a07 	vstr	s15, [r7, #28]
 8006fd6:	e043      	b.n	8007060 <HAL_RCC_GetSysClockFreq+0x28c>
 8006fd8:	693b      	ldr	r3, [r7, #16]
 8006fda:	ee07 3a90 	vmov	s15, r3
 8006fde:	eef8 7a67 	vcvt.f32.u32	s15, s15
 8006fe2:	eddf 6a38 	vldr	s13, [pc, #224]	@ 80070c4 <HAL_RCC_GetSysClockFreq+0x2f0>
 8006fe6:	ee86 7aa7 	vdiv.f32	s14, s13, s15
 8006fea:	4b2f      	ldr	r3, [pc, #188]	@ (80070a8 <HAL_RCC_GetSysClockFreq+0x2d4>)
 8006fec:	6b1b      	ldr	r3, [r3, #48]	@ 0x30
 8006fee:	f3c3 0308 	ubfx	r3, r3, #0, #9
 8006ff2:	ee07 3a90 	vmov	s15, r3
 8006ff6:	eef8 6a67 	vcvt.f32.u32	s13, s15
 8006ffa:	ed97 6a02 	vldr	s12, [r7, #8]
 8006ffe:	eddf 5a2e 	vldr	s11, [pc, #184]	@ 80070b8 <HAL_RCC_GetSysClockFreq+0x2e4>
 8007002:	eec6 7a25 	vdiv.f32	s15, s12, s11
 8007006:	ee76 7aa7 	vadd.f32	s15, s13, s15
 800700a:	eef7 6a00 	vmov.f32	s13, #112	@ 0x3f800000  1.0
 800700e:	ee77 7aa6 	vadd.f32	s15, s15, s13
 8007012:	ee67 7a27 	vmul.f32	s15, s14, s15
 8007016:	edc7 7a07 	vstr	s15, [r7, #28]
 800701a:	e021      	b.n	8007060 <HAL_RCC_GetSysClockFreq+0x28c>
 800701c:	693b      	ldr	r3, [r7, #16]
 800701e:	ee07 3a90 	vmov	s15, r3
 8007022:	eef8 7a67 	vcvt.f32.u32	s15, s15
 8007026:	eddf 6a26 	vldr	s13, [pc, #152]	@ 80070c0 <HAL_RCC_GetSysClockFreq+0x2ec>
 800702a:	ee86 7aa7 	vdiv.f32	s14, s13, s15
 800702e:	4b1e      	ldr	r3, [pc, #120]	@ (80070a8 <HAL_RCC_GetSysClockFreq+0x2d4>)
 8007030:	6b1b      	ldr	r3, [r3, #48]	@ 0x30
 8007032:	f3c3 0308 	ubfx	r3, r3, #0, #9
 8007036:	ee07 3a90 	vmov	s15, r3
 800703a:	eef8 6a67 	vcvt.f32.u32	s13, s15
 800703e:	ed97 6a02 	vldr	s12, [r7, #8]
 8007042:	eddf 5a1d 	vldr	s11, [pc, #116]	@ 80070b8 <HAL_RCC_GetSysClockFreq+0x2e4>
 8007046:	eec6 7a25 	vdiv.f32	s15, s12, s11
 800704a:	ee76 7aa7 	vadd.f32	s15, s13, s15
 800704e:	eef7 6a00 	vmov.f32	s13, #112	@ 0x3f800000  1.0
 8007052:	ee77 7aa6 	vadd.f32	s15, s15, s13
 8007056:	ee67 7a27 	vmul.f32	s15, s14, s15
 800705a:	edc7 7a07 	vstr	s15, [r7, #28]
 800705e:	bf00      	nop
 8007060:	4b11      	ldr	r3, [pc, #68]	@ (80070a8 <HAL_RCC_GetSysClockFreq+0x2d4>)
 8007062:	6b1b      	ldr	r3, [r3, #48]	@ 0x30
 8007064:	0a5b      	lsrs	r3, r3, #9
 8007066:	f003 037f 	and.w	r3, r3, #127	@ 0x7f
 800706a:	3301      	adds	r3, #1
 800706c:	603b      	str	r3, [r7, #0]
 800706e:	683b      	ldr	r3, [r7, #0]
 8007070:	ee07 3a90 	vmov	s15, r3
 8007074:	eeb8 7a67 	vcvt.f32.u32	s14, s15
 8007078:	edd7 6a07 	vldr	s13, [r7, #28]
 800707c:	eec6 7a87 	vdiv.f32	s15, s13, s14
 8007080:	eefc 7ae7 	vcvt.u32.f32	s15, s15
 8007084:	ee17 3a90 	vmov	r3, s15
 8007088:	61bb      	str	r3, [r7, #24]
 800708a:	e005      	b.n	8007098 <HAL_RCC_GetSysClockFreq+0x2c4>
 800708c:	2300      	movs	r3, #0
 800708e:	61bb      	str	r3, [r7, #24]
 8007090:	e002      	b.n	8007098 <HAL_RCC_GetSysClockFreq+0x2c4>
 8007092:	4b07      	ldr	r3, [pc, #28]	@ (80070b0 <HAL_RCC_GetSysClockFreq+0x2dc>)
 8007094:	61bb      	str	r3, [r7, #24]
 8007096:	bf00      	nop
 8007098:	69bb      	ldr	r3, [r7, #24]
 800709a:	4618      	mov	r0, r3
 800709c:	3724      	adds	r7, #36	@ 0x24
 800709e:	46bd      	mov	sp, r7
 80070a0:	f85d 7b04 	ldr.w	r7, [sp], #4
 80070a4:	4770      	bx	lr
 80070a6:	bf00      	nop
 80070a8:	58024400 	.word	0x58024400
 80070ac:	03d09000 	.word	0x03d09000
 80070b0:	003d0900 	.word	0x003d0900
 80070b4:	007a1200 	.word	0x007a1200
 80070b8:	46000000 	.word	0x46000000
 80070bc:	4c742400 	.word	0x4c742400
 80070c0:	4a742400 	.word	0x4a742400
 80070c4:	4af42400 	.word	0x4af42400

080070c8 <HAL_RCC_GetHCLKFreq>:
 80070c8:	b580      	push	{r7, lr}
 80070ca:	b082      	sub	sp, #8
 80070cc:	af00      	add	r7, sp, #0
 80070ce:	f7ff fe81 	bl	8006dd4 <HAL_RCC_GetSysClockFreq>
 80070d2:	4602      	mov	r2, r0
 80070d4:	4b10      	ldr	r3, [pc, #64]	@ (8007118 <HAL_RCC_GetHCLKFreq+0x50>)
 80070d6:	699b      	ldr	r3, [r3, #24]
 80070d8:	0a1b      	lsrs	r3, r3, #8
 80070da:	f003 030f 	and.w	r3, r3, #15
 80070de:	490f      	ldr	r1, [pc, #60]	@ (800711c <HAL_RCC_GetHCLKFreq+0x54>)
 80070e0:	5ccb      	ldrb	r3, [r1, r3]
 80070e2:	f003 031f 	and.w	r3, r3, #31
 80070e6:	fa22 f303 	lsr.w	r3, r2, r3
 80070ea:	607b      	str	r3, [r7, #4]
 80070ec:	4b0a      	ldr	r3, [pc, #40]	@ (8007118 <HAL_RCC_GetHCLKFreq+0x50>)
 80070ee:	699b      	ldr	r3, [r3, #24]
 80070f0:	f003 030f 	and.w	r3, r3, #15
 80070f4:	4a09      	ldr	r2, [pc, #36]	@ (800711c <HAL_RCC_GetHCLKFreq+0x54>)
 80070f6:	5cd3      	ldrb	r3, [r2, r3]
 80070f8:	f003 031f 	and.w	r3, r3, #31
 80070fc:	687a      	ldr	r2, [r7, #4]
 80070fe:	fa22 f303 	lsr.w	r3, r2, r3
 8007102:	4a07      	ldr	r2, [pc, #28]	@ (8007120 <HAL_RCC_GetHCLKFreq+0x58>)
 8007104:	6013      	str	r3, [r2, #0]
 8007106:	4a07      	ldr	r2, [pc, #28]	@ (8007124 <HAL_RCC_GetHCLKFreq+0x5c>)
 8007108:	687b      	ldr	r3, [r7, #4]
 800710a:	6013      	str	r3, [r2, #0]
 800710c:	4b04      	ldr	r3, [pc, #16]	@ (8007120 <HAL_RCC_GetHCLKFreq+0x58>)
 800710e:	681b      	ldr	r3, [r3, #0]
 8007110:	4618      	mov	r0, r3
 8007112:	3708      	adds	r7, #8
 8007114:	46bd      	mov	sp, r7
 8007116:	bd80      	pop	{r7, pc}
 8007118:	58024400 	.word	0x58024400
 800711c:	0800b6e0 	.word	0x0800b6e0
 8007120:	24000004 	.word	0x24000004
 8007124:	24000000 	.word	0x24000000

08007128 <HAL_RCC_GetPCLK1Freq>:
 8007128:	b580      	push	{r7, lr}
 800712a:	af00      	add	r7, sp, #0
 800712c:	f7ff ffcc 	bl	80070c8 <HAL_RCC_GetHCLKFreq>
 8007130:	4602      	mov	r2, r0
 8007132:	4b06      	ldr	r3, [pc, #24]	@ (800714c <HAL_RCC_GetPCLK1Freq+0x24>)
 8007134:	69db      	ldr	r3, [r3, #28]
 8007136:	091b      	lsrs	r3, r3, #4
 8007138:	f003 0307 	and.w	r3, r3, #7
 800713c:	4904      	ldr	r1, [pc, #16]	@ (8007150 <HAL_RCC_GetPCLK1Freq+0x28>)
 800713e:	5ccb      	ldrb	r3, [r1, r3]
 8007140:	f003 031f 	and.w	r3, r3, #31
 8007144:	fa22 f303 	lsr.w	r3, r2, r3
 8007148:	4618      	mov	r0, r3
 800714a:	bd80      	pop	{r7, pc}
 800714c:	58024400 	.word	0x58024400
 8007150:	0800b6e0 	.word	0x0800b6e0

08007154 <HAL_RCC_GetPCLK2Freq>:
 8007154:	b580      	push	{r7, lr}
 8007156:	af00      	add	r7, sp, #0
 8007158:	f7ff ffb6 	bl	80070c8 <HAL_RCC_GetHCLKFreq>
 800715c:	4602      	mov	r2, r0
 800715e:	4b06      	ldr	r3, [pc, #24]	@ (8007178 <HAL_RCC_GetPCLK2Freq+0x24>)
 8007160:	69db      	ldr	r3, [r3, #28]
 8007162:	0a1b      	lsrs	r3, r3, #8
 8007164:	f003 0307 	and.w	r3, r3, #7
 8007168:	4904      	ldr	r1, [pc, #16]	@ (800717c <HAL_RCC_GetPCLK2Freq+0x28>)
 800716a:	5ccb      	ldrb	r3, [r1, r3]
 800716c:	f003 031f 	and.w	r3, r3, #31
 8007170:	fa22 f303 	lsr.w	r3, r2, r3
 8007174:	4618      	mov	r0, r3
 8007176:	bd80      	pop	{r7, pc}
 8007178:	58024400 	.word	0x58024400
 800717c:	0800b6e0 	.word	0x0800b6e0

08007180 <HAL_RCCEx_PeriphCLKConfig>:
 8007180:	e92d 4fb0 	stmdb	sp!, {r4, r5, r7, r8, r9, sl, fp, lr}
 8007184:	b0c8      	sub	sp, #288	@ 0x120
 8007186:	af00      	add	r7, sp, #0
 8007188:	f8c7 010c 	str.w	r0, [r7, #268]	@ 0x10c
 800718c:	2300      	movs	r3, #0
 800718e:	f887 311f 	strb.w	r3, [r7, #287]	@ 0x11f
 8007192:	2300      	movs	r3, #0
 8007194:	f887 311e 	strb.w	r3, [r7, #286]	@ 0x11e
 8007198:	f8d7 310c 	ldr.w	r3, [r7, #268]	@ 0x10c
 800719c:	e9d3 2300 	ldrd	r2, r3, [r3]
 80071a0:	f002 6400 	and.w	r4, r2, #134217728	@ 0x8000000
 80071a4:	2500      	movs	r5, #0
 80071a6:	ea54 0305 	orrs.w	r3, r4, r5
 80071aa:	d049      	beq.n	8007240 <HAL_RCCEx_PeriphCLKConfig+0xc0>
 80071ac:	f8d7 310c 	ldr.w	r3, [r7, #268]	@ 0x10c
 80071b0:	6edb      	ldr	r3, [r3, #108]	@ 0x6c
 80071b2:	f5b3 1f40 	cmp.w	r3, #3145728	@ 0x300000
 80071b6:	d02f      	beq.n	8007218 <HAL_RCCEx_PeriphCLKConfig+0x98>
 80071b8:	f5b3 1f40 	cmp.w	r3, #3145728	@ 0x300000
 80071bc:	d828      	bhi.n	8007210 <HAL_RCCEx_PeriphCLKConfig+0x90>
 80071be:	f5b3 1f00 	cmp.w	r3, #2097152	@ 0x200000
 80071c2:	d01a      	beq.n	80071fa <HAL_RCCEx_PeriphCLKConfig+0x7a>
 80071c4:	f5b3 1f00 	cmp.w	r3, #2097152	@ 0x200000
 80071c8:	d822      	bhi.n	8007210 <HAL_RCCEx_PeriphCLKConfig+0x90>
 80071ca:	2b00      	cmp	r3, #0
 80071cc:	d003      	beq.n	80071d6 <HAL_RCCEx_PeriphCLKConfig+0x56>
 80071ce:	f5b3 1f80 	cmp.w	r3, #1048576	@ 0x100000
 80071d2:	d007      	beq.n	80071e4 <HAL_RCCEx_PeriphCLKConfig+0x64>
 80071d4:	e01c      	b.n	8007210 <HAL_RCCEx_PeriphCLKConfig+0x90>
 80071d6:	4ba7      	ldr	r3, [pc, #668]	@ (8007474 <HAL_RCCEx_PeriphCLKConfig+0x2f4>)
 80071d8:	6adb      	ldr	r3, [r3, #44]	@ 0x2c
 80071da:	4aa6      	ldr	r2, [pc, #664]	@ (8007474 <HAL_RCCEx_PeriphCLKConfig+0x2f4>)
 80071dc:	f443 3300 	orr.w	r3, r3, #131072	@ 0x20000
 80071e0:	62d3      	str	r3, [r2, #44]	@ 0x2c
 80071e2:	e01a      	b.n	800721a <HAL_RCCEx_PeriphCLKConfig+0x9a>
 80071e4:	f8d7 310c 	ldr.w	r3, [r7, #268]	@ 0x10c
 80071e8:	3308      	adds	r3, #8
 80071ea:	2102      	movs	r1, #2
 80071ec:	4618      	mov	r0, r3
 80071ee:	f002 fac3 	bl	8009778 <RCCEx_PLL2_Config>
 80071f2:	4603      	mov	r3, r0
 80071f4:	f887 311f 	strb.w	r3, [r7, #287]	@ 0x11f
 80071f8:	e00f      	b.n	800721a <HAL_RCCEx_PeriphCLKConfig+0x9a>
 80071fa:	f8d7 310c 	ldr.w	r3, [r7, #268]	@ 0x10c
 80071fe:	3328      	adds	r3, #40	@ 0x28
 8007200:	2102      	movs	r1, #2
 8007202:	4618      	mov	r0, r3
 8007204:	f002 fb6a 	bl	80098dc <RCCEx_PLL3_Config>
 8007208:	4603      	mov	r3, r0
 800720a:	f887 311f 	strb.w	r3, [r7, #287]	@ 0x11f
 800720e:	e004      	b.n	800721a <HAL_RCCEx_PeriphCLKConfig+0x9a>
 8007210:	2301      	movs	r3, #1
 8007212:	f887 311f 	strb.w	r3, [r7, #287]	@ 0x11f
 8007216:	e000      	b.n	800721a <HAL_RCCEx_PeriphCLKConfig+0x9a>
 8007218:	bf00      	nop
 800721a:	f897 311f 	ldrb.w	r3, [r7, #287]	@ 0x11f
 800721e:	2b00      	cmp	r3, #0
 8007220:	d10a      	bne.n	8007238 <HAL_RCCEx_PeriphCLKConfig+0xb8>
 8007222:	4b94      	ldr	r3, [pc, #592]	@ (8007474 <HAL_RCCEx_PeriphCLKConfig+0x2f4>)
 8007224:	6d1b      	ldr	r3, [r3, #80]	@ 0x50
 8007226:	f423 1140 	bic.w	r1, r3, #3145728	@ 0x300000
 800722a:	f8d7 310c 	ldr.w	r3, [r7, #268]	@ 0x10c
 800722e:	6edb      	ldr	r3, [r3, #108]	@ 0x6c
 8007230:	4a90      	ldr	r2, [pc, #576]	@ (8007474 <HAL_RCCEx_PeriphCLKConfig+0x2f4>)
 8007232:	430b      	orrs	r3, r1
 8007234:	6513      	str	r3, [r2, #80]	@ 0x50
 8007236:	e003      	b.n	8007240 <HAL_RCCEx_PeriphCLKConfig+0xc0>
 8007238:	f897 311f 	ldrb.w	r3, [r7, #287]	@ 0x11f
 800723c:	f887 311e 	strb.w	r3, [r7, #286]	@ 0x11e
 8007240:	f8d7 310c 	ldr.w	r3, [r7, #268]	@ 0x10c
 8007244:	e9d3 2300 	ldrd	r2, r3, [r3]
 8007248:	f402 7880 	and.w	r8, r2, #256	@ 0x100
 800724c:	f04f 0900 	mov.w	r9, #0
 8007250:	ea58 0309 	orrs.w	r3, r8, r9
 8007254:	d047      	beq.n	80072e6 <HAL_RCCEx_PeriphCLKConfig+0x166>
 8007256:	f8d7 310c 	ldr.w	r3, [r7, #268]	@ 0x10c
 800725a:	6d9b      	ldr	r3, [r3, #88]	@ 0x58
 800725c:	2b04      	cmp	r3, #4
 800725e:	d82a      	bhi.n	80072b6 <HAL_RCCEx_PeriphCLKConfig+0x136>
 8007260:	a201      	add	r2, pc, #4	@ (adr r2, 8007268 <HAL_RCCEx_PeriphCLKConfig+0xe8>)
 8007262:	f852 f023 	ldr.w	pc, [r2, r3, lsl #2]
 8007266:	bf00      	nop
 8007268:	0800727d 	.word	0x0800727d
 800726c:	0800728b 	.word	0x0800728b
 8007270:	080072a1 	.word	0x080072a1
 8007274:	080072bf 	.word	0x080072bf
 8007278:	080072bf 	.word	0x080072bf
 800727c:	4b7d      	ldr	r3, [pc, #500]	@ (8007474 <HAL_RCCEx_PeriphCLKConfig+0x2f4>)
 800727e:	6adb      	ldr	r3, [r3, #44]	@ 0x2c
 8007280:	4a7c      	ldr	r2, [pc, #496]	@ (8007474 <HAL_RCCEx_PeriphCLKConfig+0x2f4>)
 8007282:	f443 3300 	orr.w	r3, r3, #131072	@ 0x20000
 8007286:	62d3      	str	r3, [r2, #44]	@ 0x2c
 8007288:	e01a      	b.n	80072c0 <HAL_RCCEx_PeriphCLKConfig+0x140>
 800728a:	f8d7 310c 	ldr.w	r3, [r7, #268]	@ 0x10c
 800728e:	3308      	adds	r3, #8
 8007290:	2100      	movs	r1, #0
 8007292:	4618      	mov	r0, r3
 8007294:	f002 fa70 	bl	8009778 <RCCEx_PLL2_Config>
 8007298:	4603      	mov	r3, r0
 800729a:	f887 311f 	strb.w	r3, [r7, #287]	@ 0x11f
 800729e:	e00f      	b.n	80072c0 <HAL_RCCEx_PeriphCLKConfig+0x140>
 80072a0:	f8d7 310c 	ldr.w	r3, [r7, #268]	@ 0x10c
 80072a4:	3328      	adds	r3, #40	@ 0x28
 80072a6:	2100      	movs	r1, #0
 80072a8:	4618      	mov	r0, r3
 80072aa:	f002 fb17 	bl	80098dc <RCCEx_PLL3_Config>
 80072ae:	4603      	mov	r3, r0
 80072b0:	f887 311f 	strb.w	r3, [r7, #287]	@ 0x11f
 80072b4:	e004      	b.n	80072c0 <HAL_RCCEx_PeriphCLKConfig+0x140>
 80072b6:	2301      	movs	r3, #1
 80072b8:	f887 311f 	strb.w	r3, [r7, #287]	@ 0x11f
 80072bc:	e000      	b.n	80072c0 <HAL_RCCEx_PeriphCLKConfig+0x140>
 80072be:	bf00      	nop
 80072c0:	f897 311f 	ldrb.w	r3, [r7, #287]	@ 0x11f
 80072c4:	2b00      	cmp	r3, #0
 80072c6:	d10a      	bne.n	80072de <HAL_RCCEx_PeriphCLKConfig+0x15e>
 80072c8:	4b6a      	ldr	r3, [pc, #424]	@ (8007474 <HAL_RCCEx_PeriphCLKConfig+0x2f4>)
 80072ca:	6d1b      	ldr	r3, [r3, #80]	@ 0x50
 80072cc:	f023 0107 	bic.w	r1, r3, #7
 80072d0:	f8d7 310c 	ldr.w	r3, [r7, #268]	@ 0x10c
 80072d4:	6d9b      	ldr	r3, [r3, #88]	@ 0x58
 80072d6:	4a67      	ldr	r2, [pc, #412]	@ (8007474 <HAL_RCCEx_PeriphCLKConfig+0x2f4>)
 80072d8:	430b      	orrs	r3, r1
 80072da:	6513      	str	r3, [r2, #80]	@ 0x50
 80072dc:	e003      	b.n	80072e6 <HAL_RCCEx_PeriphCLKConfig+0x166>
 80072de:	f897 311f 	ldrb.w	r3, [r7, #287]	@ 0x11f
 80072e2:	f887 311e 	strb.w	r3, [r7, #286]	@ 0x11e
 80072e6:	f8d7 310c 	ldr.w	r3, [r7, #268]	@ 0x10c
 80072ea:	e9d3 2300 	ldrd	r2, r3, [r3]
 80072ee:	f402 7a00 	and.w	sl, r2, #512	@ 0x200
 80072f2:	f04f 0b00 	mov.w	fp, #0
 80072f6:	ea5a 030b 	orrs.w	r3, sl, fp
 80072fa:	d054      	beq.n	80073a6 <HAL_RCCEx_PeriphCLKConfig+0x226>
 80072fc:	f8d7 310c 	ldr.w	r3, [r7, #268]	@ 0x10c
 8007300:	6ddb      	ldr	r3, [r3, #92]	@ 0x5c
 8007302:	f5b3 7fa0 	cmp.w	r3, #320	@ 0x140
 8007306:	d036      	beq.n	8007376 <HAL_RCCEx_PeriphCLKConfig+0x1f6>
 8007308:	f5b3 7fa0 	cmp.w	r3, #320	@ 0x140
 800730c:	d82f      	bhi.n	800736e <HAL_RCCEx_PeriphCLKConfig+0x1ee>
 800730e:	f5b3 7f80 	cmp.w	r3, #256	@ 0x100
 8007312:	d032      	beq.n	800737a <HAL_RCCEx_PeriphCLKConfig+0x1fa>
 8007314:	f5b3 7f80 	cmp.w	r3, #256	@ 0x100
 8007318:	d829      	bhi.n	800736e <HAL_RCCEx_PeriphCLKConfig+0x1ee>
 800731a:	2bc0      	cmp	r3, #192	@ 0xc0
 800731c:	d02f      	beq.n	800737e <HAL_RCCEx_PeriphCLKConfig+0x1fe>
 800731e:	2bc0      	cmp	r3, #192	@ 0xc0
 8007320:	d825      	bhi.n	800736e <HAL_RCCEx_PeriphCLKConfig+0x1ee>
 8007322:	2b80      	cmp	r3, #128	@ 0x80
 8007324:	d018      	beq.n	8007358 <HAL_RCCEx_PeriphCLKConfig+0x1d8>
 8007326:	2b80      	cmp	r3, #128	@ 0x80
 8007328:	d821      	bhi.n	800736e <HAL_RCCEx_PeriphCLKConfig+0x1ee>
 800732a:	2b00      	cmp	r3, #0
 800732c:	d002      	beq.n	8007334 <HAL_RCCEx_PeriphCLKConfig+0x1b4>
 800732e:	2b40      	cmp	r3, #64	@ 0x40
 8007330:	d007      	beq.n	8007342 <HAL_RCCEx_PeriphCLKConfig+0x1c2>
 8007332:	e01c      	b.n	800736e <HAL_RCCEx_PeriphCLKConfig+0x1ee>
 8007334:	4b4f      	ldr	r3, [pc, #316]	@ (8007474 <HAL_RCCEx_PeriphCLKConfig+0x2f4>)
 8007336:	6adb      	ldr	r3, [r3, #44]	@ 0x2c
 8007338:	4a4e      	ldr	r2, [pc, #312]	@ (8007474 <HAL_RCCEx_PeriphCLKConfig+0x2f4>)
 800733a:	f443 3300 	orr.w	r3, r3, #131072	@ 0x20000
 800733e:	62d3      	str	r3, [r2, #44]	@ 0x2c
 8007340:	e01e      	b.n	8007380 <HAL_RCCEx_PeriphCLKConfig+0x200>
 8007342:	f8d7 310c 	ldr.w	r3, [r7, #268]	@ 0x10c
 8007346:	3308      	adds	r3, #8
 8007348:	2100      	movs	r1, #0
 800734a:	4618      	mov	r0, r3
 800734c:	f002 fa14 	bl	8009778 <RCCEx_PLL2_Config>
 8007350:	4603      	mov	r3, r0
 8007352:	f887 311f 	strb.w	r3, [r7, #287]	@ 0x11f
 8007356:	e013      	b.n	8007380 <HAL_RCCEx_PeriphCLKConfig+0x200>
 8007358:	f8d7 310c 	ldr.w	r3, [r7, #268]	@ 0x10c
 800735c:	3328      	adds	r3, #40	@ 0x28
 800735e:	2100      	movs	r1, #0
 8007360:	4618      	mov	r0, r3
 8007362:	f002 fabb 	bl	80098dc <RCCEx_PLL3_Config>
 8007366:	4603      	mov	r3, r0
 8007368:	f887 311f 	strb.w	r3, [r7, #287]	@ 0x11f
 800736c:	e008      	b.n	8007380 <HAL_RCCEx_PeriphCLKConfig+0x200>
 800736e:	2301      	movs	r3, #1
 8007370:	f887 311f 	strb.w	r3, [r7, #287]	@ 0x11f
 8007374:	e004      	b.n	8007380 <HAL_RCCEx_PeriphCLKConfig+0x200>
 8007376:	bf00      	nop
 8007378:	e002      	b.n	8007380 <HAL_RCCEx_PeriphCLKConfig+0x200>
 800737a:	bf00      	nop
 800737c:	e000      	b.n	8007380 <HAL_RCCEx_PeriphCLKConfig+0x200>
 800737e:	bf00      	nop
 8007380:	f897 311f 	ldrb.w	r3, [r7, #287]	@ 0x11f
 8007384:	2b00      	cmp	r3, #0
 8007386:	d10a      	bne.n	800739e <HAL_RCCEx_PeriphCLKConfig+0x21e>
 8007388:	4b3a      	ldr	r3, [pc, #232]	@ (8007474 <HAL_RCCEx_PeriphCLKConfig+0x2f4>)
 800738a:	6d1b      	ldr	r3, [r3, #80]	@ 0x50
 800738c:	f423 71e0 	bic.w	r1, r3, #448	@ 0x1c0
 8007390:	f8d7 310c 	ldr.w	r3, [r7, #268]	@ 0x10c
 8007394:	6ddb      	ldr	r3, [r3, #92]	@ 0x5c
 8007396:	4a37      	ldr	r2, [pc, #220]	@ (8007474 <HAL_RCCEx_PeriphCLKConfig+0x2f4>)
 8007398:	430b      	orrs	r3, r1
 800739a:	6513      	str	r3, [r2, #80]	@ 0x50
 800739c:	e003      	b.n	80073a6 <HAL_RCCEx_PeriphCLKConfig+0x226>
 800739e:	f897 311f 	ldrb.w	r3, [r7, #287]	@ 0x11f
 80073a2:	f887 311e 	strb.w	r3, [r7, #286]	@ 0x11e
 80073a6:	f8d7 310c 	ldr.w	r3, [r7, #268]	@ 0x10c
 80073aa:	e9d3 2300 	ldrd	r2, r3, [r3]
 80073ae:	f402 6380 	and.w	r3, r2, #1024	@ 0x400
 80073b2:	f8c7 3100 	str.w	r3, [r7, #256]	@ 0x100
 80073b6:	2300      	movs	r3, #0
 80073b8:	f8c7 3104 	str.w	r3, [r7, #260]	@ 0x104
 80073bc:	e9d7 1240 	ldrd	r1, r2, [r7, #256]	@ 0x100
 80073c0:	460b      	mov	r3, r1
 80073c2:	4313      	orrs	r3, r2
 80073c4:	d05c      	beq.n	8007480 <HAL_RCCEx_PeriphCLKConfig+0x300>
 80073c6:	f8d7 310c 	ldr.w	r3, [r7, #268]	@ 0x10c
 80073ca:	6e1b      	ldr	r3, [r3, #96]	@ 0x60
 80073cc:	f5b3 6f20 	cmp.w	r3, #2560	@ 0xa00
 80073d0:	d03b      	beq.n	800744a <HAL_RCCEx_PeriphCLKConfig+0x2ca>
 80073d2:	f5b3 6f20 	cmp.w	r3, #2560	@ 0xa00
 80073d6:	d834      	bhi.n	8007442 <HAL_RCCEx_PeriphCLKConfig+0x2c2>
 80073d8:	f5b3 6f00 	cmp.w	r3, #2048	@ 0x800
 80073dc:	d037      	beq.n	800744e <HAL_RCCEx_PeriphCLKConfig+0x2ce>
 80073de:	f5b3 6f00 	cmp.w	r3, #2048	@ 0x800
 80073e2:	d82e      	bhi.n	8007442 <HAL_RCCEx_PeriphCLKConfig+0x2c2>
 80073e4:	f5b3 6fc0 	cmp.w	r3, #1536	@ 0x600
 80073e8:	d033      	beq.n	8007452 <HAL_RCCEx_PeriphCLKConfig+0x2d2>
 80073ea:	f5b3 6fc0 	cmp.w	r3, #1536	@ 0x600
 80073ee:	d828      	bhi.n	8007442 <HAL_RCCEx_PeriphCLKConfig+0x2c2>
 80073f0:	f5b3 6f80 	cmp.w	r3, #1024	@ 0x400
 80073f4:	d01a      	beq.n	800742c <HAL_RCCEx_PeriphCLKConfig+0x2ac>
 80073f6:	f5b3 6f80 	cmp.w	r3, #1024	@ 0x400
 80073fa:	d822      	bhi.n	8007442 <HAL_RCCEx_PeriphCLKConfig+0x2c2>
 80073fc:	2b00      	cmp	r3, #0
 80073fe:	d003      	beq.n	8007408 <HAL_RCCEx_PeriphCLKConfig+0x288>
 8007400:	f5b3 7f00 	cmp.w	r3, #512	@ 0x200
 8007404:	d007      	beq.n	8007416 <HAL_RCCEx_PeriphCLKConfig+0x296>
 8007406:	e01c      	b.n	8007442 <HAL_RCCEx_PeriphCLKConfig+0x2c2>
 8007408:	4b1a      	ldr	r3, [pc, #104]	@ (8007474 <HAL_RCCEx_PeriphCLKConfig+0x2f4>)
 800740a:	6adb      	ldr	r3, [r3, #44]	@ 0x2c
 800740c:	4a19      	ldr	r2, [pc, #100]	@ (8007474 <HAL_RCCEx_PeriphCLKConfig+0x2f4>)
 800740e:	f443 3300 	orr.w	r3, r3, #131072	@ 0x20000
 8007412:	62d3      	str	r3, [r2, #44]	@ 0x2c
 8007414:	e01e      	b.n	8007454 <HAL_RCCEx_PeriphCLKConfig+0x2d4>
 8007416:	f8d7 310c 	ldr.w	r3, [r7, #268]	@ 0x10c
 800741a:	3308      	adds	r3, #8
 800741c:	2100      	movs	r1, #0
 800741e:	4618      	mov	r0, r3
 8007420:	f002 f9aa 	bl	8009778 <RCCEx_PLL2_Config>
 8007424:	4603      	mov	r3, r0
 8007426:	f887 311f 	strb.w	r3, [r7, #287]	@ 0x11f
 800742a:	e013      	b.n	8007454 <HAL_RCCEx_PeriphCLKConfig+0x2d4>
 800742c:	f8d7 310c 	ldr.w	r3, [r7, #268]	@ 0x10c
 8007430:	3328      	adds	r3, #40	@ 0x28
 8007432:	2100      	movs	r1, #0
 8007434:	4618      	mov	r0, r3
 8007436:	f002 fa51 	bl	80098dc <RCCEx_PLL3_Config>
 800743a:	4603      	mov	r3, r0
 800743c:	f887 311f 	strb.w	r3, [r7, #287]	@ 0x11f
 8007440:	e008      	b.n	8007454 <HAL_RCCEx_PeriphCLKConfig+0x2d4>
 8007442:	2301      	movs	r3, #1
 8007444:	f887 311f 	strb.w	r3, [r7, #287]	@ 0x11f
 8007448:	e004      	b.n	8007454 <HAL_RCCEx_PeriphCLKConfig+0x2d4>
 800744a:	bf00      	nop
 800744c:	e002      	b.n	8007454 <HAL_RCCEx_PeriphCLKConfig+0x2d4>
 800744e:	bf00      	nop
 8007450:	e000      	b.n	8007454 <HAL_RCCEx_PeriphCLKConfig+0x2d4>
 8007452:	bf00      	nop
 8007454:	f897 311f 	ldrb.w	r3, [r7, #287]	@ 0x11f
 8007458:	2b00      	cmp	r3, #0
 800745a:	d10d      	bne.n	8007478 <HAL_RCCEx_PeriphCLKConfig+0x2f8>
 800745c:	4b05      	ldr	r3, [pc, #20]	@ (8007474 <HAL_RCCEx_PeriphCLKConfig+0x2f4>)
 800745e:	6d1b      	ldr	r3, [r3, #80]	@ 0x50
 8007460:	f423 6160 	bic.w	r1, r3, #3584	@ 0xe00
 8007464:	f8d7 310c 	ldr.w	r3, [r7, #268]	@ 0x10c
 8007468:	6e1b      	ldr	r3, [r3, #96]	@ 0x60
 800746a:	4a02      	ldr	r2, [pc, #8]	@ (8007474 <HAL_RCCEx_PeriphCLKConfig+0x2f4>)
 800746c:	430b      	orrs	r3, r1
 800746e:	6513      	str	r3, [r2, #80]	@ 0x50
 8007470:	e006      	b.n	8007480 <HAL_RCCEx_PeriphCLKConfig+0x300>
 8007472:	bf00      	nop
 8007474:	58024400 	.word	0x58024400
 8007478:	f897 311f 	ldrb.w	r3, [r7, #287]	@ 0x11f
 800747c:	f887 311e 	strb.w	r3, [r7, #286]	@ 0x11e
 8007480:	f8d7 310c 	ldr.w	r3, [r7, #268]	@ 0x10c
 8007484:	e9d3 2300 	ldrd	r2, r3, [r3]
 8007488:	f002 7300 	and.w	r3, r2, #33554432	@ 0x2000000
 800748c:	f8c7 30f8 	str.w	r3, [r7, #248]	@ 0xf8
 8007490:	2300      	movs	r3, #0
 8007492:	f8c7 30fc 	str.w	r3, [r7, #252]	@ 0xfc
 8007496:	e9d7 123e 	ldrd	r1, r2, [r7, #248]	@ 0xf8
 800749a:	460b      	mov	r3, r1
 800749c:	4313      	orrs	r3, r2
 800749e:	d03a      	beq.n	8007516 <HAL_RCCEx_PeriphCLKConfig+0x396>
 80074a0:	f8d7 310c 	ldr.w	r3, [r7, #268]	@ 0x10c
 80074a4:	6cdb      	ldr	r3, [r3, #76]	@ 0x4c
 80074a6:	2b30      	cmp	r3, #48	@ 0x30
 80074a8:	d01f      	beq.n	80074ea <HAL_RCCEx_PeriphCLKConfig+0x36a>
 80074aa:	2b30      	cmp	r3, #48	@ 0x30
 80074ac:	d819      	bhi.n	80074e2 <HAL_RCCEx_PeriphCLKConfig+0x362>
 80074ae:	2b20      	cmp	r3, #32
 80074b0:	d00c      	beq.n	80074cc <HAL_RCCEx_PeriphCLKConfig+0x34c>
 80074b2:	2b20      	cmp	r3, #32
 80074b4:	d815      	bhi.n	80074e2 <HAL_RCCEx_PeriphCLKConfig+0x362>
 80074b6:	2b00      	cmp	r3, #0
 80074b8:	d019      	beq.n	80074ee <HAL_RCCEx_PeriphCLKConfig+0x36e>
 80074ba:	2b10      	cmp	r3, #16
 80074bc:	d111      	bne.n	80074e2 <HAL_RCCEx_PeriphCLKConfig+0x362>
 80074be:	4bae      	ldr	r3, [pc, #696]	@ (8007778 <HAL_RCCEx_PeriphCLKConfig+0x5f8>)
 80074c0:	6adb      	ldr	r3, [r3, #44]	@ 0x2c
 80074c2:	4aad      	ldr	r2, [pc, #692]	@ (8007778 <HAL_RCCEx_PeriphCLKConfig+0x5f8>)
 80074c4:	f443 3300 	orr.w	r3, r3, #131072	@ 0x20000
 80074c8:	62d3      	str	r3, [r2, #44]	@ 0x2c
 80074ca:	e011      	b.n	80074f0 <HAL_RCCEx_PeriphCLKConfig+0x370>
 80074cc:	f8d7 310c 	ldr.w	r3, [r7, #268]	@ 0x10c
 80074d0:	3308      	adds	r3, #8
 80074d2:	2102      	movs	r1, #2
 80074d4:	4618      	mov	r0, r3
 80074d6:	f002 f94f 	bl	8009778 <RCCEx_PLL2_Config>
 80074da:	4603      	mov	r3, r0
 80074dc:	f887 311f 	strb.w	r3, [r7, #287]	@ 0x11f
 80074e0:	e006      	b.n	80074f0 <HAL_RCCEx_PeriphCLKConfig+0x370>
 80074e2:	2301      	movs	r3, #1
 80074e4:	f887 311f 	strb.w	r3, [r7, #287]	@ 0x11f
 80074e8:	e002      	b.n	80074f0 <HAL_RCCEx_PeriphCLKConfig+0x370>
 80074ea:	bf00      	nop
 80074ec:	e000      	b.n	80074f0 <HAL_RCCEx_PeriphCLKConfig+0x370>
 80074ee:	bf00      	nop
 80074f0:	f897 311f 	ldrb.w	r3, [r7, #287]	@ 0x11f
 80074f4:	2b00      	cmp	r3, #0
 80074f6:	d10a      	bne.n	800750e <HAL_RCCEx_PeriphCLKConfig+0x38e>
 80074f8:	4b9f      	ldr	r3, [pc, #636]	@ (8007778 <HAL_RCCEx_PeriphCLKConfig+0x5f8>)
 80074fa:	6cdb      	ldr	r3, [r3, #76]	@ 0x4c
 80074fc:	f023 0130 	bic.w	r1, r3, #48	@ 0x30
 8007500:	f8d7 310c 	ldr.w	r3, [r7, #268]	@ 0x10c
 8007504:	6cdb      	ldr	r3, [r3, #76]	@ 0x4c
 8007506:	4a9c      	ldr	r2, [pc, #624]	@ (8007778 <HAL_RCCEx_PeriphCLKConfig+0x5f8>)
 8007508:	430b      	orrs	r3, r1
 800750a:	64d3      	str	r3, [r2, #76]	@ 0x4c
 800750c:	e003      	b.n	8007516 <HAL_RCCEx_PeriphCLKConfig+0x396>
 800750e:	f897 311f 	ldrb.w	r3, [r7, #287]	@ 0x11f
 8007512:	f887 311e 	strb.w	r3, [r7, #286]	@ 0x11e
 8007516:	f8d7 310c 	ldr.w	r3, [r7, #268]	@ 0x10c
 800751a:	e9d3 2300 	ldrd	r2, r3, [r3]
 800751e:	f402 5380 	and.w	r3, r2, #4096	@ 0x1000
 8007522:	f8c7 30f0 	str.w	r3, [r7, #240]	@ 0xf0
 8007526:	2300      	movs	r3, #0
 8007528:	f8c7 30f4 	str.w	r3, [r7, #244]	@ 0xf4
 800752c:	e9d7 123c 	ldrd	r1, r2, [r7, #240]	@ 0xf0
 8007530:	460b      	mov	r3, r1
 8007532:	4313      	orrs	r3, r2
 8007534:	d051      	beq.n	80075da <HAL_RCCEx_PeriphCLKConfig+0x45a>
 8007536:	f8d7 310c 	ldr.w	r3, [r7, #268]	@ 0x10c
 800753a:	6e5b      	ldr	r3, [r3, #100]	@ 0x64
 800753c:	f5b3 4f80 	cmp.w	r3, #16384	@ 0x4000
 8007540:	d035      	beq.n	80075ae <HAL_RCCEx_PeriphCLKConfig+0x42e>
 8007542:	f5b3 4f80 	cmp.w	r3, #16384	@ 0x4000
 8007546:	d82e      	bhi.n	80075a6 <HAL_RCCEx_PeriphCLKConfig+0x426>
 8007548:	f5b3 5f40 	cmp.w	r3, #12288	@ 0x3000
 800754c:	d031      	beq.n	80075b2 <HAL_RCCEx_PeriphCLKConfig+0x432>
 800754e:	f5b3 5f40 	cmp.w	r3, #12288	@ 0x3000
 8007552:	d828      	bhi.n	80075a6 <HAL_RCCEx_PeriphCLKConfig+0x426>
 8007554:	f5b3 5f00 	cmp.w	r3, #8192	@ 0x2000
 8007558:	d01a      	beq.n	8007590 <HAL_RCCEx_PeriphCLKConfig+0x410>
 800755a:	f5b3 5f00 	cmp.w	r3, #8192	@ 0x2000
 800755e:	d822      	bhi.n	80075a6 <HAL_RCCEx_PeriphCLKConfig+0x426>
 8007560:	2b00      	cmp	r3, #0
 8007562:	d003      	beq.n	800756c <HAL_RCCEx_PeriphCLKConfig+0x3ec>
 8007564:	f5b3 5f80 	cmp.w	r3, #4096	@ 0x1000
 8007568:	d007      	beq.n	800757a <HAL_RCCEx_PeriphCLKConfig+0x3fa>
 800756a:	e01c      	b.n	80075a6 <HAL_RCCEx_PeriphCLKConfig+0x426>
 800756c:	4b82      	ldr	r3, [pc, #520]	@ (8007778 <HAL_RCCEx_PeriphCLKConfig+0x5f8>)
 800756e:	6adb      	ldr	r3, [r3, #44]	@ 0x2c
 8007570:	4a81      	ldr	r2, [pc, #516]	@ (8007778 <HAL_RCCEx_PeriphCLKConfig+0x5f8>)
 8007572:	f443 3300 	orr.w	r3, r3, #131072	@ 0x20000
 8007576:	62d3      	str	r3, [r2, #44]	@ 0x2c
 8007578:	e01c      	b.n	80075b4 <HAL_RCCEx_PeriphCLKConfig+0x434>
 800757a:	f8d7 310c 	ldr.w	r3, [r7, #268]	@ 0x10c
 800757e:	3308      	adds	r3, #8
 8007580:	2100      	movs	r1, #0
 8007582:	4618      	mov	r0, r3
 8007584:	f002 f8f8 	bl	8009778 <RCCEx_PLL2_Config>
 8007588:	4603      	mov	r3, r0
 800758a:	f887 311f 	strb.w	r3, [r7, #287]	@ 0x11f
 800758e:	e011      	b.n	80075b4 <HAL_RCCEx_PeriphCLKConfig+0x434>
 8007590:	f8d7 310c 	ldr.w	r3, [r7, #268]	@ 0x10c
 8007594:	3328      	adds	r3, #40	@ 0x28
 8007596:	2100      	movs	r1, #0
 8007598:	4618      	mov	r0, r3
 800759a:	f002 f99f 	bl	80098dc <RCCEx_PLL3_Config>
 800759e:	4603      	mov	r3, r0
 80075a0:	f887 311f 	strb.w	r3, [r7, #287]	@ 0x11f
 80075a4:	e006      	b.n	80075b4 <HAL_RCCEx_PeriphCLKConfig+0x434>
 80075a6:	2301      	movs	r3, #1
 80075a8:	f887 311f 	strb.w	r3, [r7, #287]	@ 0x11f
 80075ac:	e002      	b.n	80075b4 <HAL_RCCEx_PeriphCLKConfig+0x434>
 80075ae:	bf00      	nop
 80075b0:	e000      	b.n	80075b4 <HAL_RCCEx_PeriphCLKConfig+0x434>
 80075b2:	bf00      	nop
 80075b4:	f897 311f 	ldrb.w	r3, [r7, #287]	@ 0x11f
 80075b8:	2b00      	cmp	r3, #0
 80075ba:	d10a      	bne.n	80075d2 <HAL_RCCEx_PeriphCLKConfig+0x452>
 80075bc:	4b6e      	ldr	r3, [pc, #440]	@ (8007778 <HAL_RCCEx_PeriphCLKConfig+0x5f8>)
 80075be:	6d1b      	ldr	r3, [r3, #80]	@ 0x50
 80075c0:	f423 41e0 	bic.w	r1, r3, #28672	@ 0x7000
 80075c4:	f8d7 310c 	ldr.w	r3, [r7, #268]	@ 0x10c
 80075c8:	6e5b      	ldr	r3, [r3, #100]	@ 0x64
 80075ca:	4a6b      	ldr	r2, [pc, #428]	@ (8007778 <HAL_RCCEx_PeriphCLKConfig+0x5f8>)
 80075cc:	430b      	orrs	r3, r1
 80075ce:	6513      	str	r3, [r2, #80]	@ 0x50
 80075d0:	e003      	b.n	80075da <HAL_RCCEx_PeriphCLKConfig+0x45a>
 80075d2:	f897 311f 	ldrb.w	r3, [r7, #287]	@ 0x11f
 80075d6:	f887 311e 	strb.w	r3, [r7, #286]	@ 0x11e
 80075da:	f8d7 310c 	ldr.w	r3, [r7, #268]	@ 0x10c
 80075de:	e9d3 2300 	ldrd	r2, r3, [r3]
 80075e2:	f402 5300 	and.w	r3, r2, #8192	@ 0x2000
 80075e6:	f8c7 30e8 	str.w	r3, [r7, #232]	@ 0xe8
 80075ea:	2300      	movs	r3, #0
 80075ec:	f8c7 30ec 	str.w	r3, [r7, #236]	@ 0xec
 80075f0:	e9d7 123a 	ldrd	r1, r2, [r7, #232]	@ 0xe8
 80075f4:	460b      	mov	r3, r1
 80075f6:	4313      	orrs	r3, r2
 80075f8:	d053      	beq.n	80076a2 <HAL_RCCEx_PeriphCLKConfig+0x522>
 80075fa:	f8d7 310c 	ldr.w	r3, [r7, #268]	@ 0x10c
 80075fe:	6e9b      	ldr	r3, [r3, #104]	@ 0x68
 8007600:	f5b3 2fa0 	cmp.w	r3, #327680	@ 0x50000
 8007604:	d033      	beq.n	800766e <HAL_RCCEx_PeriphCLKConfig+0x4ee>
 8007606:	f5b3 2fa0 	cmp.w	r3, #327680	@ 0x50000
 800760a:	d82c      	bhi.n	8007666 <HAL_RCCEx_PeriphCLKConfig+0x4e6>
 800760c:	f5b3 2f80 	cmp.w	r3, #262144	@ 0x40000
 8007610:	d02f      	beq.n	8007672 <HAL_RCCEx_PeriphCLKConfig+0x4f2>
 8007612:	f5b3 2f80 	cmp.w	r3, #262144	@ 0x40000
 8007616:	d826      	bhi.n	8007666 <HAL_RCCEx_PeriphCLKConfig+0x4e6>
 8007618:	f5b3 3f40 	cmp.w	r3, #196608	@ 0x30000
 800761c:	d02b      	beq.n	8007676 <HAL_RCCEx_PeriphCLKConfig+0x4f6>
 800761e:	f5b3 3f40 	cmp.w	r3, #196608	@ 0x30000
 8007622:	d820      	bhi.n	8007666 <HAL_RCCEx_PeriphCLKConfig+0x4e6>
 8007624:	f5b3 3f00 	cmp.w	r3, #131072	@ 0x20000
 8007628:	d012      	beq.n	8007650 <HAL_RCCEx_PeriphCLKConfig+0x4d0>
 800762a:	f5b3 3f00 	cmp.w	r3, #131072	@ 0x20000
 800762e:	d81a      	bhi.n	8007666 <HAL_RCCEx_PeriphCLKConfig+0x4e6>
 8007630:	2b00      	cmp	r3, #0
 8007632:	d022      	beq.n	800767a <HAL_RCCEx_PeriphCLKConfig+0x4fa>
 8007634:	f5b3 3f80 	cmp.w	r3, #65536	@ 0x10000
 8007638:	d115      	bne.n	8007666 <HAL_RCCEx_PeriphCLKConfig+0x4e6>
 800763a:	f8d7 310c 	ldr.w	r3, [r7, #268]	@ 0x10c
 800763e:	3308      	adds	r3, #8
 8007640:	2101      	movs	r1, #1
 8007642:	4618      	mov	r0, r3
 8007644:	f002 f898 	bl	8009778 <RCCEx_PLL2_Config>
 8007648:	4603      	mov	r3, r0
 800764a:	f887 311f 	strb.w	r3, [r7, #287]	@ 0x11f
 800764e:	e015      	b.n	800767c <HAL_RCCEx_PeriphCLKConfig+0x4fc>
 8007650:	f8d7 310c 	ldr.w	r3, [r7, #268]	@ 0x10c
 8007654:	3328      	adds	r3, #40	@ 0x28
 8007656:	2101      	movs	r1, #1
 8007658:	4618      	mov	r0, r3
 800765a:	f002 f93f 	bl	80098dc <RCCEx_PLL3_Config>
 800765e:	4603      	mov	r3, r0
 8007660:	f887 311f 	strb.w	r3, [r7, #287]	@ 0x11f
 8007664:	e00a      	b.n	800767c <HAL_RCCEx_PeriphCLKConfig+0x4fc>
 8007666:	2301      	movs	r3, #1
 8007668:	f887 311f 	strb.w	r3, [r7, #287]	@ 0x11f
 800766c:	e006      	b.n	800767c <HAL_RCCEx_PeriphCLKConfig+0x4fc>
 800766e:	bf00      	nop
 8007670:	e004      	b.n	800767c <HAL_RCCEx_PeriphCLKConfig+0x4fc>
 8007672:	bf00      	nop
 8007674:	e002      	b.n	800767c <HAL_RCCEx_PeriphCLKConfig+0x4fc>
 8007676:	bf00      	nop
 8007678:	e000      	b.n	800767c <HAL_RCCEx_PeriphCLKConfig+0x4fc>
 800767a:	bf00      	nop
 800767c:	f897 311f 	ldrb.w	r3, [r7, #287]	@ 0x11f
 8007680:	2b00      	cmp	r3, #0
 8007682:	d10a      	bne.n	800769a <HAL_RCCEx_PeriphCLKConfig+0x51a>
 8007684:	4b3c      	ldr	r3, [pc, #240]	@ (8007778 <HAL_RCCEx_PeriphCLKConfig+0x5f8>)
 8007686:	6d1b      	ldr	r3, [r3, #80]	@ 0x50
 8007688:	f423 21e0 	bic.w	r1, r3, #458752	@ 0x70000
 800768c:	f8d7 310c 	ldr.w	r3, [r7, #268]	@ 0x10c
 8007690:	6e9b      	ldr	r3, [r3, #104]	@ 0x68
 8007692:	4a39      	ldr	r2, [pc, #228]	@ (8007778 <HAL_RCCEx_PeriphCLKConfig+0x5f8>)
 8007694:	430b      	orrs	r3, r1
 8007696:	6513      	str	r3, [r2, #80]	@ 0x50
 8007698:	e003      	b.n	80076a2 <HAL_RCCEx_PeriphCLKConfig+0x522>
 800769a:	f897 311f 	ldrb.w	r3, [r7, #287]	@ 0x11f
 800769e:	f887 311e 	strb.w	r3, [r7, #286]	@ 0x11e
 80076a2:	f8d7 310c 	ldr.w	r3, [r7, #268]	@ 0x10c
 80076a6:	e9d3 2300 	ldrd	r2, r3, [r3]
 80076aa:	f402 4380 	and.w	r3, r2, #16384	@ 0x4000
 80076ae:	f8c7 30e0 	str.w	r3, [r7, #224]	@ 0xe0
 80076b2:	2300      	movs	r3, #0
 80076b4:	f8c7 30e4 	str.w	r3, [r7, #228]	@ 0xe4
 80076b8:	e9d7 1238 	ldrd	r1, r2, [r7, #224]	@ 0xe0
 80076bc:	460b      	mov	r3, r1
 80076be:	4313      	orrs	r3, r2
 80076c0:	d060      	beq.n	8007784 <HAL_RCCEx_PeriphCLKConfig+0x604>
 80076c2:	f8d7 310c 	ldr.w	r3, [r7, #268]	@ 0x10c
 80076c6:	f8d3 30b0 	ldr.w	r3, [r3, #176]	@ 0xb0
 80076ca:	f1b3 4fc0 	cmp.w	r3, #1610612736	@ 0x60000000
 80076ce:	d039      	beq.n	8007744 <HAL_RCCEx_PeriphCLKConfig+0x5c4>
 80076d0:	f1b3 4fc0 	cmp.w	r3, #1610612736	@ 0x60000000
 80076d4:	d832      	bhi.n	800773c <HAL_RCCEx_PeriphCLKConfig+0x5bc>
 80076d6:	f1b3 4fa0 	cmp.w	r3, #1342177280	@ 0x50000000
 80076da:	d035      	beq.n	8007748 <HAL_RCCEx_PeriphCLKConfig+0x5c8>
 80076dc:	f1b3 4fa0 	cmp.w	r3, #1342177280	@ 0x50000000
 80076e0:	d82c      	bhi.n	800773c <HAL_RCCEx_PeriphCLKConfig+0x5bc>
 80076e2:	f1b3 4f80 	cmp.w	r3, #1073741824	@ 0x40000000
 80076e6:	d031      	beq.n	800774c <HAL_RCCEx_PeriphCLKConfig+0x5cc>
 80076e8:	f1b3 4f80 	cmp.w	r3, #1073741824	@ 0x40000000
 80076ec:	d826      	bhi.n	800773c <HAL_RCCEx_PeriphCLKConfig+0x5bc>
 80076ee:	f1b3 5f40 	cmp.w	r3, #805306368	@ 0x30000000
 80076f2:	d02d      	beq.n	8007750 <HAL_RCCEx_PeriphCLKConfig+0x5d0>
 80076f4:	f1b3 5f40 	cmp.w	r3, #805306368	@ 0x30000000
 80076f8:	d820      	bhi.n	800773c <HAL_RCCEx_PeriphCLKConfig+0x5bc>
 80076fa:	f1b3 5f00 	cmp.w	r3, #536870912	@ 0x20000000
 80076fe:	d012      	beq.n	8007726 <HAL_RCCEx_PeriphCLKConfig+0x5a6>
 8007700:	f1b3 5f00 	cmp.w	r3, #536870912	@ 0x20000000
 8007704:	d81a      	bhi.n	800773c <HAL_RCCEx_PeriphCLKConfig+0x5bc>
 8007706:	2b00      	cmp	r3, #0
 8007708:	d024      	beq.n	8007754 <HAL_RCCEx_PeriphCLKConfig+0x5d4>
 800770a:	f1b3 5f80 	cmp.w	r3, #268435456	@ 0x10000000
 800770e:	d115      	bne.n	800773c <HAL_RCCEx_PeriphCLKConfig+0x5bc>
 8007710:	f8d7 310c 	ldr.w	r3, [r7, #268]	@ 0x10c
 8007714:	3308      	adds	r3, #8
 8007716:	2101      	movs	r1, #1
 8007718:	4618      	mov	r0, r3
 800771a:	f002 f82d 	bl	8009778 <RCCEx_PLL2_Config>
 800771e:	4603      	mov	r3, r0
 8007720:	f887 311f 	strb.w	r3, [r7, #287]	@ 0x11f
 8007724:	e017      	b.n	8007756 <HAL_RCCEx_PeriphCLKConfig+0x5d6>
 8007726:	f8d7 310c 	ldr.w	r3, [r7, #268]	@ 0x10c
 800772a:	3328      	adds	r3, #40	@ 0x28
 800772c:	2101      	movs	r1, #1
 800772e:	4618      	mov	r0, r3
 8007730:	f002 f8d4 	bl	80098dc <RCCEx_PLL3_Config>
 8007734:	4603      	mov	r3, r0
 8007736:	f887 311f 	strb.w	r3, [r7, #287]	@ 0x11f
 800773a:	e00c      	b.n	8007756 <HAL_RCCEx_PeriphCLKConfig+0x5d6>
 800773c:	2301      	movs	r3, #1
 800773e:	f887 311f 	strb.w	r3, [r7, #287]	@ 0x11f
 8007742:	e008      	b.n	8007756 <HAL_RCCEx_PeriphCLKConfig+0x5d6>
 8007744:	bf00      	nop
 8007746:	e006      	b.n	8007756 <HAL_RCCEx_PeriphCLKConfig+0x5d6>
 8007748:	bf00      	nop
 800774a:	e004      	b.n	8007756 <HAL_RCCEx_PeriphCLKConfig+0x5d6>
 800774c:	bf00      	nop
 800774e:	e002      	b.n	8007756 <HAL_RCCEx_PeriphCLKConfig+0x5d6>
 8007750:	bf00      	nop
 8007752:	e000      	b.n	8007756 <HAL_RCCEx_PeriphCLKConfig+0x5d6>
 8007754:	bf00      	nop
 8007756:	f897 311f 	ldrb.w	r3, [r7, #287]	@ 0x11f
 800775a:	2b00      	cmp	r3, #0
 800775c:	d10e      	bne.n	800777c <HAL_RCCEx_PeriphCLKConfig+0x5fc>
 800775e:	4b06      	ldr	r3, [pc, #24]	@ (8007778 <HAL_RCCEx_PeriphCLKConfig+0x5f8>)
 8007760:	6d9b      	ldr	r3, [r3, #88]	@ 0x58
 8007762:	f023 41e0 	bic.w	r1, r3, #1879048192	@ 0x70000000
 8007766:	f8d7 310c 	ldr.w	r3, [r7, #268]	@ 0x10c
 800776a:	f8d3 30b0 	ldr.w	r3, [r3, #176]	@ 0xb0
 800776e:	4a02      	ldr	r2, [pc, #8]	@ (8007778 <HAL_RCCEx_PeriphCLKConfig+0x5f8>)
 8007770:	430b      	orrs	r3, r1
 8007772:	6593      	str	r3, [r2, #88]	@ 0x58
 8007774:	e006      	b.n	8007784 <HAL_RCCEx_PeriphCLKConfig+0x604>
 8007776:	bf00      	nop
 8007778:	58024400 	.word	0x58024400
 800777c:	f897 311f 	ldrb.w	r3, [r7, #287]	@ 0x11f
 8007780:	f887 311e 	strb.w	r3, [r7, #286]	@ 0x11e
 8007784:	f8d7 310c 	ldr.w	r3, [r7, #268]	@ 0x10c
 8007788:	e9d3 2300 	ldrd	r2, r3, [r3]
 800778c:	f402 4300 	and.w	r3, r2, #32768	@ 0x8000
 8007790:	f8c7 30d8 	str.w	r3, [r7, #216]	@ 0xd8
 8007794:	2300      	movs	r3, #0
 8007796:	f8c7 30dc 	str.w	r3, [r7, #220]	@ 0xdc
 800779a:	e9d7 1236 	ldrd	r1, r2, [r7, #216]	@ 0xd8
 800779e:	460b      	mov	r3, r1
 80077a0:	4313      	orrs	r3, r2
 80077a2:	d037      	beq.n	8007814 <HAL_RCCEx_PeriphCLKConfig+0x694>
 80077a4:	f8d7 310c 	ldr.w	r3, [r7, #268]	@ 0x10c
 80077a8:	6f9b      	ldr	r3, [r3, #120]	@ 0x78
 80077aa:	f1b3 5f00 	cmp.w	r3, #536870912	@ 0x20000000
 80077ae:	d00e      	beq.n	80077ce <HAL_RCCEx_PeriphCLKConfig+0x64e>
 80077b0:	f1b3 5f00 	cmp.w	r3, #536870912	@ 0x20000000
 80077b4:	d816      	bhi.n	80077e4 <HAL_RCCEx_PeriphCLKConfig+0x664>
 80077b6:	2b00      	cmp	r3, #0
 80077b8:	d018      	beq.n	80077ec <HAL_RCCEx_PeriphCLKConfig+0x66c>
 80077ba:	f1b3 5f80 	cmp.w	r3, #268435456	@ 0x10000000
 80077be:	d111      	bne.n	80077e4 <HAL_RCCEx_PeriphCLKConfig+0x664>
 80077c0:	4bc4      	ldr	r3, [pc, #784]	@ (8007ad4 <HAL_RCCEx_PeriphCLKConfig+0x954>)
 80077c2:	6adb      	ldr	r3, [r3, #44]	@ 0x2c
 80077c4:	4ac3      	ldr	r2, [pc, #780]	@ (8007ad4 <HAL_RCCEx_PeriphCLKConfig+0x954>)
 80077c6:	f443 3300 	orr.w	r3, r3, #131072	@ 0x20000
 80077ca:	62d3      	str	r3, [r2, #44]	@ 0x2c
 80077cc:	e00f      	b.n	80077ee <HAL_RCCEx_PeriphCLKConfig+0x66e>
 80077ce:	f8d7 310c 	ldr.w	r3, [r7, #268]	@ 0x10c
 80077d2:	3308      	adds	r3, #8
 80077d4:	2101      	movs	r1, #1
 80077d6:	4618      	mov	r0, r3
 80077d8:	f001 ffce 	bl	8009778 <RCCEx_PLL2_Config>
 80077dc:	4603      	mov	r3, r0
 80077de:	f887 311f 	strb.w	r3, [r7, #287]	@ 0x11f
 80077e2:	e004      	b.n	80077ee <HAL_RCCEx_PeriphCLKConfig+0x66e>
 80077e4:	2301      	movs	r3, #1
 80077e6:	f887 311f 	strb.w	r3, [r7, #287]	@ 0x11f
 80077ea:	e000      	b.n	80077ee <HAL_RCCEx_PeriphCLKConfig+0x66e>
 80077ec:	bf00      	nop
 80077ee:	f897 311f 	ldrb.w	r3, [r7, #287]	@ 0x11f
 80077f2:	2b00      	cmp	r3, #0
 80077f4:	d10a      	bne.n	800780c <HAL_RCCEx_PeriphCLKConfig+0x68c>
 80077f6:	4bb7      	ldr	r3, [pc, #732]	@ (8007ad4 <HAL_RCCEx_PeriphCLKConfig+0x954>)
 80077f8:	6d1b      	ldr	r3, [r3, #80]	@ 0x50
 80077fa:	f023 5140 	bic.w	r1, r3, #805306368	@ 0x30000000
 80077fe:	f8d7 310c 	ldr.w	r3, [r7, #268]	@ 0x10c
 8007802:	6f9b      	ldr	r3, [r3, #120]	@ 0x78
 8007804:	4ab3      	ldr	r2, [pc, #716]	@ (8007ad4 <HAL_RCCEx_PeriphCLKConfig+0x954>)
 8007806:	430b      	orrs	r3, r1
 8007808:	6513      	str	r3, [r2, #80]	@ 0x50
 800780a:	e003      	b.n	8007814 <HAL_RCCEx_PeriphCLKConfig+0x694>
 800780c:	f897 311f 	ldrb.w	r3, [r7, #287]	@ 0x11f
 8007810:	f887 311e 	strb.w	r3, [r7, #286]	@ 0x11e
 8007814:	f8d7 310c 	ldr.w	r3, [r7, #268]	@ 0x10c
 8007818:	e9d3 2300 	ldrd	r2, r3, [r3]
 800781c:	f002 7380 	and.w	r3, r2, #16777216	@ 0x1000000
 8007820:	f8c7 30d0 	str.w	r3, [r7, #208]	@ 0xd0
 8007824:	2300      	movs	r3, #0
 8007826:	f8c7 30d4 	str.w	r3, [r7, #212]	@ 0xd4
 800782a:	e9d7 1234 	ldrd	r1, r2, [r7, #208]	@ 0xd0
 800782e:	460b      	mov	r3, r1
 8007830:	4313      	orrs	r3, r2
 8007832:	d039      	beq.n	80078a8 <HAL_RCCEx_PeriphCLKConfig+0x728>
 8007834:	f8d7 310c 	ldr.w	r3, [r7, #268]	@ 0x10c
 8007838:	6c9b      	ldr	r3, [r3, #72]	@ 0x48
 800783a:	2b03      	cmp	r3, #3
 800783c:	d81c      	bhi.n	8007878 <HAL_RCCEx_PeriphCLKConfig+0x6f8>
 800783e:	a201      	add	r2, pc, #4	@ (adr r2, 8007844 <HAL_RCCEx_PeriphCLKConfig+0x6c4>)
 8007840:	f852 f023 	ldr.w	pc, [r2, r3, lsl #2]
 8007844:	08007881 	.word	0x08007881
 8007848:	08007855 	.word	0x08007855
 800784c:	08007863 	.word	0x08007863
 8007850:	08007881 	.word	0x08007881
 8007854:	4b9f      	ldr	r3, [pc, #636]	@ (8007ad4 <HAL_RCCEx_PeriphCLKConfig+0x954>)
 8007856:	6adb      	ldr	r3, [r3, #44]	@ 0x2c
 8007858:	4a9e      	ldr	r2, [pc, #632]	@ (8007ad4 <HAL_RCCEx_PeriphCLKConfig+0x954>)
 800785a:	f443 3300 	orr.w	r3, r3, #131072	@ 0x20000
 800785e:	62d3      	str	r3, [r2, #44]	@ 0x2c
 8007860:	e00f      	b.n	8007882 <HAL_RCCEx_PeriphCLKConfig+0x702>
 8007862:	f8d7 310c 	ldr.w	r3, [r7, #268]	@ 0x10c
 8007866:	3308      	adds	r3, #8
 8007868:	2102      	movs	r1, #2
 800786a:	4618      	mov	r0, r3
 800786c:	f001 ff84 	bl	8009778 <RCCEx_PLL2_Config>
 8007870:	4603      	mov	r3, r0
 8007872:	f887 311f 	strb.w	r3, [r7, #287]	@ 0x11f
 8007876:	e004      	b.n	8007882 <HAL_RCCEx_PeriphCLKConfig+0x702>
 8007878:	2301      	movs	r3, #1
 800787a:	f887 311f 	strb.w	r3, [r7, #287]	@ 0x11f
 800787e:	e000      	b.n	8007882 <HAL_RCCEx_PeriphCLKConfig+0x702>
 8007880:	bf00      	nop
 8007882:	f897 311f 	ldrb.w	r3, [r7, #287]	@ 0x11f
 8007886:	2b00      	cmp	r3, #0
 8007888:	d10a      	bne.n	80078a0 <HAL_RCCEx_PeriphCLKConfig+0x720>
 800788a:	4b92      	ldr	r3, [pc, #584]	@ (8007ad4 <HAL_RCCEx_PeriphCLKConfig+0x954>)
 800788c:	6cdb      	ldr	r3, [r3, #76]	@ 0x4c
 800788e:	f023 0103 	bic.w	r1, r3, #3
 8007892:	f8d7 310c 	ldr.w	r3, [r7, #268]	@ 0x10c
 8007896:	6c9b      	ldr	r3, [r3, #72]	@ 0x48
 8007898:	4a8e      	ldr	r2, [pc, #568]	@ (8007ad4 <HAL_RCCEx_PeriphCLKConfig+0x954>)
 800789a:	430b      	orrs	r3, r1
 800789c:	64d3      	str	r3, [r2, #76]	@ 0x4c
 800789e:	e003      	b.n	80078a8 <HAL_RCCEx_PeriphCLKConfig+0x728>
 80078a0:	f897 311f 	ldrb.w	r3, [r7, #287]	@ 0x11f
 80078a4:	f887 311e 	strb.w	r3, [r7, #286]	@ 0x11e
 80078a8:	f8d7 310c 	ldr.w	r3, [r7, #268]	@ 0x10c
 80078ac:	e9d3 2300 	ldrd	r2, r3, [r3]
 80078b0:	f402 0380 	and.w	r3, r2, #4194304	@ 0x400000
 80078b4:	f8c7 30c8 	str.w	r3, [r7, #200]	@ 0xc8
 80078b8:	2300      	movs	r3, #0
 80078ba:	f8c7 30cc 	str.w	r3, [r7, #204]	@ 0xcc
 80078be:	e9d7 1232 	ldrd	r1, r2, [r7, #200]	@ 0xc8
 80078c2:	460b      	mov	r3, r1
 80078c4:	4313      	orrs	r3, r2
 80078c6:	f000 8099 	beq.w	80079fc <HAL_RCCEx_PeriphCLKConfig+0x87c>
 80078ca:	4b83      	ldr	r3, [pc, #524]	@ (8007ad8 <HAL_RCCEx_PeriphCLKConfig+0x958>)
 80078cc:	681b      	ldr	r3, [r3, #0]
 80078ce:	4a82      	ldr	r2, [pc, #520]	@ (8007ad8 <HAL_RCCEx_PeriphCLKConfig+0x958>)
 80078d0:	f443 7380 	orr.w	r3, r3, #256	@ 0x100
 80078d4:	6013      	str	r3, [r2, #0]
 80078d6:	f7f9 fc9f 	bl	8001218 <HAL_GetTick>
 80078da:	f8c7 0118 	str.w	r0, [r7, #280]	@ 0x118
 80078de:	e00b      	b.n	80078f8 <HAL_RCCEx_PeriphCLKConfig+0x778>
 80078e0:	f7f9 fc9a 	bl	8001218 <HAL_GetTick>
 80078e4:	4602      	mov	r2, r0
 80078e6:	f8d7 3118 	ldr.w	r3, [r7, #280]	@ 0x118
 80078ea:	1ad3      	subs	r3, r2, r3
 80078ec:	2b64      	cmp	r3, #100	@ 0x64
 80078ee:	d903      	bls.n	80078f8 <HAL_RCCEx_PeriphCLKConfig+0x778>
 80078f0:	2303      	movs	r3, #3
 80078f2:	f887 311f 	strb.w	r3, [r7, #287]	@ 0x11f
 80078f6:	e005      	b.n	8007904 <HAL_RCCEx_PeriphCLKConfig+0x784>
 80078f8:	4b77      	ldr	r3, [pc, #476]	@ (8007ad8 <HAL_RCCEx_PeriphCLKConfig+0x958>)
 80078fa:	681b      	ldr	r3, [r3, #0]
 80078fc:	f403 7380 	and.w	r3, r3, #256	@ 0x100
 8007900:	2b00      	cmp	r3, #0
 8007902:	d0ed      	beq.n	80078e0 <HAL_RCCEx_PeriphCLKConfig+0x760>
 8007904:	f897 311f 	ldrb.w	r3, [r7, #287]	@ 0x11f
 8007908:	2b00      	cmp	r3, #0
 800790a:	d173      	bne.n	80079f4 <HAL_RCCEx_PeriphCLKConfig+0x874>
 800790c:	4b71      	ldr	r3, [pc, #452]	@ (8007ad4 <HAL_RCCEx_PeriphCLKConfig+0x954>)
 800790e:	6f1a      	ldr	r2, [r3, #112]	@ 0x70
 8007910:	f8d7 310c 	ldr.w	r3, [r7, #268]	@ 0x10c
 8007914:	f8d3 30b4 	ldr.w	r3, [r3, #180]	@ 0xb4
 8007918:	4053      	eors	r3, r2
 800791a:	f403 7340 	and.w	r3, r3, #768	@ 0x300
 800791e:	2b00      	cmp	r3, #0
 8007920:	d015      	beq.n	800794e <HAL_RCCEx_PeriphCLKConfig+0x7ce>
 8007922:	4b6c      	ldr	r3, [pc, #432]	@ (8007ad4 <HAL_RCCEx_PeriphCLKConfig+0x954>)
 8007924:	6f1b      	ldr	r3, [r3, #112]	@ 0x70
 8007926:	f423 7340 	bic.w	r3, r3, #768	@ 0x300
 800792a:	f8c7 3114 	str.w	r3, [r7, #276]	@ 0x114
 800792e:	4b69      	ldr	r3, [pc, #420]	@ (8007ad4 <HAL_RCCEx_PeriphCLKConfig+0x954>)
 8007930:	6f1b      	ldr	r3, [r3, #112]	@ 0x70
 8007932:	4a68      	ldr	r2, [pc, #416]	@ (8007ad4 <HAL_RCCEx_PeriphCLKConfig+0x954>)
 8007934:	f443 3380 	orr.w	r3, r3, #65536	@ 0x10000
 8007938:	6713      	str	r3, [r2, #112]	@ 0x70
 800793a:	4b66      	ldr	r3, [pc, #408]	@ (8007ad4 <HAL_RCCEx_PeriphCLKConfig+0x954>)
 800793c:	6f1b      	ldr	r3, [r3, #112]	@ 0x70
 800793e:	4a65      	ldr	r2, [pc, #404]	@ (8007ad4 <HAL_RCCEx_PeriphCLKConfig+0x954>)
 8007940:	f423 3380 	bic.w	r3, r3, #65536	@ 0x10000
 8007944:	6713      	str	r3, [r2, #112]	@ 0x70
 8007946:	4a63      	ldr	r2, [pc, #396]	@ (8007ad4 <HAL_RCCEx_PeriphCLKConfig+0x954>)
 8007948:	f8d7 3114 	ldr.w	r3, [r7, #276]	@ 0x114
 800794c:	6713      	str	r3, [r2, #112]	@ 0x70
 800794e:	f8d7 310c 	ldr.w	r3, [r7, #268]	@ 0x10c
 8007952:	f8d3 30b4 	ldr.w	r3, [r3, #180]	@ 0xb4
 8007956:	f5b3 7f80 	cmp.w	r3, #256	@ 0x100
 800795a:	d118      	bne.n	800798e <HAL_RCCEx_PeriphCLKConfig+0x80e>
 800795c:	f7f9 fc5c 	bl	8001218 <HAL_GetTick>
 8007960:	f8c7 0118 	str.w	r0, [r7, #280]	@ 0x118
 8007964:	e00d      	b.n	8007982 <HAL_RCCEx_PeriphCLKConfig+0x802>
 8007966:	f7f9 fc57 	bl	8001218 <HAL_GetTick>
 800796a:	4602      	mov	r2, r0
 800796c:	f8d7 3118 	ldr.w	r3, [r7, #280]	@ 0x118
 8007970:	1ad2      	subs	r2, r2, r3
 8007972:	f241 3388 	movw	r3, #5000	@ 0x1388
 8007976:	429a      	cmp	r2, r3
 8007978:	d903      	bls.n	8007982 <HAL_RCCEx_PeriphCLKConfig+0x802>
 800797a:	2303      	movs	r3, #3
 800797c:	f887 311f 	strb.w	r3, [r7, #287]	@ 0x11f
 8007980:	e005      	b.n	800798e <HAL_RCCEx_PeriphCLKConfig+0x80e>
 8007982:	4b54      	ldr	r3, [pc, #336]	@ (8007ad4 <HAL_RCCEx_PeriphCLKConfig+0x954>)
 8007984:	6f1b      	ldr	r3, [r3, #112]	@ 0x70
 8007986:	f003 0302 	and.w	r3, r3, #2
 800798a:	2b00      	cmp	r3, #0
 800798c:	d0eb      	beq.n	8007966 <HAL_RCCEx_PeriphCLKConfig+0x7e6>
 800798e:	f897 311f 	ldrb.w	r3, [r7, #287]	@ 0x11f
 8007992:	2b00      	cmp	r3, #0
 8007994:	d129      	bne.n	80079ea <HAL_RCCEx_PeriphCLKConfig+0x86a>
 8007996:	f8d7 310c 	ldr.w	r3, [r7, #268]	@ 0x10c
 800799a:	f8d3 30b4 	ldr.w	r3, [r3, #180]	@ 0xb4
 800799e:	f403 7340 	and.w	r3, r3, #768	@ 0x300
 80079a2:	f5b3 7f40 	cmp.w	r3, #768	@ 0x300
 80079a6:	d10e      	bne.n	80079c6 <HAL_RCCEx_PeriphCLKConfig+0x846>
 80079a8:	4b4a      	ldr	r3, [pc, #296]	@ (8007ad4 <HAL_RCCEx_PeriphCLKConfig+0x954>)
 80079aa:	691b      	ldr	r3, [r3, #16]
 80079ac:	f423 517c 	bic.w	r1, r3, #16128	@ 0x3f00
 80079b0:	f8d7 310c 	ldr.w	r3, [r7, #268]	@ 0x10c
 80079b4:	f8d3 30b4 	ldr.w	r3, [r3, #180]	@ 0xb4
 80079b8:	091a      	lsrs	r2, r3, #4
 80079ba:	4b48      	ldr	r3, [pc, #288]	@ (8007adc <HAL_RCCEx_PeriphCLKConfig+0x95c>)
 80079bc:	4013      	ands	r3, r2
 80079be:	4a45      	ldr	r2, [pc, #276]	@ (8007ad4 <HAL_RCCEx_PeriphCLKConfig+0x954>)
 80079c0:	430b      	orrs	r3, r1
 80079c2:	6113      	str	r3, [r2, #16]
 80079c4:	e005      	b.n	80079d2 <HAL_RCCEx_PeriphCLKConfig+0x852>
 80079c6:	4b43      	ldr	r3, [pc, #268]	@ (8007ad4 <HAL_RCCEx_PeriphCLKConfig+0x954>)
 80079c8:	691b      	ldr	r3, [r3, #16]
 80079ca:	4a42      	ldr	r2, [pc, #264]	@ (8007ad4 <HAL_RCCEx_PeriphCLKConfig+0x954>)
 80079cc:	f423 537c 	bic.w	r3, r3, #16128	@ 0x3f00
 80079d0:	6113      	str	r3, [r2, #16]
 80079d2:	4b40      	ldr	r3, [pc, #256]	@ (8007ad4 <HAL_RCCEx_PeriphCLKConfig+0x954>)
 80079d4:	6f19      	ldr	r1, [r3, #112]	@ 0x70
 80079d6:	f8d7 310c 	ldr.w	r3, [r7, #268]	@ 0x10c
 80079da:	f8d3 30b4 	ldr.w	r3, [r3, #180]	@ 0xb4
 80079de:	f3c3 030b 	ubfx	r3, r3, #0, #12
 80079e2:	4a3c      	ldr	r2, [pc, #240]	@ (8007ad4 <HAL_RCCEx_PeriphCLKConfig+0x954>)
 80079e4:	430b      	orrs	r3, r1
 80079e6:	6713      	str	r3, [r2, #112]	@ 0x70
 80079e8:	e008      	b.n	80079fc <HAL_RCCEx_PeriphCLKConfig+0x87c>
 80079ea:	f897 311f 	ldrb.w	r3, [r7, #287]	@ 0x11f
 80079ee:	f887 311e 	strb.w	r3, [r7, #286]	@ 0x11e
 80079f2:	e003      	b.n	80079fc <HAL_RCCEx_PeriphCLKConfig+0x87c>
 80079f4:	f897 311f 	ldrb.w	r3, [r7, #287]	@ 0x11f
 80079f8:	f887 311e 	strb.w	r3, [r7, #286]	@ 0x11e
 80079fc:	f8d7 310c 	ldr.w	r3, [r7, #268]	@ 0x10c
 8007a00:	e9d3 2300 	ldrd	r2, r3, [r3]
 8007a04:	f002 0301 	and.w	r3, r2, #1
 8007a08:	f8c7 30c0 	str.w	r3, [r7, #192]	@ 0xc0
 8007a0c:	2300      	movs	r3, #0
 8007a0e:	f8c7 30c4 	str.w	r3, [r7, #196]	@ 0xc4
 8007a12:	e9d7 1230 	ldrd	r1, r2, [r7, #192]	@ 0xc0
 8007a16:	460b      	mov	r3, r1
 8007a18:	4313      	orrs	r3, r2
 8007a1a:	f000 8090 	beq.w	8007b3e <HAL_RCCEx_PeriphCLKConfig+0x9be>
 8007a1e:	f8d7 310c 	ldr.w	r3, [r7, #268]	@ 0x10c
 8007a22:	f8d3 3084 	ldr.w	r3, [r3, #132]	@ 0x84
 8007a26:	2b28      	cmp	r3, #40	@ 0x28
 8007a28:	d870      	bhi.n	8007b0c <HAL_RCCEx_PeriphCLKConfig+0x98c>
 8007a2a:	a201      	add	r2, pc, #4	@ (adr r2, 8007a30 <HAL_RCCEx_PeriphCLKConfig+0x8b0>)
 8007a2c:	f852 f023 	ldr.w	pc, [r2, r3, lsl #2]
 8007a30:	08007b15 	.word	0x08007b15
 8007a34:	08007b0d 	.word	0x08007b0d
 8007a38:	08007b0d 	.word	0x08007b0d
 8007a3c:	08007b0d 	.word	0x08007b0d
 8007a40:	08007b0d 	.word	0x08007b0d
 8007a44:	08007b0d 	.word	0x08007b0d
 8007a48:	08007b0d 	.word	0x08007b0d
 8007a4c:	08007b0d 	.word	0x08007b0d
 8007a50:	08007ae1 	.word	0x08007ae1
 8007a54:	08007b0d 	.word	0x08007b0d
 8007a58:	08007b0d 	.word	0x08007b0d
 8007a5c:	08007b0d 	.word	0x08007b0d
 8007a60:	08007b0d 	.word	0x08007b0d
 8007a64:	08007b0d 	.word	0x08007b0d
 8007a68:	08007b0d 	.word	0x08007b0d
 8007a6c:	08007b0d 	.word	0x08007b0d
 8007a70:	08007af7 	.word	0x08007af7
 8007a74:	08007b0d 	.word	0x08007b0d
 8007a78:	08007b0d 	.word	0x08007b0d
 8007a7c:	08007b0d 	.word	0x08007b0d
 8007a80:	08007b0d 	.word	0x08007b0d
 8007a84:	08007b0d 	.word	0x08007b0d
 8007a88:	08007b0d 	.word	0x08007b0d
 8007a8c:	08007b0d 	.word	0x08007b0d
 8007a90:	08007b15 	.word	0x08007b15
 8007a94:	08007b0d 	.word	0x08007b0d
 8007a98:	08007b0d 	.word	0x08007b0d
 8007a9c:	08007b0d 	.word	0x08007b0d
 8007aa0:	08007b0d 	.word	0x08007b0d
 8007aa4:	08007b0d 	.word	0x08007b0d
 8007aa8:	08007b0d 	.word	0x08007b0d
 8007aac:	08007b0d 	.word	0x08007b0d
 8007ab0:	08007b15 	.word	0x08007b15
 8007ab4:	08007b0d 	.word	0x08007b0d
 8007ab8:	08007b0d 	.word	0x08007b0d
 8007abc:	08007b0d 	.word	0x08007b0d
 8007ac0:	08007b0d 	.word	0x08007b0d
 8007ac4:	08007b0d 	.word	0x08007b0d
 8007ac8:	08007b0d 	.word	0x08007b0d
 8007acc:	08007b0d 	.word	0x08007b0d
 8007ad0:	08007b15 	.word	0x08007b15
 8007ad4:	58024400 	.word	0x58024400
 8007ad8:	58024800 	.word	0x58024800
 8007adc:	00ffffcf 	.word	0x00ffffcf
 8007ae0:	f8d7 310c 	ldr.w	r3, [r7, #268]	@ 0x10c
 8007ae4:	3308      	adds	r3, #8
 8007ae6:	2101      	movs	r1, #1
 8007ae8:	4618      	mov	r0, r3
 8007aea:	f001 fe45 	bl	8009778 <RCCEx_PLL2_Config>
 8007aee:	4603      	mov	r3, r0
 8007af0:	f887 311f 	strb.w	r3, [r7, #287]	@ 0x11f
 8007af4:	e00f      	b.n	8007b16 <HAL_RCCEx_PeriphCLKConfig+0x996>
 8007af6:	f8d7 310c 	ldr.w	r3, [r7, #268]	@ 0x10c
 8007afa:	3328      	adds	r3, #40	@ 0x28
 8007afc:	2101      	movs	r1, #1
 8007afe:	4618      	mov	r0, r3
 8007b00:	f001 feec 	bl	80098dc <RCCEx_PLL3_Config>
 8007b04:	4603      	mov	r3, r0
 8007b06:	f887 311f 	strb.w	r3, [r7, #287]	@ 0x11f
 8007b0a:	e004      	b.n	8007b16 <HAL_RCCEx_PeriphCLKConfig+0x996>
 8007b0c:	2301      	movs	r3, #1
 8007b0e:	f887 311f 	strb.w	r3, [r7, #287]	@ 0x11f
 8007b12:	e000      	b.n	8007b16 <HAL_RCCEx_PeriphCLKConfig+0x996>
 8007b14:	bf00      	nop
 8007b16:	f897 311f 	ldrb.w	r3, [r7, #287]	@ 0x11f
 8007b1a:	2b00      	cmp	r3, #0
 8007b1c:	d10b      	bne.n	8007b36 <HAL_RCCEx_PeriphCLKConfig+0x9b6>
 8007b1e:	4bc0      	ldr	r3, [pc, #768]	@ (8007e20 <HAL_RCCEx_PeriphCLKConfig+0xca0>)
 8007b20:	6d5b      	ldr	r3, [r3, #84]	@ 0x54
 8007b22:	f023 0138 	bic.w	r1, r3, #56	@ 0x38
 8007b26:	f8d7 310c 	ldr.w	r3, [r7, #268]	@ 0x10c
 8007b2a:	f8d3 3084 	ldr.w	r3, [r3, #132]	@ 0x84
 8007b2e:	4abc      	ldr	r2, [pc, #752]	@ (8007e20 <HAL_RCCEx_PeriphCLKConfig+0xca0>)
 8007b30:	430b      	orrs	r3, r1
 8007b32:	6553      	str	r3, [r2, #84]	@ 0x54
 8007b34:	e003      	b.n	8007b3e <HAL_RCCEx_PeriphCLKConfig+0x9be>
 8007b36:	f897 311f 	ldrb.w	r3, [r7, #287]	@ 0x11f
 8007b3a:	f887 311e 	strb.w	r3, [r7, #286]	@ 0x11e
 8007b3e:	f8d7 310c 	ldr.w	r3, [r7, #268]	@ 0x10c
 8007b42:	e9d3 2300 	ldrd	r2, r3, [r3]
 8007b46:	f002 0302 	and.w	r3, r2, #2
 8007b4a:	f8c7 30b8 	str.w	r3, [r7, #184]	@ 0xb8
 8007b4e:	2300      	movs	r3, #0
 8007b50:	f8c7 30bc 	str.w	r3, [r7, #188]	@ 0xbc
 8007b54:	e9d7 122e 	ldrd	r1, r2, [r7, #184]	@ 0xb8
 8007b58:	460b      	mov	r3, r1
 8007b5a:	4313      	orrs	r3, r2
 8007b5c:	d043      	beq.n	8007be6 <HAL_RCCEx_PeriphCLKConfig+0xa66>
 8007b5e:	f8d7 310c 	ldr.w	r3, [r7, #268]	@ 0x10c
 8007b62:	f8d3 3080 	ldr.w	r3, [r3, #128]	@ 0x80
 8007b66:	2b05      	cmp	r3, #5
 8007b68:	d824      	bhi.n	8007bb4 <HAL_RCCEx_PeriphCLKConfig+0xa34>
 8007b6a:	a201      	add	r2, pc, #4	@ (adr r2, 8007b70 <HAL_RCCEx_PeriphCLKConfig+0x9f0>)
 8007b6c:	f852 f023 	ldr.w	pc, [r2, r3, lsl #2]
 8007b70:	08007bbd 	.word	0x08007bbd
 8007b74:	08007b89 	.word	0x08007b89
 8007b78:	08007b9f 	.word	0x08007b9f
 8007b7c:	08007bbd 	.word	0x08007bbd
 8007b80:	08007bbd 	.word	0x08007bbd
 8007b84:	08007bbd 	.word	0x08007bbd
 8007b88:	f8d7 310c 	ldr.w	r3, [r7, #268]	@ 0x10c
 8007b8c:	3308      	adds	r3, #8
 8007b8e:	2101      	movs	r1, #1
 8007b90:	4618      	mov	r0, r3
 8007b92:	f001 fdf1 	bl	8009778 <RCCEx_PLL2_Config>
 8007b96:	4603      	mov	r3, r0
 8007b98:	f887 311f 	strb.w	r3, [r7, #287]	@ 0x11f
 8007b9c:	e00f      	b.n	8007bbe <HAL_RCCEx_PeriphCLKConfig+0xa3e>
 8007b9e:	f8d7 310c 	ldr.w	r3, [r7, #268]	@ 0x10c
 8007ba2:	3328      	adds	r3, #40	@ 0x28
 8007ba4:	2101      	movs	r1, #1
 8007ba6:	4618      	mov	r0, r3
 8007ba8:	f001 fe98 	bl	80098dc <RCCEx_PLL3_Config>
 8007bac:	4603      	mov	r3, r0
 8007bae:	f887 311f 	strb.w	r3, [r7, #287]	@ 0x11f
 8007bb2:	e004      	b.n	8007bbe <HAL_RCCEx_PeriphCLKConfig+0xa3e>
 8007bb4:	2301      	movs	r3, #1
 8007bb6:	f887 311f 	strb.w	r3, [r7, #287]	@ 0x11f
 8007bba:	e000      	b.n	8007bbe <HAL_RCCEx_PeriphCLKConfig+0xa3e>
 8007bbc:	bf00      	nop
 8007bbe:	f897 311f 	ldrb.w	r3, [r7, #287]	@ 0x11f
 8007bc2:	2b00      	cmp	r3, #0
 8007bc4:	d10b      	bne.n	8007bde <HAL_RCCEx_PeriphCLKConfig+0xa5e>
 8007bc6:	4b96      	ldr	r3, [pc, #600]	@ (8007e20 <HAL_RCCEx_PeriphCLKConfig+0xca0>)
 8007bc8:	6d5b      	ldr	r3, [r3, #84]	@ 0x54
 8007bca:	f023 0107 	bic.w	r1, r3, #7
 8007bce:	f8d7 310c 	ldr.w	r3, [r7, #268]	@ 0x10c
 8007bd2:	f8d3 3080 	ldr.w	r3, [r3, #128]	@ 0x80
 8007bd6:	4a92      	ldr	r2, [pc, #584]	@ (8007e20 <HAL_RCCEx_PeriphCLKConfig+0xca0>)
 8007bd8:	430b      	orrs	r3, r1
 8007bda:	6553      	str	r3, [r2, #84]	@ 0x54
 8007bdc:	e003      	b.n	8007be6 <HAL_RCCEx_PeriphCLKConfig+0xa66>
 8007bde:	f897 311f 	ldrb.w	r3, [r7, #287]	@ 0x11f
 8007be2:	f887 311e 	strb.w	r3, [r7, #286]	@ 0x11e
 8007be6:	f8d7 310c 	ldr.w	r3, [r7, #268]	@ 0x10c
 8007bea:	e9d3 2300 	ldrd	r2, r3, [r3]
 8007bee:	f002 0304 	and.w	r3, r2, #4
 8007bf2:	f8c7 30b0 	str.w	r3, [r7, #176]	@ 0xb0
 8007bf6:	2300      	movs	r3, #0
 8007bf8:	f8c7 30b4 	str.w	r3, [r7, #180]	@ 0xb4
 8007bfc:	e9d7 122c 	ldrd	r1, r2, [r7, #176]	@ 0xb0
 8007c00:	460b      	mov	r3, r1
 8007c02:	4313      	orrs	r3, r2
 8007c04:	d043      	beq.n	8007c8e <HAL_RCCEx_PeriphCLKConfig+0xb0e>
 8007c06:	f8d7 310c 	ldr.w	r3, [r7, #268]	@ 0x10c
 8007c0a:	f8d3 309c 	ldr.w	r3, [r3, #156]	@ 0x9c
 8007c0e:	2b05      	cmp	r3, #5
 8007c10:	d824      	bhi.n	8007c5c <HAL_RCCEx_PeriphCLKConfig+0xadc>
 8007c12:	a201      	add	r2, pc, #4	@ (adr r2, 8007c18 <HAL_RCCEx_PeriphCLKConfig+0xa98>)
 8007c14:	f852 f023 	ldr.w	pc, [r2, r3, lsl #2]
 8007c18:	08007c65 	.word	0x08007c65
 8007c1c:	08007c31 	.word	0x08007c31
 8007c20:	08007c47 	.word	0x08007c47
 8007c24:	08007c65 	.word	0x08007c65
 8007c28:	08007c65 	.word	0x08007c65
 8007c2c:	08007c65 	.word	0x08007c65
 8007c30:	f8d7 310c 	ldr.w	r3, [r7, #268]	@ 0x10c
 8007c34:	3308      	adds	r3, #8
 8007c36:	2101      	movs	r1, #1
 8007c38:	4618      	mov	r0, r3
 8007c3a:	f001 fd9d 	bl	8009778 <RCCEx_PLL2_Config>
 8007c3e:	4603      	mov	r3, r0
 8007c40:	f887 311f 	strb.w	r3, [r7, #287]	@ 0x11f
 8007c44:	e00f      	b.n	8007c66 <HAL_RCCEx_PeriphCLKConfig+0xae6>
 8007c46:	f8d7 310c 	ldr.w	r3, [r7, #268]	@ 0x10c
 8007c4a:	3328      	adds	r3, #40	@ 0x28
 8007c4c:	2101      	movs	r1, #1
 8007c4e:	4618      	mov	r0, r3
 8007c50:	f001 fe44 	bl	80098dc <RCCEx_PLL3_Config>
 8007c54:	4603      	mov	r3, r0
 8007c56:	f887 311f 	strb.w	r3, [r7, #287]	@ 0x11f
 8007c5a:	e004      	b.n	8007c66 <HAL_RCCEx_PeriphCLKConfig+0xae6>
 8007c5c:	2301      	movs	r3, #1
 8007c5e:	f887 311f 	strb.w	r3, [r7, #287]	@ 0x11f
 8007c62:	e000      	b.n	8007c66 <HAL_RCCEx_PeriphCLKConfig+0xae6>
 8007c64:	bf00      	nop
 8007c66:	f897 311f 	ldrb.w	r3, [r7, #287]	@ 0x11f
 8007c6a:	2b00      	cmp	r3, #0
 8007c6c:	d10b      	bne.n	8007c86 <HAL_RCCEx_PeriphCLKConfig+0xb06>
 8007c6e:	4b6c      	ldr	r3, [pc, #432]	@ (8007e20 <HAL_RCCEx_PeriphCLKConfig+0xca0>)
 8007c70:	6d9b      	ldr	r3, [r3, #88]	@ 0x58
 8007c72:	f023 0107 	bic.w	r1, r3, #7
 8007c76:	f8d7 310c 	ldr.w	r3, [r7, #268]	@ 0x10c
 8007c7a:	f8d3 309c 	ldr.w	r3, [r3, #156]	@ 0x9c
 8007c7e:	4a68      	ldr	r2, [pc, #416]	@ (8007e20 <HAL_RCCEx_PeriphCLKConfig+0xca0>)
 8007c80:	430b      	orrs	r3, r1
 8007c82:	6593      	str	r3, [r2, #88]	@ 0x58
 8007c84:	e003      	b.n	8007c8e <HAL_RCCEx_PeriphCLKConfig+0xb0e>
 8007c86:	f897 311f 	ldrb.w	r3, [r7, #287]	@ 0x11f
 8007c8a:	f887 311e 	strb.w	r3, [r7, #286]	@ 0x11e
 8007c8e:	f8d7 310c 	ldr.w	r3, [r7, #268]	@ 0x10c
 8007c92:	e9d3 2300 	ldrd	r2, r3, [r3]
 8007c96:	f002 0320 	and.w	r3, r2, #32
 8007c9a:	f8c7 30a8 	str.w	r3, [r7, #168]	@ 0xa8
 8007c9e:	2300      	movs	r3, #0
 8007ca0:	f8c7 30ac 	str.w	r3, [r7, #172]	@ 0xac
 8007ca4:	e9d7 122a 	ldrd	r1, r2, [r7, #168]	@ 0xa8
 8007ca8:	460b      	mov	r3, r1
 8007caa:	4313      	orrs	r3, r2
 8007cac:	d055      	beq.n	8007d5a <HAL_RCCEx_PeriphCLKConfig+0xbda>
 8007cae:	f8d7 310c 	ldr.w	r3, [r7, #268]	@ 0x10c
 8007cb2:	f8d3 3098 	ldr.w	r3, [r3, #152]	@ 0x98
 8007cb6:	f1b3 4fa0 	cmp.w	r3, #1342177280	@ 0x50000000
 8007cba:	d033      	beq.n	8007d24 <HAL_RCCEx_PeriphCLKConfig+0xba4>
 8007cbc:	f1b3 4fa0 	cmp.w	r3, #1342177280	@ 0x50000000
 8007cc0:	d82c      	bhi.n	8007d1c <HAL_RCCEx_PeriphCLKConfig+0xb9c>
 8007cc2:	f1b3 4f80 	cmp.w	r3, #1073741824	@ 0x40000000
 8007cc6:	d02f      	beq.n	8007d28 <HAL_RCCEx_PeriphCLKConfig+0xba8>
 8007cc8:	f1b3 4f80 	cmp.w	r3, #1073741824	@ 0x40000000
 8007ccc:	d826      	bhi.n	8007d1c <HAL_RCCEx_PeriphCLKConfig+0xb9c>
 8007cce:	f1b3 5f40 	cmp.w	r3, #805306368	@ 0x30000000
 8007cd2:	d02b      	beq.n	8007d2c <HAL_RCCEx_PeriphCLKConfig+0xbac>
 8007cd4:	f1b3 5f40 	cmp.w	r3, #805306368	@ 0x30000000
 8007cd8:	d820      	bhi.n	8007d1c <HAL_RCCEx_PeriphCLKConfig+0xb9c>
 8007cda:	f1b3 5f00 	cmp.w	r3, #536870912	@ 0x20000000
 8007cde:	d012      	beq.n	8007d06 <HAL_RCCEx_PeriphCLKConfig+0xb86>
 8007ce0:	f1b3 5f00 	cmp.w	r3, #536870912	@ 0x20000000
 8007ce4:	d81a      	bhi.n	8007d1c <HAL_RCCEx_PeriphCLKConfig+0xb9c>
 8007ce6:	2b00      	cmp	r3, #0
 8007ce8:	d022      	beq.n	8007d30 <HAL_RCCEx_PeriphCLKConfig+0xbb0>
 8007cea:	f1b3 5f80 	cmp.w	r3, #268435456	@ 0x10000000
 8007cee:	d115      	bne.n	8007d1c <HAL_RCCEx_PeriphCLKConfig+0xb9c>
 8007cf0:	f8d7 310c 	ldr.w	r3, [r7, #268]	@ 0x10c
 8007cf4:	3308      	adds	r3, #8
 8007cf6:	2100      	movs	r1, #0
 8007cf8:	4618      	mov	r0, r3
 8007cfa:	f001 fd3d 	bl	8009778 <RCCEx_PLL2_Config>
 8007cfe:	4603      	mov	r3, r0
 8007d00:	f887 311f 	strb.w	r3, [r7, #287]	@ 0x11f
 8007d04:	e015      	b.n	8007d32 <HAL_RCCEx_PeriphCLKConfig+0xbb2>
 8007d06:	f8d7 310c 	ldr.w	r3, [r7, #268]	@ 0x10c
 8007d0a:	3328      	adds	r3, #40	@ 0x28
 8007d0c:	2102      	movs	r1, #2
 8007d0e:	4618      	mov	r0, r3
 8007d10:	f001 fde4 	bl	80098dc <RCCEx_PLL3_Config>
 8007d14:	4603      	mov	r3, r0
 8007d16:	f887 311f 	strb.w	r3, [r7, #287]	@ 0x11f
 8007d1a:	e00a      	b.n	8007d32 <HAL_RCCEx_PeriphCLKConfig+0xbb2>
 8007d1c:	2301      	movs	r3, #1
 8007d1e:	f887 311f 	strb.w	r3, [r7, #287]	@ 0x11f
 8007d22:	e006      	b.n	8007d32 <HAL_RCCEx_PeriphCLKConfig+0xbb2>
 8007d24:	bf00      	nop
 8007d26:	e004      	b.n	8007d32 <HAL_RCCEx_PeriphCLKConfig+0xbb2>
 8007d28:	bf00      	nop
 8007d2a:	e002      	b.n	8007d32 <HAL_RCCEx_PeriphCLKConfig+0xbb2>
 8007d2c:	bf00      	nop
 8007d2e:	e000      	b.n	8007d32 <HAL_RCCEx_PeriphCLKConfig+0xbb2>
 8007d30:	bf00      	nop
 8007d32:	f897 311f 	ldrb.w	r3, [r7, #287]	@ 0x11f
 8007d36:	2b00      	cmp	r3, #0
 8007d38:	d10b      	bne.n	8007d52 <HAL_RCCEx_PeriphCLKConfig+0xbd2>
 8007d3a:	4b39      	ldr	r3, [pc, #228]	@ (8007e20 <HAL_RCCEx_PeriphCLKConfig+0xca0>)
 8007d3c:	6d5b      	ldr	r3, [r3, #84]	@ 0x54
 8007d3e:	f023 41e0 	bic.w	r1, r3, #1879048192	@ 0x70000000
 8007d42:	f8d7 310c 	ldr.w	r3, [r7, #268]	@ 0x10c
 8007d46:	f8d3 3098 	ldr.w	r3, [r3, #152]	@ 0x98
 8007d4a:	4a35      	ldr	r2, [pc, #212]	@ (8007e20 <HAL_RCCEx_PeriphCLKConfig+0xca0>)
 8007d4c:	430b      	orrs	r3, r1
 8007d4e:	6553      	str	r3, [r2, #84]	@ 0x54
 8007d50:	e003      	b.n	8007d5a <HAL_RCCEx_PeriphCLKConfig+0xbda>
 8007d52:	f897 311f 	ldrb.w	r3, [r7, #287]	@ 0x11f
 8007d56:	f887 311e 	strb.w	r3, [r7, #286]	@ 0x11e
 8007d5a:	f8d7 310c 	ldr.w	r3, [r7, #268]	@ 0x10c
 8007d5e:	e9d3 2300 	ldrd	r2, r3, [r3]
 8007d62:	f002 0340 	and.w	r3, r2, #64	@ 0x40
 8007d66:	f8c7 30a0 	str.w	r3, [r7, #160]	@ 0xa0
 8007d6a:	2300      	movs	r3, #0
 8007d6c:	f8c7 30a4 	str.w	r3, [r7, #164]	@ 0xa4
 8007d70:	e9d7 1228 	ldrd	r1, r2, [r7, #160]	@ 0xa0
 8007d74:	460b      	mov	r3, r1
 8007d76:	4313      	orrs	r3, r2
 8007d78:	d058      	beq.n	8007e2c <HAL_RCCEx_PeriphCLKConfig+0xcac>
 8007d7a:	f8d7 310c 	ldr.w	r3, [r7, #268]	@ 0x10c
 8007d7e:	f8d3 30a4 	ldr.w	r3, [r3, #164]	@ 0xa4
 8007d82:	f5b3 5fa0 	cmp.w	r3, #5120	@ 0x1400
 8007d86:	d033      	beq.n	8007df0 <HAL_RCCEx_PeriphCLKConfig+0xc70>
 8007d88:	f5b3 5fa0 	cmp.w	r3, #5120	@ 0x1400
 8007d8c:	d82c      	bhi.n	8007de8 <HAL_RCCEx_PeriphCLKConfig+0xc68>
 8007d8e:	f5b3 5f80 	cmp.w	r3, #4096	@ 0x1000
 8007d92:	d02f      	beq.n	8007df4 <HAL_RCCEx_PeriphCLKConfig+0xc74>
 8007d94:	f5b3 5f80 	cmp.w	r3, #4096	@ 0x1000
 8007d98:	d826      	bhi.n	8007de8 <HAL_RCCEx_PeriphCLKConfig+0xc68>
 8007d9a:	f5b3 6f40 	cmp.w	r3, #3072	@ 0xc00
 8007d9e:	d02b      	beq.n	8007df8 <HAL_RCCEx_PeriphCLKConfig+0xc78>
 8007da0:	f5b3 6f40 	cmp.w	r3, #3072	@ 0xc00
 8007da4:	d820      	bhi.n	8007de8 <HAL_RCCEx_PeriphCLKConfig+0xc68>
 8007da6:	f5b3 6f00 	cmp.w	r3, #2048	@ 0x800
 8007daa:	d012      	beq.n	8007dd2 <HAL_RCCEx_PeriphCLKConfig+0xc52>
 8007dac:	f5b3 6f00 	cmp.w	r3, #2048	@ 0x800
 8007db0:	d81a      	bhi.n	8007de8 <HAL_RCCEx_PeriphCLKConfig+0xc68>
 8007db2:	2b00      	cmp	r3, #0
 8007db4:	d022      	beq.n	8007dfc <HAL_RCCEx_PeriphCLKConfig+0xc7c>
 8007db6:	f5b3 6f80 	cmp.w	r3, #1024	@ 0x400
 8007dba:	d115      	bne.n	8007de8 <HAL_RCCEx_PeriphCLKConfig+0xc68>
 8007dbc:	f8d7 310c 	ldr.w	r3, [r7, #268]	@ 0x10c
 8007dc0:	3308      	adds	r3, #8
 8007dc2:	2100      	movs	r1, #0
 8007dc4:	4618      	mov	r0, r3
 8007dc6:	f001 fcd7 	bl	8009778 <RCCEx_PLL2_Config>
 8007dca:	4603      	mov	r3, r0
 8007dcc:	f887 311f 	strb.w	r3, [r7, #287]	@ 0x11f
 8007dd0:	e015      	b.n	8007dfe <HAL_RCCEx_PeriphCLKConfig+0xc7e>
 8007dd2:	f8d7 310c 	ldr.w	r3, [r7, #268]	@ 0x10c
 8007dd6:	3328      	adds	r3, #40	@ 0x28
 8007dd8:	2102      	movs	r1, #2
 8007dda:	4618      	mov	r0, r3
 8007ddc:	f001 fd7e 	bl	80098dc <RCCEx_PLL3_Config>
 8007de0:	4603      	mov	r3, r0
 8007de2:	f887 311f 	strb.w	r3, [r7, #287]	@ 0x11f
 8007de6:	e00a      	b.n	8007dfe <HAL_RCCEx_PeriphCLKConfig+0xc7e>
 8007de8:	2301      	movs	r3, #1
 8007dea:	f887 311f 	strb.w	r3, [r7, #287]	@ 0x11f
 8007dee:	e006      	b.n	8007dfe <HAL_RCCEx_PeriphCLKConfig+0xc7e>
 8007df0:	bf00      	nop
 8007df2:	e004      	b.n	8007dfe <HAL_RCCEx_PeriphCLKConfig+0xc7e>
 8007df4:	bf00      	nop
 8007df6:	e002      	b.n	8007dfe <HAL_RCCEx_PeriphCLKConfig+0xc7e>
 8007df8:	bf00      	nop
 8007dfa:	e000      	b.n	8007dfe <HAL_RCCEx_PeriphCLKConfig+0xc7e>
 8007dfc:	bf00      	nop
 8007dfe:	f897 311f 	ldrb.w	r3, [r7, #287]	@ 0x11f
 8007e02:	2b00      	cmp	r3, #0
 8007e04:	d10e      	bne.n	8007e24 <HAL_RCCEx_PeriphCLKConfig+0xca4>
 8007e06:	4b06      	ldr	r3, [pc, #24]	@ (8007e20 <HAL_RCCEx_PeriphCLKConfig+0xca0>)
 8007e08:	6d9b      	ldr	r3, [r3, #88]	@ 0x58
 8007e0a:	f423 51e0 	bic.w	r1, r3, #7168	@ 0x1c00
 8007e0e:	f8d7 310c 	ldr.w	r3, [r7, #268]	@ 0x10c
 8007e12:	f8d3 30a4 	ldr.w	r3, [r3, #164]	@ 0xa4
 8007e16:	4a02      	ldr	r2, [pc, #8]	@ (8007e20 <HAL_RCCEx_PeriphCLKConfig+0xca0>)
 8007e18:	430b      	orrs	r3, r1
 8007e1a:	6593      	str	r3, [r2, #88]	@ 0x58
 8007e1c:	e006      	b.n	8007e2c <HAL_RCCEx_PeriphCLKConfig+0xcac>
 8007e1e:	bf00      	nop
 8007e20:	58024400 	.word	0x58024400
 8007e24:	f897 311f 	ldrb.w	r3, [r7, #287]	@ 0x11f
 8007e28:	f887 311e 	strb.w	r3, [r7, #286]	@ 0x11e
 8007e2c:	f8d7 310c 	ldr.w	r3, [r7, #268]	@ 0x10c
 8007e30:	e9d3 2300 	ldrd	r2, r3, [r3]
 8007e34:	f002 0380 	and.w	r3, r2, #128	@ 0x80
 8007e38:	f8c7 3098 	str.w	r3, [r7, #152]	@ 0x98
 8007e3c:	2300      	movs	r3, #0
 8007e3e:	f8c7 309c 	str.w	r3, [r7, #156]	@ 0x9c
 8007e42:	e9d7 1226 	ldrd	r1, r2, [r7, #152]	@ 0x98
 8007e46:	460b      	mov	r3, r1
 8007e48:	4313      	orrs	r3, r2
 8007e4a:	d055      	beq.n	8007ef8 <HAL_RCCEx_PeriphCLKConfig+0xd78>
 8007e4c:	f8d7 310c 	ldr.w	r3, [r7, #268]	@ 0x10c
 8007e50:	f8d3 30a8 	ldr.w	r3, [r3, #168]	@ 0xa8
 8007e54:	f5b3 4f20 	cmp.w	r3, #40960	@ 0xa000
 8007e58:	d033      	beq.n	8007ec2 <HAL_RCCEx_PeriphCLKConfig+0xd42>
 8007e5a:	f5b3 4f20 	cmp.w	r3, #40960	@ 0xa000
 8007e5e:	d82c      	bhi.n	8007eba <HAL_RCCEx_PeriphCLKConfig+0xd3a>
 8007e60:	f5b3 4f00 	cmp.w	r3, #32768	@ 0x8000
 8007e64:	d02f      	beq.n	8007ec6 <HAL_RCCEx_PeriphCLKConfig+0xd46>
 8007e66:	f5b3 4f00 	cmp.w	r3, #32768	@ 0x8000
 8007e6a:	d826      	bhi.n	8007eba <HAL_RCCEx_PeriphCLKConfig+0xd3a>
 8007e6c:	f5b3 4fc0 	cmp.w	r3, #24576	@ 0x6000
 8007e70:	d02b      	beq.n	8007eca <HAL_RCCEx_PeriphCLKConfig+0xd4a>
 8007e72:	f5b3 4fc0 	cmp.w	r3, #24576	@ 0x6000
 8007e76:	d820      	bhi.n	8007eba <HAL_RCCEx_PeriphCLKConfig+0xd3a>
 8007e78:	f5b3 4f80 	cmp.w	r3, #16384	@ 0x4000
 8007e7c:	d012      	beq.n	8007ea4 <HAL_RCCEx_PeriphCLKConfig+0xd24>
 8007e7e:	f5b3 4f80 	cmp.w	r3, #16384	@ 0x4000
 8007e82:	d81a      	bhi.n	8007eba <HAL_RCCEx_PeriphCLKConfig+0xd3a>
 8007e84:	2b00      	cmp	r3, #0
 8007e86:	d022      	beq.n	8007ece <HAL_RCCEx_PeriphCLKConfig+0xd4e>
 8007e88:	f5b3 5f00 	cmp.w	r3, #8192	@ 0x2000
 8007e8c:	d115      	bne.n	8007eba <HAL_RCCEx_PeriphCLKConfig+0xd3a>
 8007e8e:	f8d7 310c 	ldr.w	r3, [r7, #268]	@ 0x10c
 8007e92:	3308      	adds	r3, #8
 8007e94:	2100      	movs	r1, #0
 8007e96:	4618      	mov	r0, r3
 8007e98:	f001 fc6e 	bl	8009778 <RCCEx_PLL2_Config>
 8007e9c:	4603      	mov	r3, r0
 8007e9e:	f887 311f 	strb.w	r3, [r7, #287]	@ 0x11f
 8007ea2:	e015      	b.n	8007ed0 <HAL_RCCEx_PeriphCLKConfig+0xd50>
 8007ea4:	f8d7 310c 	ldr.w	r3, [r7, #268]	@ 0x10c
 8007ea8:	3328      	adds	r3, #40	@ 0x28
 8007eaa:	2102      	movs	r1, #2
 8007eac:	4618      	mov	r0, r3
 8007eae:	f001 fd15 	bl	80098dc <RCCEx_PLL3_Config>
 8007eb2:	4603      	mov	r3, r0
 8007eb4:	f887 311f 	strb.w	r3, [r7, #287]	@ 0x11f
 8007eb8:	e00a      	b.n	8007ed0 <HAL_RCCEx_PeriphCLKConfig+0xd50>
 8007eba:	2301      	movs	r3, #1
 8007ebc:	f887 311f 	strb.w	r3, [r7, #287]	@ 0x11f
 8007ec0:	e006      	b.n	8007ed0 <HAL_RCCEx_PeriphCLKConfig+0xd50>
 8007ec2:	bf00      	nop
 8007ec4:	e004      	b.n	8007ed0 <HAL_RCCEx_PeriphCLKConfig+0xd50>
 8007ec6:	bf00      	nop
 8007ec8:	e002      	b.n	8007ed0 <HAL_RCCEx_PeriphCLKConfig+0xd50>
 8007eca:	bf00      	nop
 8007ecc:	e000      	b.n	8007ed0 <HAL_RCCEx_PeriphCLKConfig+0xd50>
 8007ece:	bf00      	nop
 8007ed0:	f897 311f 	ldrb.w	r3, [r7, #287]	@ 0x11f
 8007ed4:	2b00      	cmp	r3, #0
 8007ed6:	d10b      	bne.n	8007ef0 <HAL_RCCEx_PeriphCLKConfig+0xd70>
 8007ed8:	4ba1      	ldr	r3, [pc, #644]	@ (8008160 <HAL_RCCEx_PeriphCLKConfig+0xfe0>)
 8007eda:	6d9b      	ldr	r3, [r3, #88]	@ 0x58
 8007edc:	f423 4160 	bic.w	r1, r3, #57344	@ 0xe000
 8007ee0:	f8d7 310c 	ldr.w	r3, [r7, #268]	@ 0x10c
 8007ee4:	f8d3 30a8 	ldr.w	r3, [r3, #168]	@ 0xa8
 8007ee8:	4a9d      	ldr	r2, [pc, #628]	@ (8008160 <HAL_RCCEx_PeriphCLKConfig+0xfe0>)
 8007eea:	430b      	orrs	r3, r1
 8007eec:	6593      	str	r3, [r2, #88]	@ 0x58
 8007eee:	e003      	b.n	8007ef8 <HAL_RCCEx_PeriphCLKConfig+0xd78>
 8007ef0:	f897 311f 	ldrb.w	r3, [r7, #287]	@ 0x11f
 8007ef4:	f887 311e 	strb.w	r3, [r7, #286]	@ 0x11e
 8007ef8:	f8d7 310c 	ldr.w	r3, [r7, #268]	@ 0x10c
 8007efc:	e9d3 2300 	ldrd	r2, r3, [r3]
 8007f00:	f002 0308 	and.w	r3, r2, #8
 8007f04:	f8c7 3090 	str.w	r3, [r7, #144]	@ 0x90
 8007f08:	2300      	movs	r3, #0
 8007f0a:	f8c7 3094 	str.w	r3, [r7, #148]	@ 0x94
 8007f0e:	e9d7 1224 	ldrd	r1, r2, [r7, #144]	@ 0x90
 8007f12:	460b      	mov	r3, r1
 8007f14:	4313      	orrs	r3, r2
 8007f16:	d01e      	beq.n	8007f56 <HAL_RCCEx_PeriphCLKConfig+0xdd6>
 8007f18:	f8d7 310c 	ldr.w	r3, [r7, #268]	@ 0x10c
 8007f1c:	f8d3 308c 	ldr.w	r3, [r3, #140]	@ 0x8c
 8007f20:	f5b3 5f80 	cmp.w	r3, #4096	@ 0x1000
 8007f24:	d10c      	bne.n	8007f40 <HAL_RCCEx_PeriphCLKConfig+0xdc0>
 8007f26:	f8d7 310c 	ldr.w	r3, [r7, #268]	@ 0x10c
 8007f2a:	3328      	adds	r3, #40	@ 0x28
 8007f2c:	2102      	movs	r1, #2
 8007f2e:	4618      	mov	r0, r3
 8007f30:	f001 fcd4 	bl	80098dc <RCCEx_PLL3_Config>
 8007f34:	4603      	mov	r3, r0
 8007f36:	2b00      	cmp	r3, #0
 8007f38:	d002      	beq.n	8007f40 <HAL_RCCEx_PeriphCLKConfig+0xdc0>
 8007f3a:	2301      	movs	r3, #1
 8007f3c:	f887 311e 	strb.w	r3, [r7, #286]	@ 0x11e
 8007f40:	4b87      	ldr	r3, [pc, #540]	@ (8008160 <HAL_RCCEx_PeriphCLKConfig+0xfe0>)
 8007f42:	6d5b      	ldr	r3, [r3, #84]	@ 0x54
 8007f44:	f423 5140 	bic.w	r1, r3, #12288	@ 0x3000
 8007f48:	f8d7 310c 	ldr.w	r3, [r7, #268]	@ 0x10c
 8007f4c:	f8d3 308c 	ldr.w	r3, [r3, #140]	@ 0x8c
 8007f50:	4a83      	ldr	r2, [pc, #524]	@ (8008160 <HAL_RCCEx_PeriphCLKConfig+0xfe0>)
 8007f52:	430b      	orrs	r3, r1
 8007f54:	6553      	str	r3, [r2, #84]	@ 0x54
 8007f56:	f8d7 310c 	ldr.w	r3, [r7, #268]	@ 0x10c
 8007f5a:	e9d3 2300 	ldrd	r2, r3, [r3]
 8007f5e:	f002 0310 	and.w	r3, r2, #16
 8007f62:	f8c7 3088 	str.w	r3, [r7, #136]	@ 0x88
 8007f66:	2300      	movs	r3, #0
 8007f68:	f8c7 308c 	str.w	r3, [r7, #140]	@ 0x8c
 8007f6c:	e9d7 1222 	ldrd	r1, r2, [r7, #136]	@ 0x88
 8007f70:	460b      	mov	r3, r1
 8007f72:	4313      	orrs	r3, r2
 8007f74:	d01e      	beq.n	8007fb4 <HAL_RCCEx_PeriphCLKConfig+0xe34>
 8007f76:	f8d7 310c 	ldr.w	r3, [r7, #268]	@ 0x10c
 8007f7a:	f8d3 30a0 	ldr.w	r3, [r3, #160]	@ 0xa0
 8007f7e:	f5b3 7f80 	cmp.w	r3, #256	@ 0x100
 8007f82:	d10c      	bne.n	8007f9e <HAL_RCCEx_PeriphCLKConfig+0xe1e>
 8007f84:	f8d7 310c 	ldr.w	r3, [r7, #268]	@ 0x10c
 8007f88:	3328      	adds	r3, #40	@ 0x28
 8007f8a:	2102      	movs	r1, #2
 8007f8c:	4618      	mov	r0, r3
 8007f8e:	f001 fca5 	bl	80098dc <RCCEx_PLL3_Config>
 8007f92:	4603      	mov	r3, r0
 8007f94:	2b00      	cmp	r3, #0
 8007f96:	d002      	beq.n	8007f9e <HAL_RCCEx_PeriphCLKConfig+0xe1e>
 8007f98:	2301      	movs	r3, #1
 8007f9a:	f887 311e 	strb.w	r3, [r7, #286]	@ 0x11e
 8007f9e:	4b70      	ldr	r3, [pc, #448]	@ (8008160 <HAL_RCCEx_PeriphCLKConfig+0xfe0>)
 8007fa0:	6d9b      	ldr	r3, [r3, #88]	@ 0x58
 8007fa2:	f423 7140 	bic.w	r1, r3, #768	@ 0x300
 8007fa6:	f8d7 310c 	ldr.w	r3, [r7, #268]	@ 0x10c
 8007faa:	f8d3 30a0 	ldr.w	r3, [r3, #160]	@ 0xa0
 8007fae:	4a6c      	ldr	r2, [pc, #432]	@ (8008160 <HAL_RCCEx_PeriphCLKConfig+0xfe0>)
 8007fb0:	430b      	orrs	r3, r1
 8007fb2:	6593      	str	r3, [r2, #88]	@ 0x58
 8007fb4:	f8d7 310c 	ldr.w	r3, [r7, #268]	@ 0x10c
 8007fb8:	e9d3 2300 	ldrd	r2, r3, [r3]
 8007fbc:	f402 2300 	and.w	r3, r2, #524288	@ 0x80000
 8007fc0:	f8c7 3080 	str.w	r3, [r7, #128]	@ 0x80
 8007fc4:	2300      	movs	r3, #0
 8007fc6:	f8c7 3084 	str.w	r3, [r7, #132]	@ 0x84
 8007fca:	e9d7 1220 	ldrd	r1, r2, [r7, #128]	@ 0x80
 8007fce:	460b      	mov	r3, r1
 8007fd0:	4313      	orrs	r3, r2
 8007fd2:	d03e      	beq.n	8008052 <HAL_RCCEx_PeriphCLKConfig+0xed2>
 8007fd4:	f8d7 310c 	ldr.w	r3, [r7, #268]	@ 0x10c
 8007fd8:	f8d3 30ac 	ldr.w	r3, [r3, #172]	@ 0xac
 8007fdc:	f5b3 3f00 	cmp.w	r3, #131072	@ 0x20000
 8007fe0:	d022      	beq.n	8008028 <HAL_RCCEx_PeriphCLKConfig+0xea8>
 8007fe2:	f5b3 3f00 	cmp.w	r3, #131072	@ 0x20000
 8007fe6:	d81b      	bhi.n	8008020 <HAL_RCCEx_PeriphCLKConfig+0xea0>
 8007fe8:	2b00      	cmp	r3, #0
 8007fea:	d003      	beq.n	8007ff4 <HAL_RCCEx_PeriphCLKConfig+0xe74>
 8007fec:	f5b3 3f80 	cmp.w	r3, #65536	@ 0x10000
 8007ff0:	d00b      	beq.n	800800a <HAL_RCCEx_PeriphCLKConfig+0xe8a>
 8007ff2:	e015      	b.n	8008020 <HAL_RCCEx_PeriphCLKConfig+0xea0>
 8007ff4:	f8d7 310c 	ldr.w	r3, [r7, #268]	@ 0x10c
 8007ff8:	3308      	adds	r3, #8
 8007ffa:	2100      	movs	r1, #0
 8007ffc:	4618      	mov	r0, r3
 8007ffe:	f001 fbbb 	bl	8009778 <RCCEx_PLL2_Config>
 8008002:	4603      	mov	r3, r0
 8008004:	f887 311f 	strb.w	r3, [r7, #287]	@ 0x11f
 8008008:	e00f      	b.n	800802a <HAL_RCCEx_PeriphCLKConfig+0xeaa>
 800800a:	f8d7 310c 	ldr.w	r3, [r7, #268]	@ 0x10c
 800800e:	3328      	adds	r3, #40	@ 0x28
 8008010:	2102      	movs	r1, #2
 8008012:	4618      	mov	r0, r3
 8008014:	f001 fc62 	bl	80098dc <RCCEx_PLL3_Config>
 8008018:	4603      	mov	r3, r0
 800801a:	f887 311f 	strb.w	r3, [r7, #287]	@ 0x11f
 800801e:	e004      	b.n	800802a <HAL_RCCEx_PeriphCLKConfig+0xeaa>
 8008020:	2301      	movs	r3, #1
 8008022:	f887 311f 	strb.w	r3, [r7, #287]	@ 0x11f
 8008026:	e000      	b.n	800802a <HAL_RCCEx_PeriphCLKConfig+0xeaa>
 8008028:	bf00      	nop
 800802a:	f897 311f 	ldrb.w	r3, [r7, #287]	@ 0x11f
 800802e:	2b00      	cmp	r3, #0
 8008030:	d10b      	bne.n	800804a <HAL_RCCEx_PeriphCLKConfig+0xeca>
 8008032:	4b4b      	ldr	r3, [pc, #300]	@ (8008160 <HAL_RCCEx_PeriphCLKConfig+0xfe0>)
 8008034:	6d9b      	ldr	r3, [r3, #88]	@ 0x58
 8008036:	f423 3140 	bic.w	r1, r3, #196608	@ 0x30000
 800803a:	f8d7 310c 	ldr.w	r3, [r7, #268]	@ 0x10c
 800803e:	f8d3 30ac 	ldr.w	r3, [r3, #172]	@ 0xac
 8008042:	4a47      	ldr	r2, [pc, #284]	@ (8008160 <HAL_RCCEx_PeriphCLKConfig+0xfe0>)
 8008044:	430b      	orrs	r3, r1
 8008046:	6593      	str	r3, [r2, #88]	@ 0x58
 8008048:	e003      	b.n	8008052 <HAL_RCCEx_PeriphCLKConfig+0xed2>
 800804a:	f897 311f 	ldrb.w	r3, [r7, #287]	@ 0x11f
 800804e:	f887 311e 	strb.w	r3, [r7, #286]	@ 0x11e
 8008052:	f8d7 310c 	ldr.w	r3, [r7, #268]	@ 0x10c
 8008056:	e9d3 2300 	ldrd	r2, r3, [r3]
 800805a:	f402 2380 	and.w	r3, r2, #262144	@ 0x40000
 800805e:	67bb      	str	r3, [r7, #120]	@ 0x78
 8008060:	2300      	movs	r3, #0
 8008062:	67fb      	str	r3, [r7, #124]	@ 0x7c
 8008064:	e9d7 121e 	ldrd	r1, r2, [r7, #120]	@ 0x78
 8008068:	460b      	mov	r3, r1
 800806a:	4313      	orrs	r3, r2
 800806c:	d03b      	beq.n	80080e6 <HAL_RCCEx_PeriphCLKConfig+0xf66>
 800806e:	f8d7 310c 	ldr.w	r3, [r7, #268]	@ 0x10c
 8008072:	f8d3 3090 	ldr.w	r3, [r3, #144]	@ 0x90
 8008076:	f5b3 1f40 	cmp.w	r3, #3145728	@ 0x300000
 800807a:	d01f      	beq.n	80080bc <HAL_RCCEx_PeriphCLKConfig+0xf3c>
 800807c:	f5b3 1f40 	cmp.w	r3, #3145728	@ 0x300000
 8008080:	d818      	bhi.n	80080b4 <HAL_RCCEx_PeriphCLKConfig+0xf34>
 8008082:	f5b3 1f80 	cmp.w	r3, #1048576	@ 0x100000
 8008086:	d003      	beq.n	8008090 <HAL_RCCEx_PeriphCLKConfig+0xf10>
 8008088:	f5b3 1f00 	cmp.w	r3, #2097152	@ 0x200000
 800808c:	d007      	beq.n	800809e <HAL_RCCEx_PeriphCLKConfig+0xf1e>
 800808e:	e011      	b.n	80080b4 <HAL_RCCEx_PeriphCLKConfig+0xf34>
 8008090:	4b33      	ldr	r3, [pc, #204]	@ (8008160 <HAL_RCCEx_PeriphCLKConfig+0xfe0>)
 8008092:	6adb      	ldr	r3, [r3, #44]	@ 0x2c
 8008094:	4a32      	ldr	r2, [pc, #200]	@ (8008160 <HAL_RCCEx_PeriphCLKConfig+0xfe0>)
 8008096:	f443 3300 	orr.w	r3, r3, #131072	@ 0x20000
 800809a:	62d3      	str	r3, [r2, #44]	@ 0x2c
 800809c:	e00f      	b.n	80080be <HAL_RCCEx_PeriphCLKConfig+0xf3e>
 800809e:	f8d7 310c 	ldr.w	r3, [r7, #268]	@ 0x10c
 80080a2:	3328      	adds	r3, #40	@ 0x28
 80080a4:	2101      	movs	r1, #1
 80080a6:	4618      	mov	r0, r3
 80080a8:	f001 fc18 	bl	80098dc <RCCEx_PLL3_Config>
 80080ac:	4603      	mov	r3, r0
 80080ae:	f887 311f 	strb.w	r3, [r7, #287]	@ 0x11f
 80080b2:	e004      	b.n	80080be <HAL_RCCEx_PeriphCLKConfig+0xf3e>
 80080b4:	2301      	movs	r3, #1
 80080b6:	f887 311f 	strb.w	r3, [r7, #287]	@ 0x11f
 80080ba:	e000      	b.n	80080be <HAL_RCCEx_PeriphCLKConfig+0xf3e>
 80080bc:	bf00      	nop
 80080be:	f897 311f 	ldrb.w	r3, [r7, #287]	@ 0x11f
 80080c2:	2b00      	cmp	r3, #0
 80080c4:	d10b      	bne.n	80080de <HAL_RCCEx_PeriphCLKConfig+0xf5e>
 80080c6:	4b26      	ldr	r3, [pc, #152]	@ (8008160 <HAL_RCCEx_PeriphCLKConfig+0xfe0>)
 80080c8:	6d5b      	ldr	r3, [r3, #84]	@ 0x54
 80080ca:	f423 1140 	bic.w	r1, r3, #3145728	@ 0x300000
 80080ce:	f8d7 310c 	ldr.w	r3, [r7, #268]	@ 0x10c
 80080d2:	f8d3 3090 	ldr.w	r3, [r3, #144]	@ 0x90
 80080d6:	4a22      	ldr	r2, [pc, #136]	@ (8008160 <HAL_RCCEx_PeriphCLKConfig+0xfe0>)
 80080d8:	430b      	orrs	r3, r1
 80080da:	6553      	str	r3, [r2, #84]	@ 0x54
 80080dc:	e003      	b.n	80080e6 <HAL_RCCEx_PeriphCLKConfig+0xf66>
 80080de:	f897 311f 	ldrb.w	r3, [r7, #287]	@ 0x11f
 80080e2:	f887 311e 	strb.w	r3, [r7, #286]	@ 0x11e
 80080e6:	f8d7 310c 	ldr.w	r3, [r7, #268]	@ 0x10c
 80080ea:	e9d3 2300 	ldrd	r2, r3, [r3]
 80080ee:	f402 3380 	and.w	r3, r2, #65536	@ 0x10000
 80080f2:	673b      	str	r3, [r7, #112]	@ 0x70
 80080f4:	2300      	movs	r3, #0
 80080f6:	677b      	str	r3, [r7, #116]	@ 0x74
 80080f8:	e9d7 121c 	ldrd	r1, r2, [r7, #112]	@ 0x70
 80080fc:	460b      	mov	r3, r1
 80080fe:	4313      	orrs	r3, r2
 8008100:	d034      	beq.n	800816c <HAL_RCCEx_PeriphCLKConfig+0xfec>
 8008102:	f8d7 310c 	ldr.w	r3, [r7, #268]	@ 0x10c
 8008106:	6d1b      	ldr	r3, [r3, #80]	@ 0x50
 8008108:	2b00      	cmp	r3, #0
 800810a:	d003      	beq.n	8008114 <HAL_RCCEx_PeriphCLKConfig+0xf94>
 800810c:	f5b3 3f80 	cmp.w	r3, #65536	@ 0x10000
 8008110:	d007      	beq.n	8008122 <HAL_RCCEx_PeriphCLKConfig+0xfa2>
 8008112:	e011      	b.n	8008138 <HAL_RCCEx_PeriphCLKConfig+0xfb8>
 8008114:	4b12      	ldr	r3, [pc, #72]	@ (8008160 <HAL_RCCEx_PeriphCLKConfig+0xfe0>)
 8008116:	6adb      	ldr	r3, [r3, #44]	@ 0x2c
 8008118:	4a11      	ldr	r2, [pc, #68]	@ (8008160 <HAL_RCCEx_PeriphCLKConfig+0xfe0>)
 800811a:	f443 3300 	orr.w	r3, r3, #131072	@ 0x20000
 800811e:	62d3      	str	r3, [r2, #44]	@ 0x2c
 8008120:	e00e      	b.n	8008140 <HAL_RCCEx_PeriphCLKConfig+0xfc0>
 8008122:	f8d7 310c 	ldr.w	r3, [r7, #268]	@ 0x10c
 8008126:	3308      	adds	r3, #8
 8008128:	2102      	movs	r1, #2
 800812a:	4618      	mov	r0, r3
 800812c:	f001 fb24 	bl	8009778 <RCCEx_PLL2_Config>
 8008130:	4603      	mov	r3, r0
 8008132:	f887 311f 	strb.w	r3, [r7, #287]	@ 0x11f
 8008136:	e003      	b.n	8008140 <HAL_RCCEx_PeriphCLKConfig+0xfc0>
 8008138:	2301      	movs	r3, #1
 800813a:	f887 311f 	strb.w	r3, [r7, #287]	@ 0x11f
 800813e:	bf00      	nop
 8008140:	f897 311f 	ldrb.w	r3, [r7, #287]	@ 0x11f
 8008144:	2b00      	cmp	r3, #0
 8008146:	d10d      	bne.n	8008164 <HAL_RCCEx_PeriphCLKConfig+0xfe4>
 8008148:	4b05      	ldr	r3, [pc, #20]	@ (8008160 <HAL_RCCEx_PeriphCLKConfig+0xfe0>)
 800814a:	6cdb      	ldr	r3, [r3, #76]	@ 0x4c
 800814c:	f423 3180 	bic.w	r1, r3, #65536	@ 0x10000
 8008150:	f8d7 310c 	ldr.w	r3, [r7, #268]	@ 0x10c
 8008154:	6d1b      	ldr	r3, [r3, #80]	@ 0x50
 8008156:	4a02      	ldr	r2, [pc, #8]	@ (8008160 <HAL_RCCEx_PeriphCLKConfig+0xfe0>)
 8008158:	430b      	orrs	r3, r1
 800815a:	64d3      	str	r3, [r2, #76]	@ 0x4c
 800815c:	e006      	b.n	800816c <HAL_RCCEx_PeriphCLKConfig+0xfec>
 800815e:	bf00      	nop
 8008160:	58024400 	.word	0x58024400
 8008164:	f897 311f 	ldrb.w	r3, [r7, #287]	@ 0x11f
 8008168:	f887 311e 	strb.w	r3, [r7, #286]	@ 0x11e
 800816c:	f8d7 310c 	ldr.w	r3, [r7, #268]	@ 0x10c
 8008170:	e9d3 2300 	ldrd	r2, r3, [r3]
 8008174:	f002 5300 	and.w	r3, r2, #536870912	@ 0x20000000
 8008178:	66bb      	str	r3, [r7, #104]	@ 0x68
 800817a:	2300      	movs	r3, #0
 800817c:	66fb      	str	r3, [r7, #108]	@ 0x6c
 800817e:	e9d7 121a 	ldrd	r1, r2, [r7, #104]	@ 0x68
 8008182:	460b      	mov	r3, r1
 8008184:	4313      	orrs	r3, r2
 8008186:	d00c      	beq.n	80081a2 <HAL_RCCEx_PeriphCLKConfig+0x1022>
 8008188:	f8d7 310c 	ldr.w	r3, [r7, #268]	@ 0x10c
 800818c:	3328      	adds	r3, #40	@ 0x28
 800818e:	2102      	movs	r1, #2
 8008190:	4618      	mov	r0, r3
 8008192:	f001 fba3 	bl	80098dc <RCCEx_PLL3_Config>
 8008196:	4603      	mov	r3, r0
 8008198:	2b00      	cmp	r3, #0
 800819a:	d002      	beq.n	80081a2 <HAL_RCCEx_PeriphCLKConfig+0x1022>
 800819c:	2301      	movs	r3, #1
 800819e:	f887 311e 	strb.w	r3, [r7, #286]	@ 0x11e
 80081a2:	f8d7 310c 	ldr.w	r3, [r7, #268]	@ 0x10c
 80081a6:	e9d3 2300 	ldrd	r2, r3, [r3]
 80081aa:	f402 3300 	and.w	r3, r2, #131072	@ 0x20000
 80081ae:	663b      	str	r3, [r7, #96]	@ 0x60
 80081b0:	2300      	movs	r3, #0
 80081b2:	667b      	str	r3, [r7, #100]	@ 0x64
 80081b4:	e9d7 1218 	ldrd	r1, r2, [r7, #96]	@ 0x60
 80081b8:	460b      	mov	r3, r1
 80081ba:	4313      	orrs	r3, r2
 80081bc:	d038      	beq.n	8008230 <HAL_RCCEx_PeriphCLKConfig+0x10b0>
 80081be:	f8d7 310c 	ldr.w	r3, [r7, #268]	@ 0x10c
 80081c2:	f8d3 3088 	ldr.w	r3, [r3, #136]	@ 0x88
 80081c6:	f5b3 7f40 	cmp.w	r3, #768	@ 0x300
 80081ca:	d018      	beq.n	80081fe <HAL_RCCEx_PeriphCLKConfig+0x107e>
 80081cc:	f5b3 7f40 	cmp.w	r3, #768	@ 0x300
 80081d0:	d811      	bhi.n	80081f6 <HAL_RCCEx_PeriphCLKConfig+0x1076>
 80081d2:	f5b3 7f00 	cmp.w	r3, #512	@ 0x200
 80081d6:	d014      	beq.n	8008202 <HAL_RCCEx_PeriphCLKConfig+0x1082>
 80081d8:	f5b3 7f00 	cmp.w	r3, #512	@ 0x200
 80081dc:	d80b      	bhi.n	80081f6 <HAL_RCCEx_PeriphCLKConfig+0x1076>
 80081de:	2b00      	cmp	r3, #0
 80081e0:	d011      	beq.n	8008206 <HAL_RCCEx_PeriphCLKConfig+0x1086>
 80081e2:	f5b3 7f80 	cmp.w	r3, #256	@ 0x100
 80081e6:	d106      	bne.n	80081f6 <HAL_RCCEx_PeriphCLKConfig+0x1076>
 80081e8:	4bc3      	ldr	r3, [pc, #780]	@ (80084f8 <HAL_RCCEx_PeriphCLKConfig+0x1378>)
 80081ea:	6adb      	ldr	r3, [r3, #44]	@ 0x2c
 80081ec:	4ac2      	ldr	r2, [pc, #776]	@ (80084f8 <HAL_RCCEx_PeriphCLKConfig+0x1378>)
 80081ee:	f443 3300 	orr.w	r3, r3, #131072	@ 0x20000
 80081f2:	62d3      	str	r3, [r2, #44]	@ 0x2c
 80081f4:	e008      	b.n	8008208 <HAL_RCCEx_PeriphCLKConfig+0x1088>
 80081f6:	2301      	movs	r3, #1
 80081f8:	f887 311f 	strb.w	r3, [r7, #287]	@ 0x11f
 80081fc:	e004      	b.n	8008208 <HAL_RCCEx_PeriphCLKConfig+0x1088>
 80081fe:	bf00      	nop
 8008200:	e002      	b.n	8008208 <HAL_RCCEx_PeriphCLKConfig+0x1088>
 8008202:	bf00      	nop
 8008204:	e000      	b.n	8008208 <HAL_RCCEx_PeriphCLKConfig+0x1088>
 8008206:	bf00      	nop
 8008208:	f897 311f 	ldrb.w	r3, [r7, #287]	@ 0x11f
 800820c:	2b00      	cmp	r3, #0
 800820e:	d10b      	bne.n	8008228 <HAL_RCCEx_PeriphCLKConfig+0x10a8>
 8008210:	4bb9      	ldr	r3, [pc, #740]	@ (80084f8 <HAL_RCCEx_PeriphCLKConfig+0x1378>)
 8008212:	6d5b      	ldr	r3, [r3, #84]	@ 0x54
 8008214:	f423 7140 	bic.w	r1, r3, #768	@ 0x300
 8008218:	f8d7 310c 	ldr.w	r3, [r7, #268]	@ 0x10c
 800821c:	f8d3 3088 	ldr.w	r3, [r3, #136]	@ 0x88
 8008220:	4ab5      	ldr	r2, [pc, #724]	@ (80084f8 <HAL_RCCEx_PeriphCLKConfig+0x1378>)
 8008222:	430b      	orrs	r3, r1
 8008224:	6553      	str	r3, [r2, #84]	@ 0x54
 8008226:	e003      	b.n	8008230 <HAL_RCCEx_PeriphCLKConfig+0x10b0>
 8008228:	f897 311f 	ldrb.w	r3, [r7, #287]	@ 0x11f
 800822c:	f887 311e 	strb.w	r3, [r7, #286]	@ 0x11e
 8008230:	f8d7 310c 	ldr.w	r3, [r7, #268]	@ 0x10c
 8008234:	e9d3 2300 	ldrd	r2, r3, [r3]
 8008238:	f402 1380 	and.w	r3, r2, #1048576	@ 0x100000
 800823c:	65bb      	str	r3, [r7, #88]	@ 0x58
 800823e:	2300      	movs	r3, #0
 8008240:	65fb      	str	r3, [r7, #92]	@ 0x5c
 8008242:	e9d7 1216 	ldrd	r1, r2, [r7, #88]	@ 0x58
 8008246:	460b      	mov	r3, r1
 8008248:	4313      	orrs	r3, r2
 800824a:	d009      	beq.n	8008260 <HAL_RCCEx_PeriphCLKConfig+0x10e0>
 800824c:	4baa      	ldr	r3, [pc, #680]	@ (80084f8 <HAL_RCCEx_PeriphCLKConfig+0x1378>)
 800824e:	6d1b      	ldr	r3, [r3, #80]	@ 0x50
 8008250:	f023 4100 	bic.w	r1, r3, #2147483648	@ 0x80000000
 8008254:	f8d7 310c 	ldr.w	r3, [r7, #268]	@ 0x10c
 8008258:	6fdb      	ldr	r3, [r3, #124]	@ 0x7c
 800825a:	4aa7      	ldr	r2, [pc, #668]	@ (80084f8 <HAL_RCCEx_PeriphCLKConfig+0x1378>)
 800825c:	430b      	orrs	r3, r1
 800825e:	6513      	str	r3, [r2, #80]	@ 0x50
 8008260:	f8d7 310c 	ldr.w	r3, [r7, #268]	@ 0x10c
 8008264:	e9d3 2300 	ldrd	r2, r3, [r3]
 8008268:	f402 1300 	and.w	r3, r2, #2097152	@ 0x200000
 800826c:	653b      	str	r3, [r7, #80]	@ 0x50
 800826e:	2300      	movs	r3, #0
 8008270:	657b      	str	r3, [r7, #84]	@ 0x54
 8008272:	e9d7 1214 	ldrd	r1, r2, [r7, #80]	@ 0x50
 8008276:	460b      	mov	r3, r1
 8008278:	4313      	orrs	r3, r2
 800827a:	d009      	beq.n	8008290 <HAL_RCCEx_PeriphCLKConfig+0x1110>
 800827c:	4b9e      	ldr	r3, [pc, #632]	@ (80084f8 <HAL_RCCEx_PeriphCLKConfig+0x1378>)
 800827e:	6d1b      	ldr	r3, [r3, #80]	@ 0x50
 8008280:	f023 7180 	bic.w	r1, r3, #16777216	@ 0x1000000
 8008284:	f8d7 310c 	ldr.w	r3, [r7, #268]	@ 0x10c
 8008288:	6f1b      	ldr	r3, [r3, #112]	@ 0x70
 800828a:	4a9b      	ldr	r2, [pc, #620]	@ (80084f8 <HAL_RCCEx_PeriphCLKConfig+0x1378>)
 800828c:	430b      	orrs	r3, r1
 800828e:	6513      	str	r3, [r2, #80]	@ 0x50
 8008290:	f8d7 310c 	ldr.w	r3, [r7, #268]	@ 0x10c
 8008294:	e9d3 2300 	ldrd	r2, r3, [r3]
 8008298:	f402 6300 	and.w	r3, r2, #2048	@ 0x800
 800829c:	64bb      	str	r3, [r7, #72]	@ 0x48
 800829e:	2300      	movs	r3, #0
 80082a0:	64fb      	str	r3, [r7, #76]	@ 0x4c
 80082a2:	e9d7 1212 	ldrd	r1, r2, [r7, #72]	@ 0x48
 80082a6:	460b      	mov	r3, r1
 80082a8:	4313      	orrs	r3, r2
 80082aa:	d009      	beq.n	80082c0 <HAL_RCCEx_PeriphCLKConfig+0x1140>
 80082ac:	4b92      	ldr	r3, [pc, #584]	@ (80084f8 <HAL_RCCEx_PeriphCLKConfig+0x1378>)
 80082ae:	6d9b      	ldr	r3, [r3, #88]	@ 0x58
 80082b0:	f023 6100 	bic.w	r1, r3, #134217728	@ 0x8000000
 80082b4:	f8d7 310c 	ldr.w	r3, [r7, #268]	@ 0x10c
 80082b8:	6f5b      	ldr	r3, [r3, #116]	@ 0x74
 80082ba:	4a8f      	ldr	r2, [pc, #572]	@ (80084f8 <HAL_RCCEx_PeriphCLKConfig+0x1378>)
 80082bc:	430b      	orrs	r3, r1
 80082be:	6593      	str	r3, [r2, #88]	@ 0x58
 80082c0:	f8d7 310c 	ldr.w	r3, [r7, #268]	@ 0x10c
 80082c4:	e9d3 2300 	ldrd	r2, r3, [r3]
 80082c8:	f002 4380 	and.w	r3, r2, #1073741824	@ 0x40000000
 80082cc:	643b      	str	r3, [r7, #64]	@ 0x40
 80082ce:	2300      	movs	r3, #0
 80082d0:	647b      	str	r3, [r7, #68]	@ 0x44
 80082d2:	e9d7 1210 	ldrd	r1, r2, [r7, #64]	@ 0x40
 80082d6:	460b      	mov	r3, r1
 80082d8:	4313      	orrs	r3, r2
 80082da:	d00e      	beq.n	80082fa <HAL_RCCEx_PeriphCLKConfig+0x117a>
 80082dc:	4b86      	ldr	r3, [pc, #536]	@ (80084f8 <HAL_RCCEx_PeriphCLKConfig+0x1378>)
 80082de:	691b      	ldr	r3, [r3, #16]
 80082e0:	4a85      	ldr	r2, [pc, #532]	@ (80084f8 <HAL_RCCEx_PeriphCLKConfig+0x1378>)
 80082e2:	f423 4300 	bic.w	r3, r3, #32768	@ 0x8000
 80082e6:	6113      	str	r3, [r2, #16]
 80082e8:	4b83      	ldr	r3, [pc, #524]	@ (80084f8 <HAL_RCCEx_PeriphCLKConfig+0x1378>)
 80082ea:	6919      	ldr	r1, [r3, #16]
 80082ec:	f8d7 310c 	ldr.w	r3, [r7, #268]	@ 0x10c
 80082f0:	f8d3 30b8 	ldr.w	r3, [r3, #184]	@ 0xb8
 80082f4:	4a80      	ldr	r2, [pc, #512]	@ (80084f8 <HAL_RCCEx_PeriphCLKConfig+0x1378>)
 80082f6:	430b      	orrs	r3, r1
 80082f8:	6113      	str	r3, [r2, #16]
 80082fa:	f8d7 310c 	ldr.w	r3, [r7, #268]	@ 0x10c
 80082fe:	e9d3 2300 	ldrd	r2, r3, [r3]
 8008302:	f002 4300 	and.w	r3, r2, #2147483648	@ 0x80000000
 8008306:	63bb      	str	r3, [r7, #56]	@ 0x38
 8008308:	2300      	movs	r3, #0
 800830a:	63fb      	str	r3, [r7, #60]	@ 0x3c
 800830c:	e9d7 120e 	ldrd	r1, r2, [r7, #56]	@ 0x38
 8008310:	460b      	mov	r3, r1
 8008312:	4313      	orrs	r3, r2
 8008314:	d009      	beq.n	800832a <HAL_RCCEx_PeriphCLKConfig+0x11aa>
 8008316:	4b78      	ldr	r3, [pc, #480]	@ (80084f8 <HAL_RCCEx_PeriphCLKConfig+0x1378>)
 8008318:	6cdb      	ldr	r3, [r3, #76]	@ 0x4c
 800831a:	f023 5140 	bic.w	r1, r3, #805306368	@ 0x30000000
 800831e:	f8d7 310c 	ldr.w	r3, [r7, #268]	@ 0x10c
 8008322:	6d5b      	ldr	r3, [r3, #84]	@ 0x54
 8008324:	4a74      	ldr	r2, [pc, #464]	@ (80084f8 <HAL_RCCEx_PeriphCLKConfig+0x1378>)
 8008326:	430b      	orrs	r3, r1
 8008328:	64d3      	str	r3, [r2, #76]	@ 0x4c
 800832a:	f8d7 310c 	ldr.w	r3, [r7, #268]	@ 0x10c
 800832e:	e9d3 2300 	ldrd	r2, r3, [r3]
 8008332:	f402 0300 	and.w	r3, r2, #8388608	@ 0x800000
 8008336:	633b      	str	r3, [r7, #48]	@ 0x30
 8008338:	2300      	movs	r3, #0
 800833a:	637b      	str	r3, [r7, #52]	@ 0x34
 800833c:	e9d7 120c 	ldrd	r1, r2, [r7, #48]	@ 0x30
 8008340:	460b      	mov	r3, r1
 8008342:	4313      	orrs	r3, r2
 8008344:	d00a      	beq.n	800835c <HAL_RCCEx_PeriphCLKConfig+0x11dc>
 8008346:	4b6c      	ldr	r3, [pc, #432]	@ (80084f8 <HAL_RCCEx_PeriphCLKConfig+0x1378>)
 8008348:	6d5b      	ldr	r3, [r3, #84]	@ 0x54
 800834a:	f423 0140 	bic.w	r1, r3, #12582912	@ 0xc00000
 800834e:	f8d7 310c 	ldr.w	r3, [r7, #268]	@ 0x10c
 8008352:	f8d3 3094 	ldr.w	r3, [r3, #148]	@ 0x94
 8008356:	4a68      	ldr	r2, [pc, #416]	@ (80084f8 <HAL_RCCEx_PeriphCLKConfig+0x1378>)
 8008358:	430b      	orrs	r3, r1
 800835a:	6553      	str	r3, [r2, #84]	@ 0x54
 800835c:	f8d7 310c 	ldr.w	r3, [r7, #268]	@ 0x10c
 8008360:	e9d3 2300 	ldrd	r2, r3, [r3]
 8008364:	2100      	movs	r1, #0
 8008366:	62b9      	str	r1, [r7, #40]	@ 0x28
 8008368:	f003 0301 	and.w	r3, r3, #1
 800836c:	62fb      	str	r3, [r7, #44]	@ 0x2c
 800836e:	e9d7 120a 	ldrd	r1, r2, [r7, #40]	@ 0x28
 8008372:	460b      	mov	r3, r1
 8008374:	4313      	orrs	r3, r2
 8008376:	d011      	beq.n	800839c <HAL_RCCEx_PeriphCLKConfig+0x121c>
 8008378:	f8d7 310c 	ldr.w	r3, [r7, #268]	@ 0x10c
 800837c:	3308      	adds	r3, #8
 800837e:	2100      	movs	r1, #0
 8008380:	4618      	mov	r0, r3
 8008382:	f001 f9f9 	bl	8009778 <RCCEx_PLL2_Config>
 8008386:	4603      	mov	r3, r0
 8008388:	f887 311f 	strb.w	r3, [r7, #287]	@ 0x11f
 800838c:	f897 311f 	ldrb.w	r3, [r7, #287]	@ 0x11f
 8008390:	2b00      	cmp	r3, #0
 8008392:	d003      	beq.n	800839c <HAL_RCCEx_PeriphCLKConfig+0x121c>
 8008394:	f897 311f 	ldrb.w	r3, [r7, #287]	@ 0x11f
 8008398:	f887 311e 	strb.w	r3, [r7, #286]	@ 0x11e
 800839c:	f8d7 310c 	ldr.w	r3, [r7, #268]	@ 0x10c
 80083a0:	e9d3 2300 	ldrd	r2, r3, [r3]
 80083a4:	2100      	movs	r1, #0
 80083a6:	6239      	str	r1, [r7, #32]
 80083a8:	f003 0302 	and.w	r3, r3, #2
 80083ac:	627b      	str	r3, [r7, #36]	@ 0x24
 80083ae:	e9d7 1208 	ldrd	r1, r2, [r7, #32]
 80083b2:	460b      	mov	r3, r1
 80083b4:	4313      	orrs	r3, r2
 80083b6:	d011      	beq.n	80083dc <HAL_RCCEx_PeriphCLKConfig+0x125c>
 80083b8:	f8d7 310c 	ldr.w	r3, [r7, #268]	@ 0x10c
 80083bc:	3308      	adds	r3, #8
 80083be:	2101      	movs	r1, #1
 80083c0:	4618      	mov	r0, r3
 80083c2:	f001 f9d9 	bl	8009778 <RCCEx_PLL2_Config>
 80083c6:	4603      	mov	r3, r0
 80083c8:	f887 311f 	strb.w	r3, [r7, #287]	@ 0x11f
 80083cc:	f897 311f 	ldrb.w	r3, [r7, #287]	@ 0x11f
 80083d0:	2b00      	cmp	r3, #0
 80083d2:	d003      	beq.n	80083dc <HAL_RCCEx_PeriphCLKConfig+0x125c>
 80083d4:	f897 311f 	ldrb.w	r3, [r7, #287]	@ 0x11f
 80083d8:	f887 311e 	strb.w	r3, [r7, #286]	@ 0x11e
 80083dc:	f8d7 310c 	ldr.w	r3, [r7, #268]	@ 0x10c
 80083e0:	e9d3 2300 	ldrd	r2, r3, [r3]
 80083e4:	2100      	movs	r1, #0
 80083e6:	61b9      	str	r1, [r7, #24]
 80083e8:	f003 0304 	and.w	r3, r3, #4
 80083ec:	61fb      	str	r3, [r7, #28]
 80083ee:	e9d7 1206 	ldrd	r1, r2, [r7, #24]
 80083f2:	460b      	mov	r3, r1
 80083f4:	4313      	orrs	r3, r2
 80083f6:	d011      	beq.n	800841c <HAL_RCCEx_PeriphCLKConfig+0x129c>
 80083f8:	f8d7 310c 	ldr.w	r3, [r7, #268]	@ 0x10c
 80083fc:	3308      	adds	r3, #8
 80083fe:	2102      	movs	r1, #2
 8008400:	4618      	mov	r0, r3
 8008402:	f001 f9b9 	bl	8009778 <RCCEx_PLL2_Config>
 8008406:	4603      	mov	r3, r0
 8008408:	f887 311f 	strb.w	r3, [r7, #287]	@ 0x11f
 800840c:	f897 311f 	ldrb.w	r3, [r7, #287]	@ 0x11f
 8008410:	2b00      	cmp	r3, #0
 8008412:	d003      	beq.n	800841c <HAL_RCCEx_PeriphCLKConfig+0x129c>
 8008414:	f897 311f 	ldrb.w	r3, [r7, #287]	@ 0x11f
 8008418:	f887 311e 	strb.w	r3, [r7, #286]	@ 0x11e
 800841c:	f8d7 310c 	ldr.w	r3, [r7, #268]	@ 0x10c
 8008420:	e9d3 2300 	ldrd	r2, r3, [r3]
 8008424:	2100      	movs	r1, #0
 8008426:	6139      	str	r1, [r7, #16]
 8008428:	f003 0308 	and.w	r3, r3, #8
 800842c:	617b      	str	r3, [r7, #20]
 800842e:	e9d7 1204 	ldrd	r1, r2, [r7, #16]
 8008432:	460b      	mov	r3, r1
 8008434:	4313      	orrs	r3, r2
 8008436:	d011      	beq.n	800845c <HAL_RCCEx_PeriphCLKConfig+0x12dc>
 8008438:	f8d7 310c 	ldr.w	r3, [r7, #268]	@ 0x10c
 800843c:	3328      	adds	r3, #40	@ 0x28
 800843e:	2100      	movs	r1, #0
 8008440:	4618      	mov	r0, r3
 8008442:	f001 fa4b 	bl	80098dc <RCCEx_PLL3_Config>
 8008446:	4603      	mov	r3, r0
 8008448:	f887 311f 	strb.w	r3, [r7, #287]	@ 0x11f
 800844c:	f897 311f 	ldrb.w	r3, [r7, #287]	@ 0x11f
 8008450:	2b00      	cmp	r3, #0
 8008452:	d003      	beq.n	800845c <HAL_RCCEx_PeriphCLKConfig+0x12dc>
 8008454:	f897 311f 	ldrb.w	r3, [r7, #287]	@ 0x11f
 8008458:	f887 311e 	strb.w	r3, [r7, #286]	@ 0x11e
 800845c:	f8d7 310c 	ldr.w	r3, [r7, #268]	@ 0x10c
 8008460:	e9d3 2300 	ldrd	r2, r3, [r3]
 8008464:	2100      	movs	r1, #0
 8008466:	60b9      	str	r1, [r7, #8]
 8008468:	f003 0310 	and.w	r3, r3, #16
 800846c:	60fb      	str	r3, [r7, #12]
 800846e:	e9d7 1202 	ldrd	r1, r2, [r7, #8]
 8008472:	460b      	mov	r3, r1
 8008474:	4313      	orrs	r3, r2
 8008476:	d011      	beq.n	800849c <HAL_RCCEx_PeriphCLKConfig+0x131c>
 8008478:	f8d7 310c 	ldr.w	r3, [r7, #268]	@ 0x10c
 800847c:	3328      	adds	r3, #40	@ 0x28
 800847e:	2101      	movs	r1, #1
 8008480:	4618      	mov	r0, r3
 8008482:	f001 fa2b 	bl	80098dc <RCCEx_PLL3_Config>
 8008486:	4603      	mov	r3, r0
 8008488:	f887 311f 	strb.w	r3, [r7, #287]	@ 0x11f
 800848c:	f897 311f 	ldrb.w	r3, [r7, #287]	@ 0x11f
 8008490:	2b00      	cmp	r3, #0
 8008492:	d003      	beq.n	800849c <HAL_RCCEx_PeriphCLKConfig+0x131c>
 8008494:	f897 311f 	ldrb.w	r3, [r7, #287]	@ 0x11f
 8008498:	f887 311e 	strb.w	r3, [r7, #286]	@ 0x11e
 800849c:	f8d7 310c 	ldr.w	r3, [r7, #268]	@ 0x10c
 80084a0:	e9d3 2300 	ldrd	r2, r3, [r3]
 80084a4:	2100      	movs	r1, #0
 80084a6:	6039      	str	r1, [r7, #0]
 80084a8:	f003 0320 	and.w	r3, r3, #32
 80084ac:	607b      	str	r3, [r7, #4]
 80084ae:	e9d7 1200 	ldrd	r1, r2, [r7]
 80084b2:	460b      	mov	r3, r1
 80084b4:	4313      	orrs	r3, r2
 80084b6:	d011      	beq.n	80084dc <HAL_RCCEx_PeriphCLKConfig+0x135c>
 80084b8:	f8d7 310c 	ldr.w	r3, [r7, #268]	@ 0x10c
 80084bc:	3328      	adds	r3, #40	@ 0x28
 80084be:	2102      	movs	r1, #2
 80084c0:	4618      	mov	r0, r3
 80084c2:	f001 fa0b 	bl	80098dc <RCCEx_PLL3_Config>
 80084c6:	4603      	mov	r3, r0
 80084c8:	f887 311f 	strb.w	r3, [r7, #287]	@ 0x11f
 80084cc:	f897 311f 	ldrb.w	r3, [r7, #287]	@ 0x11f
 80084d0:	2b00      	cmp	r3, #0
 80084d2:	d003      	beq.n	80084dc <HAL_RCCEx_PeriphCLKConfig+0x135c>
 80084d4:	f897 311f 	ldrb.w	r3, [r7, #287]	@ 0x11f
 80084d8:	f887 311e 	strb.w	r3, [r7, #286]	@ 0x11e
 80084dc:	f897 311e 	ldrb.w	r3, [r7, #286]	@ 0x11e
 80084e0:	2b00      	cmp	r3, #0
 80084e2:	d101      	bne.n	80084e8 <HAL_RCCEx_PeriphCLKConfig+0x1368>
 80084e4:	2300      	movs	r3, #0
 80084e6:	e000      	b.n	80084ea <HAL_RCCEx_PeriphCLKConfig+0x136a>
 80084e8:	2301      	movs	r3, #1
 80084ea:	4618      	mov	r0, r3
 80084ec:	f507 7790 	add.w	r7, r7, #288	@ 0x120
 80084f0:	46bd      	mov	sp, r7
 80084f2:	e8bd 8fb0 	ldmia.w	sp!, {r4, r5, r7, r8, r9, sl, fp, pc}
 80084f6:	bf00      	nop
 80084f8:	58024400 	.word	0x58024400

080084fc <HAL_RCCEx_GetPeriphCLKFreq>:
 80084fc:	b580      	push	{r7, lr}
 80084fe:	b090      	sub	sp, #64	@ 0x40
 8008500:	af00      	add	r7, sp, #0
 8008502:	e9c7 0100 	strd	r0, r1, [r7]
 8008506:	e9d7 2300 	ldrd	r2, r3, [r7]
 800850a:	f5a2 7180 	sub.w	r1, r2, #256	@ 0x100
 800850e:	430b      	orrs	r3, r1
 8008510:	f040 8094 	bne.w	800863c <HAL_RCCEx_GetPeriphCLKFreq+0x140>
 8008514:	4b97      	ldr	r3, [pc, #604]	@ (8008774 <HAL_RCCEx_GetPeriphCLKFreq+0x278>)
 8008516:	6d1b      	ldr	r3, [r3, #80]	@ 0x50
 8008518:	f003 0307 	and.w	r3, r3, #7
 800851c:	633b      	str	r3, [r7, #48]	@ 0x30
 800851e:	6b3b      	ldr	r3, [r7, #48]	@ 0x30
 8008520:	2b04      	cmp	r3, #4
 8008522:	f200 8087 	bhi.w	8008634 <HAL_RCCEx_GetPeriphCLKFreq+0x138>
 8008526:	a201      	add	r2, pc, #4	@ (adr r2, 800852c <HAL_RCCEx_GetPeriphCLKFreq+0x30>)
 8008528:	f852 f023 	ldr.w	pc, [r2, r3, lsl #2]
 800852c:	08008541 	.word	0x08008541
 8008530:	08008569 	.word	0x08008569
 8008534:	08008591 	.word	0x08008591
 8008538:	0800862d 	.word	0x0800862d
 800853c:	080085b9 	.word	0x080085b9
 8008540:	4b8c      	ldr	r3, [pc, #560]	@ (8008774 <HAL_RCCEx_GetPeriphCLKFreq+0x278>)
 8008542:	681b      	ldr	r3, [r3, #0]
 8008544:	f003 7300 	and.w	r3, r3, #33554432	@ 0x2000000
 8008548:	f1b3 7f00 	cmp.w	r3, #33554432	@ 0x2000000
 800854c:	d108      	bne.n	8008560 <HAL_RCCEx_GetPeriphCLKFreq+0x64>
 800854e:	f107 0324 	add.w	r3, r7, #36	@ 0x24
 8008552:	4618      	mov	r0, r3
 8008554:	f000 ff68 	bl	8009428 <HAL_RCCEx_GetPLL1ClockFreq>
 8008558:	6abb      	ldr	r3, [r7, #40]	@ 0x28
 800855a:	63fb      	str	r3, [r7, #60]	@ 0x3c
 800855c:	f000 bc97 	b.w	8008e8e <HAL_RCCEx_GetPeriphCLKFreq+0x992>
 8008560:	2300      	movs	r3, #0
 8008562:	63fb      	str	r3, [r7, #60]	@ 0x3c
 8008564:	f000 bc93 	b.w	8008e8e <HAL_RCCEx_GetPeriphCLKFreq+0x992>
 8008568:	4b82      	ldr	r3, [pc, #520]	@ (8008774 <HAL_RCCEx_GetPeriphCLKFreq+0x278>)
 800856a:	681b      	ldr	r3, [r3, #0]
 800856c:	f003 6300 	and.w	r3, r3, #134217728	@ 0x8000000
 8008570:	f1b3 6f00 	cmp.w	r3, #134217728	@ 0x8000000
 8008574:	d108      	bne.n	8008588 <HAL_RCCEx_GetPeriphCLKFreq+0x8c>
 8008576:	f107 0318 	add.w	r3, r7, #24
 800857a:	4618      	mov	r0, r3
 800857c:	f000 fcac 	bl	8008ed8 <HAL_RCCEx_GetPLL2ClockFreq>
 8008580:	69bb      	ldr	r3, [r7, #24]
 8008582:	63fb      	str	r3, [r7, #60]	@ 0x3c
 8008584:	f000 bc83 	b.w	8008e8e <HAL_RCCEx_GetPeriphCLKFreq+0x992>
 8008588:	2300      	movs	r3, #0
 800858a:	63fb      	str	r3, [r7, #60]	@ 0x3c
 800858c:	f000 bc7f 	b.w	8008e8e <HAL_RCCEx_GetPeriphCLKFreq+0x992>
 8008590:	4b78      	ldr	r3, [pc, #480]	@ (8008774 <HAL_RCCEx_GetPeriphCLKFreq+0x278>)
 8008592:	681b      	ldr	r3, [r3, #0]
 8008594:	f003 5300 	and.w	r3, r3, #536870912	@ 0x20000000
 8008598:	f1b3 5f00 	cmp.w	r3, #536870912	@ 0x20000000
 800859c:	d108      	bne.n	80085b0 <HAL_RCCEx_GetPeriphCLKFreq+0xb4>
 800859e:	f107 030c 	add.w	r3, r7, #12
 80085a2:	4618      	mov	r0, r3
 80085a4:	f000 fdec 	bl	8009180 <HAL_RCCEx_GetPLL3ClockFreq>
 80085a8:	68fb      	ldr	r3, [r7, #12]
 80085aa:	63fb      	str	r3, [r7, #60]	@ 0x3c
 80085ac:	f000 bc6f 	b.w	8008e8e <HAL_RCCEx_GetPeriphCLKFreq+0x992>
 80085b0:	2300      	movs	r3, #0
 80085b2:	63fb      	str	r3, [r7, #60]	@ 0x3c
 80085b4:	f000 bc6b 	b.w	8008e8e <HAL_RCCEx_GetPeriphCLKFreq+0x992>
 80085b8:	4b6e      	ldr	r3, [pc, #440]	@ (8008774 <HAL_RCCEx_GetPeriphCLKFreq+0x278>)
 80085ba:	6cdb      	ldr	r3, [r3, #76]	@ 0x4c
 80085bc:	f003 5340 	and.w	r3, r3, #805306368	@ 0x30000000
 80085c0:	637b      	str	r3, [r7, #52]	@ 0x34
 80085c2:	4b6c      	ldr	r3, [pc, #432]	@ (8008774 <HAL_RCCEx_GetPeriphCLKFreq+0x278>)
 80085c4:	681b      	ldr	r3, [r3, #0]
 80085c6:	f003 0304 	and.w	r3, r3, #4
 80085ca:	2b04      	cmp	r3, #4
 80085cc:	d10c      	bne.n	80085e8 <HAL_RCCEx_GetPeriphCLKFreq+0xec>
 80085ce:	6b7b      	ldr	r3, [r7, #52]	@ 0x34
 80085d0:	2b00      	cmp	r3, #0
 80085d2:	d109      	bne.n	80085e8 <HAL_RCCEx_GetPeriphCLKFreq+0xec>
 80085d4:	4b67      	ldr	r3, [pc, #412]	@ (8008774 <HAL_RCCEx_GetPeriphCLKFreq+0x278>)
 80085d6:	681b      	ldr	r3, [r3, #0]
 80085d8:	08db      	lsrs	r3, r3, #3
 80085da:	f003 0303 	and.w	r3, r3, #3
 80085de:	4a66      	ldr	r2, [pc, #408]	@ (8008778 <HAL_RCCEx_GetPeriphCLKFreq+0x27c>)
 80085e0:	fa22 f303 	lsr.w	r3, r2, r3
 80085e4:	63fb      	str	r3, [r7, #60]	@ 0x3c
 80085e6:	e01f      	b.n	8008628 <HAL_RCCEx_GetPeriphCLKFreq+0x12c>
 80085e8:	4b62      	ldr	r3, [pc, #392]	@ (8008774 <HAL_RCCEx_GetPeriphCLKFreq+0x278>)
 80085ea:	681b      	ldr	r3, [r3, #0]
 80085ec:	f403 7380 	and.w	r3, r3, #256	@ 0x100
 80085f0:	f5b3 7f80 	cmp.w	r3, #256	@ 0x100
 80085f4:	d106      	bne.n	8008604 <HAL_RCCEx_GetPeriphCLKFreq+0x108>
 80085f6:	6b7b      	ldr	r3, [r7, #52]	@ 0x34
 80085f8:	f1b3 5f80 	cmp.w	r3, #268435456	@ 0x10000000
 80085fc:	d102      	bne.n	8008604 <HAL_RCCEx_GetPeriphCLKFreq+0x108>
 80085fe:	4b5f      	ldr	r3, [pc, #380]	@ (800877c <HAL_RCCEx_GetPeriphCLKFreq+0x280>)
 8008600:	63fb      	str	r3, [r7, #60]	@ 0x3c
 8008602:	e011      	b.n	8008628 <HAL_RCCEx_GetPeriphCLKFreq+0x12c>
 8008604:	4b5b      	ldr	r3, [pc, #364]	@ (8008774 <HAL_RCCEx_GetPeriphCLKFreq+0x278>)
 8008606:	681b      	ldr	r3, [r3, #0]
 8008608:	f403 3300 	and.w	r3, r3, #131072	@ 0x20000
 800860c:	f5b3 3f00 	cmp.w	r3, #131072	@ 0x20000
 8008610:	d106      	bne.n	8008620 <HAL_RCCEx_GetPeriphCLKFreq+0x124>
 8008612:	6b7b      	ldr	r3, [r7, #52]	@ 0x34
 8008614:	f1b3 5f00 	cmp.w	r3, #536870912	@ 0x20000000
 8008618:	d102      	bne.n	8008620 <HAL_RCCEx_GetPeriphCLKFreq+0x124>
 800861a:	4b59      	ldr	r3, [pc, #356]	@ (8008780 <HAL_RCCEx_GetPeriphCLKFreq+0x284>)
 800861c:	63fb      	str	r3, [r7, #60]	@ 0x3c
 800861e:	e003      	b.n	8008628 <HAL_RCCEx_GetPeriphCLKFreq+0x12c>
 8008620:	2300      	movs	r3, #0
 8008622:	63fb      	str	r3, [r7, #60]	@ 0x3c
 8008624:	f000 bc33 	b.w	8008e8e <HAL_RCCEx_GetPeriphCLKFreq+0x992>
 8008628:	f000 bc31 	b.w	8008e8e <HAL_RCCEx_GetPeriphCLKFreq+0x992>
 800862c:	4b55      	ldr	r3, [pc, #340]	@ (8008784 <HAL_RCCEx_GetPeriphCLKFreq+0x288>)
 800862e:	63fb      	str	r3, [r7, #60]	@ 0x3c
 8008630:	f000 bc2d 	b.w	8008e8e <HAL_RCCEx_GetPeriphCLKFreq+0x992>
 8008634:	2300      	movs	r3, #0
 8008636:	63fb      	str	r3, [r7, #60]	@ 0x3c
 8008638:	f000 bc29 	b.w	8008e8e <HAL_RCCEx_GetPeriphCLKFreq+0x992>
 800863c:	e9d7 2300 	ldrd	r2, r3, [r7]
 8008640:	f5a2 7100 	sub.w	r1, r2, #512	@ 0x200
 8008644:	430b      	orrs	r3, r1
 8008646:	f040 809f 	bne.w	8008788 <HAL_RCCEx_GetPeriphCLKFreq+0x28c>
 800864a:	4b4a      	ldr	r3, [pc, #296]	@ (8008774 <HAL_RCCEx_GetPeriphCLKFreq+0x278>)
 800864c:	6d1b      	ldr	r3, [r3, #80]	@ 0x50
 800864e:	f403 73e0 	and.w	r3, r3, #448	@ 0x1c0
 8008652:	633b      	str	r3, [r7, #48]	@ 0x30
 8008654:	6b3b      	ldr	r3, [r7, #48]	@ 0x30
 8008656:	f5b3 7f80 	cmp.w	r3, #256	@ 0x100
 800865a:	d04d      	beq.n	80086f8 <HAL_RCCEx_GetPeriphCLKFreq+0x1fc>
 800865c:	6b3b      	ldr	r3, [r7, #48]	@ 0x30
 800865e:	f5b3 7f80 	cmp.w	r3, #256	@ 0x100
 8008662:	f200 8084 	bhi.w	800876e <HAL_RCCEx_GetPeriphCLKFreq+0x272>
 8008666:	6b3b      	ldr	r3, [r7, #48]	@ 0x30
 8008668:	2bc0      	cmp	r3, #192	@ 0xc0
 800866a:	d07d      	beq.n	8008768 <HAL_RCCEx_GetPeriphCLKFreq+0x26c>
 800866c:	6b3b      	ldr	r3, [r7, #48]	@ 0x30
 800866e:	2bc0      	cmp	r3, #192	@ 0xc0
 8008670:	d87d      	bhi.n	800876e <HAL_RCCEx_GetPeriphCLKFreq+0x272>
 8008672:	6b3b      	ldr	r3, [r7, #48]	@ 0x30
 8008674:	2b80      	cmp	r3, #128	@ 0x80
 8008676:	d02d      	beq.n	80086d4 <HAL_RCCEx_GetPeriphCLKFreq+0x1d8>
 8008678:	6b3b      	ldr	r3, [r7, #48]	@ 0x30
 800867a:	2b80      	cmp	r3, #128	@ 0x80
 800867c:	d877      	bhi.n	800876e <HAL_RCCEx_GetPeriphCLKFreq+0x272>
 800867e:	6b3b      	ldr	r3, [r7, #48]	@ 0x30
 8008680:	2b00      	cmp	r3, #0
 8008682:	d003      	beq.n	800868c <HAL_RCCEx_GetPeriphCLKFreq+0x190>
 8008684:	6b3b      	ldr	r3, [r7, #48]	@ 0x30
 8008686:	2b40      	cmp	r3, #64	@ 0x40
 8008688:	d012      	beq.n	80086b0 <HAL_RCCEx_GetPeriphCLKFreq+0x1b4>
 800868a:	e070      	b.n	800876e <HAL_RCCEx_GetPeriphCLKFreq+0x272>
 800868c:	4b39      	ldr	r3, [pc, #228]	@ (8008774 <HAL_RCCEx_GetPeriphCLKFreq+0x278>)
 800868e:	681b      	ldr	r3, [r3, #0]
 8008690:	f003 7300 	and.w	r3, r3, #33554432	@ 0x2000000
 8008694:	f1b3 7f00 	cmp.w	r3, #33554432	@ 0x2000000
 8008698:	d107      	bne.n	80086aa <HAL_RCCEx_GetPeriphCLKFreq+0x1ae>
 800869a:	f107 0324 	add.w	r3, r7, #36	@ 0x24
 800869e:	4618      	mov	r0, r3
 80086a0:	f000 fec2 	bl	8009428 <HAL_RCCEx_GetPLL1ClockFreq>
 80086a4:	6abb      	ldr	r3, [r7, #40]	@ 0x28
 80086a6:	63fb      	str	r3, [r7, #60]	@ 0x3c
 80086a8:	e3f1      	b.n	8008e8e <HAL_RCCEx_GetPeriphCLKFreq+0x992>
 80086aa:	2300      	movs	r3, #0
 80086ac:	63fb      	str	r3, [r7, #60]	@ 0x3c
 80086ae:	e3ee      	b.n	8008e8e <HAL_RCCEx_GetPeriphCLKFreq+0x992>
 80086b0:	4b30      	ldr	r3, [pc, #192]	@ (8008774 <HAL_RCCEx_GetPeriphCLKFreq+0x278>)
 80086b2:	681b      	ldr	r3, [r3, #0]
 80086b4:	f003 6300 	and.w	r3, r3, #134217728	@ 0x8000000
 80086b8:	f1b3 6f00 	cmp.w	r3, #134217728	@ 0x8000000
 80086bc:	d107      	bne.n	80086ce <HAL_RCCEx_GetPeriphCLKFreq+0x1d2>
 80086be:	f107 0318 	add.w	r3, r7, #24
 80086c2:	4618      	mov	r0, r3
 80086c4:	f000 fc08 	bl	8008ed8 <HAL_RCCEx_GetPLL2ClockFreq>
 80086c8:	69bb      	ldr	r3, [r7, #24]
 80086ca:	63fb      	str	r3, [r7, #60]	@ 0x3c
 80086cc:	e3df      	b.n	8008e8e <HAL_RCCEx_GetPeriphCLKFreq+0x992>
 80086ce:	2300      	movs	r3, #0
 80086d0:	63fb      	str	r3, [r7, #60]	@ 0x3c
 80086d2:	e3dc      	b.n	8008e8e <HAL_RCCEx_GetPeriphCLKFreq+0x992>
 80086d4:	4b27      	ldr	r3, [pc, #156]	@ (8008774 <HAL_RCCEx_GetPeriphCLKFreq+0x278>)
 80086d6:	681b      	ldr	r3, [r3, #0]
 80086d8:	f003 5300 	and.w	r3, r3, #536870912	@ 0x20000000
 80086dc:	f1b3 5f00 	cmp.w	r3, #536870912	@ 0x20000000
 80086e0:	d107      	bne.n	80086f2 <HAL_RCCEx_GetPeriphCLKFreq+0x1f6>
 80086e2:	f107 030c 	add.w	r3, r7, #12
 80086e6:	4618      	mov	r0, r3
 80086e8:	f000 fd4a 	bl	8009180 <HAL_RCCEx_GetPLL3ClockFreq>
 80086ec:	68fb      	ldr	r3, [r7, #12]
 80086ee:	63fb      	str	r3, [r7, #60]	@ 0x3c
 80086f0:	e3cd      	b.n	8008e8e <HAL_RCCEx_GetPeriphCLKFreq+0x992>
 80086f2:	2300      	movs	r3, #0
 80086f4:	63fb      	str	r3, [r7, #60]	@ 0x3c
 80086f6:	e3ca      	b.n	8008e8e <HAL_RCCEx_GetPeriphCLKFreq+0x992>
 80086f8:	4b1e      	ldr	r3, [pc, #120]	@ (8008774 <HAL_RCCEx_GetPeriphCLKFreq+0x278>)
 80086fa:	6cdb      	ldr	r3, [r3, #76]	@ 0x4c
 80086fc:	f003 5340 	and.w	r3, r3, #805306368	@ 0x30000000
 8008700:	637b      	str	r3, [r7, #52]	@ 0x34
 8008702:	4b1c      	ldr	r3, [pc, #112]	@ (8008774 <HAL_RCCEx_GetPeriphCLKFreq+0x278>)
 8008704:	681b      	ldr	r3, [r3, #0]
 8008706:	f003 0304 	and.w	r3, r3, #4
 800870a:	2b04      	cmp	r3, #4
 800870c:	d10c      	bne.n	8008728 <HAL_RCCEx_GetPeriphCLKFreq+0x22c>
 800870e:	6b7b      	ldr	r3, [r7, #52]	@ 0x34
 8008710:	2b00      	cmp	r3, #0
 8008712:	d109      	bne.n	8008728 <HAL_RCCEx_GetPeriphCLKFreq+0x22c>
 8008714:	4b17      	ldr	r3, [pc, #92]	@ (8008774 <HAL_RCCEx_GetPeriphCLKFreq+0x278>)
 8008716:	681b      	ldr	r3, [r3, #0]
 8008718:	08db      	lsrs	r3, r3, #3
 800871a:	f003 0303 	and.w	r3, r3, #3
 800871e:	4a16      	ldr	r2, [pc, #88]	@ (8008778 <HAL_RCCEx_GetPeriphCLKFreq+0x27c>)
 8008720:	fa22 f303 	lsr.w	r3, r2, r3
 8008724:	63fb      	str	r3, [r7, #60]	@ 0x3c
 8008726:	e01e      	b.n	8008766 <HAL_RCCEx_GetPeriphCLKFreq+0x26a>
 8008728:	4b12      	ldr	r3, [pc, #72]	@ (8008774 <HAL_RCCEx_GetPeriphCLKFreq+0x278>)
 800872a:	681b      	ldr	r3, [r3, #0]
 800872c:	f403 7380 	and.w	r3, r3, #256	@ 0x100
 8008730:	f5b3 7f80 	cmp.w	r3, #256	@ 0x100
 8008734:	d106      	bne.n	8008744 <HAL_RCCEx_GetPeriphCLKFreq+0x248>
 8008736:	6b7b      	ldr	r3, [r7, #52]	@ 0x34
 8008738:	f1b3 5f80 	cmp.w	r3, #268435456	@ 0x10000000
 800873c:	d102      	bne.n	8008744 <HAL_RCCEx_GetPeriphCLKFreq+0x248>
 800873e:	4b0f      	ldr	r3, [pc, #60]	@ (800877c <HAL_RCCEx_GetPeriphCLKFreq+0x280>)
 8008740:	63fb      	str	r3, [r7, #60]	@ 0x3c
 8008742:	e010      	b.n	8008766 <HAL_RCCEx_GetPeriphCLKFreq+0x26a>
 8008744:	4b0b      	ldr	r3, [pc, #44]	@ (8008774 <HAL_RCCEx_GetPeriphCLKFreq+0x278>)
 8008746:	681b      	ldr	r3, [r3, #0]
 8008748:	f403 3300 	and.w	r3, r3, #131072	@ 0x20000
 800874c:	f5b3 3f00 	cmp.w	r3, #131072	@ 0x20000
 8008750:	d106      	bne.n	8008760 <HAL_RCCEx_GetPeriphCLKFreq+0x264>
 8008752:	6b7b      	ldr	r3, [r7, #52]	@ 0x34
 8008754:	f1b3 5f00 	cmp.w	r3, #536870912	@ 0x20000000
 8008758:	d102      	bne.n	8008760 <HAL_RCCEx_GetPeriphCLKFreq+0x264>
 800875a:	4b09      	ldr	r3, [pc, #36]	@ (8008780 <HAL_RCCEx_GetPeriphCLKFreq+0x284>)
 800875c:	63fb      	str	r3, [r7, #60]	@ 0x3c
 800875e:	e002      	b.n	8008766 <HAL_RCCEx_GetPeriphCLKFreq+0x26a>
 8008760:	2300      	movs	r3, #0
 8008762:	63fb      	str	r3, [r7, #60]	@ 0x3c
 8008764:	e393      	b.n	8008e8e <HAL_RCCEx_GetPeriphCLKFreq+0x992>
 8008766:	e392      	b.n	8008e8e <HAL_RCCEx_GetPeriphCLKFreq+0x992>
 8008768:	4b06      	ldr	r3, [pc, #24]	@ (8008784 <HAL_RCCEx_GetPeriphCLKFreq+0x288>)
 800876a:	63fb      	str	r3, [r7, #60]	@ 0x3c
 800876c:	e38f      	b.n	8008e8e <HAL_RCCEx_GetPeriphCLKFreq+0x992>
 800876e:	2300      	movs	r3, #0
 8008770:	63fb      	str	r3, [r7, #60]	@ 0x3c
 8008772:	e38c      	b.n	8008e8e <HAL_RCCEx_GetPeriphCLKFreq+0x992>
 8008774:	58024400 	.word	0x58024400
 8008778:	03d09000 	.word	0x03d09000
 800877c:	003d0900 	.word	0x003d0900
 8008780:	007a1200 	.word	0x007a1200
 8008784:	00bb8000 	.word	0x00bb8000
 8008788:	e9d7 2300 	ldrd	r2, r3, [r7]
 800878c:	f5a2 6180 	sub.w	r1, r2, #1024	@ 0x400
 8008790:	430b      	orrs	r3, r1
 8008792:	f040 809c 	bne.w	80088ce <HAL_RCCEx_GetPeriphCLKFreq+0x3d2>
 8008796:	4b9e      	ldr	r3, [pc, #632]	@ (8008a10 <HAL_RCCEx_GetPeriphCLKFreq+0x514>)
 8008798:	6d1b      	ldr	r3, [r3, #80]	@ 0x50
 800879a:	f403 6360 	and.w	r3, r3, #3584	@ 0xe00
 800879e:	633b      	str	r3, [r7, #48]	@ 0x30
 80087a0:	6b3b      	ldr	r3, [r7, #48]	@ 0x30
 80087a2:	f5b3 6f00 	cmp.w	r3, #2048	@ 0x800
 80087a6:	d054      	beq.n	8008852 <HAL_RCCEx_GetPeriphCLKFreq+0x356>
 80087a8:	6b3b      	ldr	r3, [r7, #48]	@ 0x30
 80087aa:	f5b3 6f00 	cmp.w	r3, #2048	@ 0x800
 80087ae:	f200 808b 	bhi.w	80088c8 <HAL_RCCEx_GetPeriphCLKFreq+0x3cc>
 80087b2:	6b3b      	ldr	r3, [r7, #48]	@ 0x30
 80087b4:	f5b3 6fc0 	cmp.w	r3, #1536	@ 0x600
 80087b8:	f000 8083 	beq.w	80088c2 <HAL_RCCEx_GetPeriphCLKFreq+0x3c6>
 80087bc:	6b3b      	ldr	r3, [r7, #48]	@ 0x30
 80087be:	f5b3 6fc0 	cmp.w	r3, #1536	@ 0x600
 80087c2:	f200 8081 	bhi.w	80088c8 <HAL_RCCEx_GetPeriphCLKFreq+0x3cc>
 80087c6:	6b3b      	ldr	r3, [r7, #48]	@ 0x30
 80087c8:	f5b3 6f80 	cmp.w	r3, #1024	@ 0x400
 80087cc:	d02f      	beq.n	800882e <HAL_RCCEx_GetPeriphCLKFreq+0x332>
 80087ce:	6b3b      	ldr	r3, [r7, #48]	@ 0x30
 80087d0:	f5b3 6f80 	cmp.w	r3, #1024	@ 0x400
 80087d4:	d878      	bhi.n	80088c8 <HAL_RCCEx_GetPeriphCLKFreq+0x3cc>
 80087d6:	6b3b      	ldr	r3, [r7, #48]	@ 0x30
 80087d8:	2b00      	cmp	r3, #0
 80087da:	d004      	beq.n	80087e6 <HAL_RCCEx_GetPeriphCLKFreq+0x2ea>
 80087dc:	6b3b      	ldr	r3, [r7, #48]	@ 0x30
 80087de:	f5b3 7f00 	cmp.w	r3, #512	@ 0x200
 80087e2:	d012      	beq.n	800880a <HAL_RCCEx_GetPeriphCLKFreq+0x30e>
 80087e4:	e070      	b.n	80088c8 <HAL_RCCEx_GetPeriphCLKFreq+0x3cc>
 80087e6:	4b8a      	ldr	r3, [pc, #552]	@ (8008a10 <HAL_RCCEx_GetPeriphCLKFreq+0x514>)
 80087e8:	681b      	ldr	r3, [r3, #0]
 80087ea:	f003 7300 	and.w	r3, r3, #33554432	@ 0x2000000
 80087ee:	f1b3 7f00 	cmp.w	r3, #33554432	@ 0x2000000
 80087f2:	d107      	bne.n	8008804 <HAL_RCCEx_GetPeriphCLKFreq+0x308>
 80087f4:	f107 0324 	add.w	r3, r7, #36	@ 0x24
 80087f8:	4618      	mov	r0, r3
 80087fa:	f000 fe15 	bl	8009428 <HAL_RCCEx_GetPLL1ClockFreq>
 80087fe:	6abb      	ldr	r3, [r7, #40]	@ 0x28
 8008800:	63fb      	str	r3, [r7, #60]	@ 0x3c
 8008802:	e344      	b.n	8008e8e <HAL_RCCEx_GetPeriphCLKFreq+0x992>
 8008804:	2300      	movs	r3, #0
 8008806:	63fb      	str	r3, [r7, #60]	@ 0x3c
 8008808:	e341      	b.n	8008e8e <HAL_RCCEx_GetPeriphCLKFreq+0x992>
 800880a:	4b81      	ldr	r3, [pc, #516]	@ (8008a10 <HAL_RCCEx_GetPeriphCLKFreq+0x514>)
 800880c:	681b      	ldr	r3, [r3, #0]
 800880e:	f003 6300 	and.w	r3, r3, #134217728	@ 0x8000000
 8008812:	f1b3 6f00 	cmp.w	r3, #134217728	@ 0x8000000
 8008816:	d107      	bne.n	8008828 <HAL_RCCEx_GetPeriphCLKFreq+0x32c>
 8008818:	f107 0318 	add.w	r3, r7, #24
 800881c:	4618      	mov	r0, r3
 800881e:	f000 fb5b 	bl	8008ed8 <HAL_RCCEx_GetPLL2ClockFreq>
 8008822:	69bb      	ldr	r3, [r7, #24]
 8008824:	63fb      	str	r3, [r7, #60]	@ 0x3c
 8008826:	e332      	b.n	8008e8e <HAL_RCCEx_GetPeriphCLKFreq+0x992>
 8008828:	2300      	movs	r3, #0
 800882a:	63fb      	str	r3, [r7, #60]	@ 0x3c
 800882c:	e32f      	b.n	8008e8e <HAL_RCCEx_GetPeriphCLKFreq+0x992>
 800882e:	4b78      	ldr	r3, [pc, #480]	@ (8008a10 <HAL_RCCEx_GetPeriphCLKFreq+0x514>)
 8008830:	681b      	ldr	r3, [r3, #0]
 8008832:	f003 5300 	and.w	r3, r3, #536870912	@ 0x20000000
 8008836:	f1b3 5f00 	cmp.w	r3, #536870912	@ 0x20000000
 800883a:	d107      	bne.n	800884c <HAL_RCCEx_GetPeriphCLKFreq+0x350>
 800883c:	f107 030c 	add.w	r3, r7, #12
 8008840:	4618      	mov	r0, r3
 8008842:	f000 fc9d 	bl	8009180 <HAL_RCCEx_GetPLL3ClockFreq>
 8008846:	68fb      	ldr	r3, [r7, #12]
 8008848:	63fb      	str	r3, [r7, #60]	@ 0x3c
 800884a:	e320      	b.n	8008e8e <HAL_RCCEx_GetPeriphCLKFreq+0x992>
 800884c:	2300      	movs	r3, #0
 800884e:	63fb      	str	r3, [r7, #60]	@ 0x3c
 8008850:	e31d      	b.n	8008e8e <HAL_RCCEx_GetPeriphCLKFreq+0x992>
 8008852:	4b6f      	ldr	r3, [pc, #444]	@ (8008a10 <HAL_RCCEx_GetPeriphCLKFreq+0x514>)
 8008854:	6cdb      	ldr	r3, [r3, #76]	@ 0x4c
 8008856:	f003 5340 	and.w	r3, r3, #805306368	@ 0x30000000
 800885a:	637b      	str	r3, [r7, #52]	@ 0x34
 800885c:	4b6c      	ldr	r3, [pc, #432]	@ (8008a10 <HAL_RCCEx_GetPeriphCLKFreq+0x514>)
 800885e:	681b      	ldr	r3, [r3, #0]
 8008860:	f003 0304 	and.w	r3, r3, #4
 8008864:	2b04      	cmp	r3, #4
 8008866:	d10c      	bne.n	8008882 <HAL_RCCEx_GetPeriphCLKFreq+0x386>
 8008868:	6b7b      	ldr	r3, [r7, #52]	@ 0x34
 800886a:	2b00      	cmp	r3, #0
 800886c:	d109      	bne.n	8008882 <HAL_RCCEx_GetPeriphCLKFreq+0x386>
 800886e:	4b68      	ldr	r3, [pc, #416]	@ (8008a10 <HAL_RCCEx_GetPeriphCLKFreq+0x514>)
 8008870:	681b      	ldr	r3, [r3, #0]
 8008872:	08db      	lsrs	r3, r3, #3
 8008874:	f003 0303 	and.w	r3, r3, #3
 8008878:	4a66      	ldr	r2, [pc, #408]	@ (8008a14 <HAL_RCCEx_GetPeriphCLKFreq+0x518>)
 800887a:	fa22 f303 	lsr.w	r3, r2, r3
 800887e:	63fb      	str	r3, [r7, #60]	@ 0x3c
 8008880:	e01e      	b.n	80088c0 <HAL_RCCEx_GetPeriphCLKFreq+0x3c4>
 8008882:	4b63      	ldr	r3, [pc, #396]	@ (8008a10 <HAL_RCCEx_GetPeriphCLKFreq+0x514>)
 8008884:	681b      	ldr	r3, [r3, #0]
 8008886:	f403 7380 	and.w	r3, r3, #256	@ 0x100
 800888a:	f5b3 7f80 	cmp.w	r3, #256	@ 0x100
 800888e:	d106      	bne.n	800889e <HAL_RCCEx_GetPeriphCLKFreq+0x3a2>
 8008890:	6b7b      	ldr	r3, [r7, #52]	@ 0x34
 8008892:	f1b3 5f80 	cmp.w	r3, #268435456	@ 0x10000000
 8008896:	d102      	bne.n	800889e <HAL_RCCEx_GetPeriphCLKFreq+0x3a2>
 8008898:	4b5f      	ldr	r3, [pc, #380]	@ (8008a18 <HAL_RCCEx_GetPeriphCLKFreq+0x51c>)
 800889a:	63fb      	str	r3, [r7, #60]	@ 0x3c
 800889c:	e010      	b.n	80088c0 <HAL_RCCEx_GetPeriphCLKFreq+0x3c4>
 800889e:	4b5c      	ldr	r3, [pc, #368]	@ (8008a10 <HAL_RCCEx_GetPeriphCLKFreq+0x514>)
 80088a0:	681b      	ldr	r3, [r3, #0]
 80088a2:	f403 3300 	and.w	r3, r3, #131072	@ 0x20000
 80088a6:	f5b3 3f00 	cmp.w	r3, #131072	@ 0x20000
 80088aa:	d106      	bne.n	80088ba <HAL_RCCEx_GetPeriphCLKFreq+0x3be>
 80088ac:	6b7b      	ldr	r3, [r7, #52]	@ 0x34
 80088ae:	f1b3 5f00 	cmp.w	r3, #536870912	@ 0x20000000
 80088b2:	d102      	bne.n	80088ba <HAL_RCCEx_GetPeriphCLKFreq+0x3be>
 80088b4:	4b59      	ldr	r3, [pc, #356]	@ (8008a1c <HAL_RCCEx_GetPeriphCLKFreq+0x520>)
 80088b6:	63fb      	str	r3, [r7, #60]	@ 0x3c
 80088b8:	e002      	b.n	80088c0 <HAL_RCCEx_GetPeriphCLKFreq+0x3c4>
 80088ba:	2300      	movs	r3, #0
 80088bc:	63fb      	str	r3, [r7, #60]	@ 0x3c
 80088be:	e2e6      	b.n	8008e8e <HAL_RCCEx_GetPeriphCLKFreq+0x992>
 80088c0:	e2e5      	b.n	8008e8e <HAL_RCCEx_GetPeriphCLKFreq+0x992>
 80088c2:	4b57      	ldr	r3, [pc, #348]	@ (8008a20 <HAL_RCCEx_GetPeriphCLKFreq+0x524>)
 80088c4:	63fb      	str	r3, [r7, #60]	@ 0x3c
 80088c6:	e2e2      	b.n	8008e8e <HAL_RCCEx_GetPeriphCLKFreq+0x992>
 80088c8:	2300      	movs	r3, #0
 80088ca:	63fb      	str	r3, [r7, #60]	@ 0x3c
 80088cc:	e2df      	b.n	8008e8e <HAL_RCCEx_GetPeriphCLKFreq+0x992>
 80088ce:	e9d7 2300 	ldrd	r2, r3, [r7]
 80088d2:	f5a2 5180 	sub.w	r1, r2, #4096	@ 0x1000
 80088d6:	430b      	orrs	r3, r1
 80088d8:	f040 80a7 	bne.w	8008a2a <HAL_RCCEx_GetPeriphCLKFreq+0x52e>
 80088dc:	4b4c      	ldr	r3, [pc, #304]	@ (8008a10 <HAL_RCCEx_GetPeriphCLKFreq+0x514>)
 80088de:	6d1b      	ldr	r3, [r3, #80]	@ 0x50
 80088e0:	f403 43e0 	and.w	r3, r3, #28672	@ 0x7000
 80088e4:	63bb      	str	r3, [r7, #56]	@ 0x38
 80088e6:	6bbb      	ldr	r3, [r7, #56]	@ 0x38
 80088e8:	f5b3 4f80 	cmp.w	r3, #16384	@ 0x4000
 80088ec:	d055      	beq.n	800899a <HAL_RCCEx_GetPeriphCLKFreq+0x49e>
 80088ee:	6bbb      	ldr	r3, [r7, #56]	@ 0x38
 80088f0:	f5b3 4f80 	cmp.w	r3, #16384	@ 0x4000
 80088f4:	f200 8096 	bhi.w	8008a24 <HAL_RCCEx_GetPeriphCLKFreq+0x528>
 80088f8:	6bbb      	ldr	r3, [r7, #56]	@ 0x38
 80088fa:	f5b3 5f40 	cmp.w	r3, #12288	@ 0x3000
 80088fe:	f000 8084 	beq.w	8008a0a <HAL_RCCEx_GetPeriphCLKFreq+0x50e>
 8008902:	6bbb      	ldr	r3, [r7, #56]	@ 0x38
 8008904:	f5b3 5f40 	cmp.w	r3, #12288	@ 0x3000
 8008908:	f200 808c 	bhi.w	8008a24 <HAL_RCCEx_GetPeriphCLKFreq+0x528>
 800890c:	6bbb      	ldr	r3, [r7, #56]	@ 0x38
 800890e:	f5b3 5f00 	cmp.w	r3, #8192	@ 0x2000
 8008912:	d030      	beq.n	8008976 <HAL_RCCEx_GetPeriphCLKFreq+0x47a>
 8008914:	6bbb      	ldr	r3, [r7, #56]	@ 0x38
 8008916:	f5b3 5f00 	cmp.w	r3, #8192	@ 0x2000
 800891a:	f200 8083 	bhi.w	8008a24 <HAL_RCCEx_GetPeriphCLKFreq+0x528>
 800891e:	6bbb      	ldr	r3, [r7, #56]	@ 0x38
 8008920:	2b00      	cmp	r3, #0
 8008922:	d004      	beq.n	800892e <HAL_RCCEx_GetPeriphCLKFreq+0x432>
 8008924:	6bbb      	ldr	r3, [r7, #56]	@ 0x38
 8008926:	f5b3 5f80 	cmp.w	r3, #4096	@ 0x1000
 800892a:	d012      	beq.n	8008952 <HAL_RCCEx_GetPeriphCLKFreq+0x456>
 800892c:	e07a      	b.n	8008a24 <HAL_RCCEx_GetPeriphCLKFreq+0x528>
 800892e:	4b38      	ldr	r3, [pc, #224]	@ (8008a10 <HAL_RCCEx_GetPeriphCLKFreq+0x514>)
 8008930:	681b      	ldr	r3, [r3, #0]
 8008932:	f003 7300 	and.w	r3, r3, #33554432	@ 0x2000000
 8008936:	f1b3 7f00 	cmp.w	r3, #33554432	@ 0x2000000
 800893a:	d107      	bne.n	800894c <HAL_RCCEx_GetPeriphCLKFreq+0x450>
 800893c:	f107 0324 	add.w	r3, r7, #36	@ 0x24
 8008940:	4618      	mov	r0, r3
 8008942:	f000 fd71 	bl	8009428 <HAL_RCCEx_GetPLL1ClockFreq>
 8008946:	6abb      	ldr	r3, [r7, #40]	@ 0x28
 8008948:	63fb      	str	r3, [r7, #60]	@ 0x3c
 800894a:	e2a0      	b.n	8008e8e <HAL_RCCEx_GetPeriphCLKFreq+0x992>
 800894c:	2300      	movs	r3, #0
 800894e:	63fb      	str	r3, [r7, #60]	@ 0x3c
 8008950:	e29d      	b.n	8008e8e <HAL_RCCEx_GetPeriphCLKFreq+0x992>
 8008952:	4b2f      	ldr	r3, [pc, #188]	@ (8008a10 <HAL_RCCEx_GetPeriphCLKFreq+0x514>)
 8008954:	681b      	ldr	r3, [r3, #0]
 8008956:	f003 6300 	and.w	r3, r3, #134217728	@ 0x8000000
 800895a:	f1b3 6f00 	cmp.w	r3, #134217728	@ 0x8000000
 800895e:	d107      	bne.n	8008970 <HAL_RCCEx_GetPeriphCLKFreq+0x474>
 8008960:	f107 0318 	add.w	r3, r7, #24
 8008964:	4618      	mov	r0, r3
 8008966:	f000 fab7 	bl	8008ed8 <HAL_RCCEx_GetPLL2ClockFreq>
 800896a:	69bb      	ldr	r3, [r7, #24]
 800896c:	63fb      	str	r3, [r7, #60]	@ 0x3c
 800896e:	e28e      	b.n	8008e8e <HAL_RCCEx_GetPeriphCLKFreq+0x992>
 8008970:	2300      	movs	r3, #0
 8008972:	63fb      	str	r3, [r7, #60]	@ 0x3c
 8008974:	e28b      	b.n	8008e8e <HAL_RCCEx_GetPeriphCLKFreq+0x992>
 8008976:	4b26      	ldr	r3, [pc, #152]	@ (8008a10 <HAL_RCCEx_GetPeriphCLKFreq+0x514>)
 8008978:	681b      	ldr	r3, [r3, #0]
 800897a:	f003 5300 	and.w	r3, r3, #536870912	@ 0x20000000
 800897e:	f1b3 5f00 	cmp.w	r3, #536870912	@ 0x20000000
 8008982:	d107      	bne.n	8008994 <HAL_RCCEx_GetPeriphCLKFreq+0x498>
 8008984:	f107 030c 	add.w	r3, r7, #12
 8008988:	4618      	mov	r0, r3
 800898a:	f000 fbf9 	bl	8009180 <HAL_RCCEx_GetPLL3ClockFreq>
 800898e:	68fb      	ldr	r3, [r7, #12]
 8008990:	63fb      	str	r3, [r7, #60]	@ 0x3c
 8008992:	e27c      	b.n	8008e8e <HAL_RCCEx_GetPeriphCLKFreq+0x992>
 8008994:	2300      	movs	r3, #0
 8008996:	63fb      	str	r3, [r7, #60]	@ 0x3c
 8008998:	e279      	b.n	8008e8e <HAL_RCCEx_GetPeriphCLKFreq+0x992>
 800899a:	4b1d      	ldr	r3, [pc, #116]	@ (8008a10 <HAL_RCCEx_GetPeriphCLKFreq+0x514>)
 800899c:	6cdb      	ldr	r3, [r3, #76]	@ 0x4c
 800899e:	f003 5340 	and.w	r3, r3, #805306368	@ 0x30000000
 80089a2:	637b      	str	r3, [r7, #52]	@ 0x34
 80089a4:	4b1a      	ldr	r3, [pc, #104]	@ (8008a10 <HAL_RCCEx_GetPeriphCLKFreq+0x514>)
 80089a6:	681b      	ldr	r3, [r3, #0]
 80089a8:	f003 0304 	and.w	r3, r3, #4
 80089ac:	2b04      	cmp	r3, #4
 80089ae:	d10c      	bne.n	80089ca <HAL_RCCEx_GetPeriphCLKFreq+0x4ce>
 80089b0:	6b7b      	ldr	r3, [r7, #52]	@ 0x34
 80089b2:	2b00      	cmp	r3, #0
 80089b4:	d109      	bne.n	80089ca <HAL_RCCEx_GetPeriphCLKFreq+0x4ce>
 80089b6:	4b16      	ldr	r3, [pc, #88]	@ (8008a10 <HAL_RCCEx_GetPeriphCLKFreq+0x514>)
 80089b8:	681b      	ldr	r3, [r3, #0]
 80089ba:	08db      	lsrs	r3, r3, #3
 80089bc:	f003 0303 	and.w	r3, r3, #3
 80089c0:	4a14      	ldr	r2, [pc, #80]	@ (8008a14 <HAL_RCCEx_GetPeriphCLKFreq+0x518>)
 80089c2:	fa22 f303 	lsr.w	r3, r2, r3
 80089c6:	63fb      	str	r3, [r7, #60]	@ 0x3c
 80089c8:	e01e      	b.n	8008a08 <HAL_RCCEx_GetPeriphCLKFreq+0x50c>
 80089ca:	4b11      	ldr	r3, [pc, #68]	@ (8008a10 <HAL_RCCEx_GetPeriphCLKFreq+0x514>)
 80089cc:	681b      	ldr	r3, [r3, #0]
 80089ce:	f403 7380 	and.w	r3, r3, #256	@ 0x100
 80089d2:	f5b3 7f80 	cmp.w	r3, #256	@ 0x100
 80089d6:	d106      	bne.n	80089e6 <HAL_RCCEx_GetPeriphCLKFreq+0x4ea>
 80089d8:	6b7b      	ldr	r3, [r7, #52]	@ 0x34
 80089da:	f1b3 5f80 	cmp.w	r3, #268435456	@ 0x10000000
 80089de:	d102      	bne.n	80089e6 <HAL_RCCEx_GetPeriphCLKFreq+0x4ea>
 80089e0:	4b0d      	ldr	r3, [pc, #52]	@ (8008a18 <HAL_RCCEx_GetPeriphCLKFreq+0x51c>)
 80089e2:	63fb      	str	r3, [r7, #60]	@ 0x3c
 80089e4:	e010      	b.n	8008a08 <HAL_RCCEx_GetPeriphCLKFreq+0x50c>
 80089e6:	4b0a      	ldr	r3, [pc, #40]	@ (8008a10 <HAL_RCCEx_GetPeriphCLKFreq+0x514>)
 80089e8:	681b      	ldr	r3, [r3, #0]
 80089ea:	f403 3300 	and.w	r3, r3, #131072	@ 0x20000
 80089ee:	f5b3 3f00 	cmp.w	r3, #131072	@ 0x20000
 80089f2:	d106      	bne.n	8008a02 <HAL_RCCEx_GetPeriphCLKFreq+0x506>
 80089f4:	6b7b      	ldr	r3, [r7, #52]	@ 0x34
 80089f6:	f1b3 5f00 	cmp.w	r3, #536870912	@ 0x20000000
 80089fa:	d102      	bne.n	8008a02 <HAL_RCCEx_GetPeriphCLKFreq+0x506>
 80089fc:	4b07      	ldr	r3, [pc, #28]	@ (8008a1c <HAL_RCCEx_GetPeriphCLKFreq+0x520>)
 80089fe:	63fb      	str	r3, [r7, #60]	@ 0x3c
 8008a00:	e002      	b.n	8008a08 <HAL_RCCEx_GetPeriphCLKFreq+0x50c>
 8008a02:	2300      	movs	r3, #0
 8008a04:	63fb      	str	r3, [r7, #60]	@ 0x3c
 8008a06:	e242      	b.n	8008e8e <HAL_RCCEx_GetPeriphCLKFreq+0x992>
 8008a08:	e241      	b.n	8008e8e <HAL_RCCEx_GetPeriphCLKFreq+0x992>
 8008a0a:	4b05      	ldr	r3, [pc, #20]	@ (8008a20 <HAL_RCCEx_GetPeriphCLKFreq+0x524>)
 8008a0c:	63fb      	str	r3, [r7, #60]	@ 0x3c
 8008a0e:	e23e      	b.n	8008e8e <HAL_RCCEx_GetPeriphCLKFreq+0x992>
 8008a10:	58024400 	.word	0x58024400
 8008a14:	03d09000 	.word	0x03d09000
 8008a18:	003d0900 	.word	0x003d0900
 8008a1c:	007a1200 	.word	0x007a1200
 8008a20:	00bb8000 	.word	0x00bb8000
 8008a24:	2300      	movs	r3, #0
 8008a26:	63fb      	str	r3, [r7, #60]	@ 0x3c
 8008a28:	e231      	b.n	8008e8e <HAL_RCCEx_GetPeriphCLKFreq+0x992>
 8008a2a:	e9d7 2300 	ldrd	r2, r3, [r7]
 8008a2e:	f5a2 5100 	sub.w	r1, r2, #8192	@ 0x2000
 8008a32:	430b      	orrs	r3, r1
 8008a34:	f040 8085 	bne.w	8008b42 <HAL_RCCEx_GetPeriphCLKFreq+0x646>
 8008a38:	4b9c      	ldr	r3, [pc, #624]	@ (8008cac <HAL_RCCEx_GetPeriphCLKFreq+0x7b0>)
 8008a3a:	6d1b      	ldr	r3, [r3, #80]	@ 0x50
 8008a3c:	f403 23e0 	and.w	r3, r3, #458752	@ 0x70000
 8008a40:	63bb      	str	r3, [r7, #56]	@ 0x38
 8008a42:	6bbb      	ldr	r3, [r7, #56]	@ 0x38
 8008a44:	f5b3 2fa0 	cmp.w	r3, #327680	@ 0x50000
 8008a48:	d06b      	beq.n	8008b22 <HAL_RCCEx_GetPeriphCLKFreq+0x626>
 8008a4a:	6bbb      	ldr	r3, [r7, #56]	@ 0x38
 8008a4c:	f5b3 2fa0 	cmp.w	r3, #327680	@ 0x50000
 8008a50:	d874      	bhi.n	8008b3c <HAL_RCCEx_GetPeriphCLKFreq+0x640>
 8008a52:	6bbb      	ldr	r3, [r7, #56]	@ 0x38
 8008a54:	f5b3 2f80 	cmp.w	r3, #262144	@ 0x40000
 8008a58:	d056      	beq.n	8008b08 <HAL_RCCEx_GetPeriphCLKFreq+0x60c>
 8008a5a:	6bbb      	ldr	r3, [r7, #56]	@ 0x38
 8008a5c:	f5b3 2f80 	cmp.w	r3, #262144	@ 0x40000
 8008a60:	d86c      	bhi.n	8008b3c <HAL_RCCEx_GetPeriphCLKFreq+0x640>
 8008a62:	6bbb      	ldr	r3, [r7, #56]	@ 0x38
 8008a64:	f5b3 3f40 	cmp.w	r3, #196608	@ 0x30000
 8008a68:	d03b      	beq.n	8008ae2 <HAL_RCCEx_GetPeriphCLKFreq+0x5e6>
 8008a6a:	6bbb      	ldr	r3, [r7, #56]	@ 0x38
 8008a6c:	f5b3 3f40 	cmp.w	r3, #196608	@ 0x30000
 8008a70:	d864      	bhi.n	8008b3c <HAL_RCCEx_GetPeriphCLKFreq+0x640>
 8008a72:	6bbb      	ldr	r3, [r7, #56]	@ 0x38
 8008a74:	f5b3 3f00 	cmp.w	r3, #131072	@ 0x20000
 8008a78:	d021      	beq.n	8008abe <HAL_RCCEx_GetPeriphCLKFreq+0x5c2>
 8008a7a:	6bbb      	ldr	r3, [r7, #56]	@ 0x38
 8008a7c:	f5b3 3f00 	cmp.w	r3, #131072	@ 0x20000
 8008a80:	d85c      	bhi.n	8008b3c <HAL_RCCEx_GetPeriphCLKFreq+0x640>
 8008a82:	6bbb      	ldr	r3, [r7, #56]	@ 0x38
 8008a84:	2b00      	cmp	r3, #0
 8008a86:	d004      	beq.n	8008a92 <HAL_RCCEx_GetPeriphCLKFreq+0x596>
 8008a88:	6bbb      	ldr	r3, [r7, #56]	@ 0x38
 8008a8a:	f5b3 3f80 	cmp.w	r3, #65536	@ 0x10000
 8008a8e:	d004      	beq.n	8008a9a <HAL_RCCEx_GetPeriphCLKFreq+0x59e>
 8008a90:	e054      	b.n	8008b3c <HAL_RCCEx_GetPeriphCLKFreq+0x640>
 8008a92:	f7fe fb49 	bl	8007128 <HAL_RCC_GetPCLK1Freq>
 8008a96:	63f8      	str	r0, [r7, #60]	@ 0x3c
 8008a98:	e1f9      	b.n	8008e8e <HAL_RCCEx_GetPeriphCLKFreq+0x992>
 8008a9a:	4b84      	ldr	r3, [pc, #528]	@ (8008cac <HAL_RCCEx_GetPeriphCLKFreq+0x7b0>)
 8008a9c:	681b      	ldr	r3, [r3, #0]
 8008a9e:	f003 6300 	and.w	r3, r3, #134217728	@ 0x8000000
 8008aa2:	f1b3 6f00 	cmp.w	r3, #134217728	@ 0x8000000
 8008aa6:	d107      	bne.n	8008ab8 <HAL_RCCEx_GetPeriphCLKFreq+0x5bc>
 8008aa8:	f107 0318 	add.w	r3, r7, #24
 8008aac:	4618      	mov	r0, r3
 8008aae:	f000 fa13 	bl	8008ed8 <HAL_RCCEx_GetPLL2ClockFreq>
 8008ab2:	69fb      	ldr	r3, [r7, #28]
 8008ab4:	63fb      	str	r3, [r7, #60]	@ 0x3c
 8008ab6:	e1ea      	b.n	8008e8e <HAL_RCCEx_GetPeriphCLKFreq+0x992>
 8008ab8:	2300      	movs	r3, #0
 8008aba:	63fb      	str	r3, [r7, #60]	@ 0x3c
 8008abc:	e1e7      	b.n	8008e8e <HAL_RCCEx_GetPeriphCLKFreq+0x992>
 8008abe:	4b7b      	ldr	r3, [pc, #492]	@ (8008cac <HAL_RCCEx_GetPeriphCLKFreq+0x7b0>)
 8008ac0:	681b      	ldr	r3, [r3, #0]
 8008ac2:	f003 5300 	and.w	r3, r3, #536870912	@ 0x20000000
 8008ac6:	f1b3 5f00 	cmp.w	r3, #536870912	@ 0x20000000
 8008aca:	d107      	bne.n	8008adc <HAL_RCCEx_GetPeriphCLKFreq+0x5e0>
 8008acc:	f107 030c 	add.w	r3, r7, #12
 8008ad0:	4618      	mov	r0, r3
 8008ad2:	f000 fb55 	bl	8009180 <HAL_RCCEx_GetPLL3ClockFreq>
 8008ad6:	693b      	ldr	r3, [r7, #16]
 8008ad8:	63fb      	str	r3, [r7, #60]	@ 0x3c
 8008ada:	e1d8      	b.n	8008e8e <HAL_RCCEx_GetPeriphCLKFreq+0x992>
 8008adc:	2300      	movs	r3, #0
 8008ade:	63fb      	str	r3, [r7, #60]	@ 0x3c
 8008ae0:	e1d5      	b.n	8008e8e <HAL_RCCEx_GetPeriphCLKFreq+0x992>
 8008ae2:	4b72      	ldr	r3, [pc, #456]	@ (8008cac <HAL_RCCEx_GetPeriphCLKFreq+0x7b0>)
 8008ae4:	681b      	ldr	r3, [r3, #0]
 8008ae6:	f003 0304 	and.w	r3, r3, #4
 8008aea:	2b04      	cmp	r3, #4
 8008aec:	d109      	bne.n	8008b02 <HAL_RCCEx_GetPeriphCLKFreq+0x606>
 8008aee:	4b6f      	ldr	r3, [pc, #444]	@ (8008cac <HAL_RCCEx_GetPeriphCLKFreq+0x7b0>)
 8008af0:	681b      	ldr	r3, [r3, #0]
 8008af2:	08db      	lsrs	r3, r3, #3
 8008af4:	f003 0303 	and.w	r3, r3, #3
 8008af8:	4a6d      	ldr	r2, [pc, #436]	@ (8008cb0 <HAL_RCCEx_GetPeriphCLKFreq+0x7b4>)
 8008afa:	fa22 f303 	lsr.w	r3, r2, r3
 8008afe:	63fb      	str	r3, [r7, #60]	@ 0x3c
 8008b00:	e1c5      	b.n	8008e8e <HAL_RCCEx_GetPeriphCLKFreq+0x992>
 8008b02:	2300      	movs	r3, #0
 8008b04:	63fb      	str	r3, [r7, #60]	@ 0x3c
 8008b06:	e1c2      	b.n	8008e8e <HAL_RCCEx_GetPeriphCLKFreq+0x992>
 8008b08:	4b68      	ldr	r3, [pc, #416]	@ (8008cac <HAL_RCCEx_GetPeriphCLKFreq+0x7b0>)
 8008b0a:	681b      	ldr	r3, [r3, #0]
 8008b0c:	f403 7380 	and.w	r3, r3, #256	@ 0x100
 8008b10:	f5b3 7f80 	cmp.w	r3, #256	@ 0x100
 8008b14:	d102      	bne.n	8008b1c <HAL_RCCEx_GetPeriphCLKFreq+0x620>
 8008b16:	4b67      	ldr	r3, [pc, #412]	@ (8008cb4 <HAL_RCCEx_GetPeriphCLKFreq+0x7b8>)
 8008b18:	63fb      	str	r3, [r7, #60]	@ 0x3c
 8008b1a:	e1b8      	b.n	8008e8e <HAL_RCCEx_GetPeriphCLKFreq+0x992>
 8008b1c:	2300      	movs	r3, #0
 8008b1e:	63fb      	str	r3, [r7, #60]	@ 0x3c
 8008b20:	e1b5      	b.n	8008e8e <HAL_RCCEx_GetPeriphCLKFreq+0x992>
 8008b22:	4b62      	ldr	r3, [pc, #392]	@ (8008cac <HAL_RCCEx_GetPeriphCLKFreq+0x7b0>)
 8008b24:	681b      	ldr	r3, [r3, #0]
 8008b26:	f403 3300 	and.w	r3, r3, #131072	@ 0x20000
 8008b2a:	f5b3 3f00 	cmp.w	r3, #131072	@ 0x20000
 8008b2e:	d102      	bne.n	8008b36 <HAL_RCCEx_GetPeriphCLKFreq+0x63a>
 8008b30:	4b61      	ldr	r3, [pc, #388]	@ (8008cb8 <HAL_RCCEx_GetPeriphCLKFreq+0x7bc>)
 8008b32:	63fb      	str	r3, [r7, #60]	@ 0x3c
 8008b34:	e1ab      	b.n	8008e8e <HAL_RCCEx_GetPeriphCLKFreq+0x992>
 8008b36:	2300      	movs	r3, #0
 8008b38:	63fb      	str	r3, [r7, #60]	@ 0x3c
 8008b3a:	e1a8      	b.n	8008e8e <HAL_RCCEx_GetPeriphCLKFreq+0x992>
 8008b3c:	2300      	movs	r3, #0
 8008b3e:	63fb      	str	r3, [r7, #60]	@ 0x3c
 8008b40:	e1a5      	b.n	8008e8e <HAL_RCCEx_GetPeriphCLKFreq+0x992>
 8008b42:	e9d7 2300 	ldrd	r2, r3, [r7]
 8008b46:	f5a2 2100 	sub.w	r1, r2, #524288	@ 0x80000
 8008b4a:	430b      	orrs	r3, r1
 8008b4c:	d173      	bne.n	8008c36 <HAL_RCCEx_GetPeriphCLKFreq+0x73a>
 8008b4e:	4b57      	ldr	r3, [pc, #348]	@ (8008cac <HAL_RCCEx_GetPeriphCLKFreq+0x7b0>)
 8008b50:	6d9b      	ldr	r3, [r3, #88]	@ 0x58
 8008b52:	f403 3340 	and.w	r3, r3, #196608	@ 0x30000
 8008b56:	63bb      	str	r3, [r7, #56]	@ 0x38
 8008b58:	6bbb      	ldr	r3, [r7, #56]	@ 0x38
 8008b5a:	f5b3 3f00 	cmp.w	r3, #131072	@ 0x20000
 8008b5e:	d02f      	beq.n	8008bc0 <HAL_RCCEx_GetPeriphCLKFreq+0x6c4>
 8008b60:	6bbb      	ldr	r3, [r7, #56]	@ 0x38
 8008b62:	f5b3 3f00 	cmp.w	r3, #131072	@ 0x20000
 8008b66:	d863      	bhi.n	8008c30 <HAL_RCCEx_GetPeriphCLKFreq+0x734>
 8008b68:	6bbb      	ldr	r3, [r7, #56]	@ 0x38
 8008b6a:	2b00      	cmp	r3, #0
 8008b6c:	d004      	beq.n	8008b78 <HAL_RCCEx_GetPeriphCLKFreq+0x67c>
 8008b6e:	6bbb      	ldr	r3, [r7, #56]	@ 0x38
 8008b70:	f5b3 3f80 	cmp.w	r3, #65536	@ 0x10000
 8008b74:	d012      	beq.n	8008b9c <HAL_RCCEx_GetPeriphCLKFreq+0x6a0>
 8008b76:	e05b      	b.n	8008c30 <HAL_RCCEx_GetPeriphCLKFreq+0x734>
 8008b78:	4b4c      	ldr	r3, [pc, #304]	@ (8008cac <HAL_RCCEx_GetPeriphCLKFreq+0x7b0>)
 8008b7a:	681b      	ldr	r3, [r3, #0]
 8008b7c:	f003 6300 	and.w	r3, r3, #134217728	@ 0x8000000
 8008b80:	f1b3 6f00 	cmp.w	r3, #134217728	@ 0x8000000
 8008b84:	d107      	bne.n	8008b96 <HAL_RCCEx_GetPeriphCLKFreq+0x69a>
 8008b86:	f107 0318 	add.w	r3, r7, #24
 8008b8a:	4618      	mov	r0, r3
 8008b8c:	f000 f9a4 	bl	8008ed8 <HAL_RCCEx_GetPLL2ClockFreq>
 8008b90:	69bb      	ldr	r3, [r7, #24]
 8008b92:	63fb      	str	r3, [r7, #60]	@ 0x3c
 8008b94:	e17b      	b.n	8008e8e <HAL_RCCEx_GetPeriphCLKFreq+0x992>
 8008b96:	2300      	movs	r3, #0
 8008b98:	63fb      	str	r3, [r7, #60]	@ 0x3c
 8008b9a:	e178      	b.n	8008e8e <HAL_RCCEx_GetPeriphCLKFreq+0x992>
 8008b9c:	4b43      	ldr	r3, [pc, #268]	@ (8008cac <HAL_RCCEx_GetPeriphCLKFreq+0x7b0>)
 8008b9e:	681b      	ldr	r3, [r3, #0]
 8008ba0:	f003 5300 	and.w	r3, r3, #536870912	@ 0x20000000
 8008ba4:	f1b3 5f00 	cmp.w	r3, #536870912	@ 0x20000000
 8008ba8:	d107      	bne.n	8008bba <HAL_RCCEx_GetPeriphCLKFreq+0x6be>
 8008baa:	f107 030c 	add.w	r3, r7, #12
 8008bae:	4618      	mov	r0, r3
 8008bb0:	f000 fae6 	bl	8009180 <HAL_RCCEx_GetPLL3ClockFreq>
 8008bb4:	697b      	ldr	r3, [r7, #20]
 8008bb6:	63fb      	str	r3, [r7, #60]	@ 0x3c
 8008bb8:	e169      	b.n	8008e8e <HAL_RCCEx_GetPeriphCLKFreq+0x992>
 8008bba:	2300      	movs	r3, #0
 8008bbc:	63fb      	str	r3, [r7, #60]	@ 0x3c
 8008bbe:	e166      	b.n	8008e8e <HAL_RCCEx_GetPeriphCLKFreq+0x992>
 8008bc0:	4b3a      	ldr	r3, [pc, #232]	@ (8008cac <HAL_RCCEx_GetPeriphCLKFreq+0x7b0>)
 8008bc2:	6cdb      	ldr	r3, [r3, #76]	@ 0x4c
 8008bc4:	f003 5340 	and.w	r3, r3, #805306368	@ 0x30000000
 8008bc8:	637b      	str	r3, [r7, #52]	@ 0x34
 8008bca:	4b38      	ldr	r3, [pc, #224]	@ (8008cac <HAL_RCCEx_GetPeriphCLKFreq+0x7b0>)
 8008bcc:	681b      	ldr	r3, [r3, #0]
 8008bce:	f003 0304 	and.w	r3, r3, #4
 8008bd2:	2b04      	cmp	r3, #4
 8008bd4:	d10c      	bne.n	8008bf0 <HAL_RCCEx_GetPeriphCLKFreq+0x6f4>
 8008bd6:	6b7b      	ldr	r3, [r7, #52]	@ 0x34
 8008bd8:	2b00      	cmp	r3, #0
 8008bda:	d109      	bne.n	8008bf0 <HAL_RCCEx_GetPeriphCLKFreq+0x6f4>
 8008bdc:	4b33      	ldr	r3, [pc, #204]	@ (8008cac <HAL_RCCEx_GetPeriphCLKFreq+0x7b0>)
 8008bde:	681b      	ldr	r3, [r3, #0]
 8008be0:	08db      	lsrs	r3, r3, #3
 8008be2:	f003 0303 	and.w	r3, r3, #3
 8008be6:	4a32      	ldr	r2, [pc, #200]	@ (8008cb0 <HAL_RCCEx_GetPeriphCLKFreq+0x7b4>)
 8008be8:	fa22 f303 	lsr.w	r3, r2, r3
 8008bec:	63fb      	str	r3, [r7, #60]	@ 0x3c
 8008bee:	e01e      	b.n	8008c2e <HAL_RCCEx_GetPeriphCLKFreq+0x732>
 8008bf0:	4b2e      	ldr	r3, [pc, #184]	@ (8008cac <HAL_RCCEx_GetPeriphCLKFreq+0x7b0>)
 8008bf2:	681b      	ldr	r3, [r3, #0]
 8008bf4:	f403 7380 	and.w	r3, r3, #256	@ 0x100
 8008bf8:	f5b3 7f80 	cmp.w	r3, #256	@ 0x100
 8008bfc:	d106      	bne.n	8008c0c <HAL_RCCEx_GetPeriphCLKFreq+0x710>
 8008bfe:	6b7b      	ldr	r3, [r7, #52]	@ 0x34
 8008c00:	f1b3 5f80 	cmp.w	r3, #268435456	@ 0x10000000
 8008c04:	d102      	bne.n	8008c0c <HAL_RCCEx_GetPeriphCLKFreq+0x710>
 8008c06:	4b2b      	ldr	r3, [pc, #172]	@ (8008cb4 <HAL_RCCEx_GetPeriphCLKFreq+0x7b8>)
 8008c08:	63fb      	str	r3, [r7, #60]	@ 0x3c
 8008c0a:	e010      	b.n	8008c2e <HAL_RCCEx_GetPeriphCLKFreq+0x732>
 8008c0c:	4b27      	ldr	r3, [pc, #156]	@ (8008cac <HAL_RCCEx_GetPeriphCLKFreq+0x7b0>)
 8008c0e:	681b      	ldr	r3, [r3, #0]
 8008c10:	f403 3300 	and.w	r3, r3, #131072	@ 0x20000
 8008c14:	f5b3 3f00 	cmp.w	r3, #131072	@ 0x20000
 8008c18:	d106      	bne.n	8008c28 <HAL_RCCEx_GetPeriphCLKFreq+0x72c>
 8008c1a:	6b7b      	ldr	r3, [r7, #52]	@ 0x34
 8008c1c:	f1b3 5f00 	cmp.w	r3, #536870912	@ 0x20000000
 8008c20:	d102      	bne.n	8008c28 <HAL_RCCEx_GetPeriphCLKFreq+0x72c>
 8008c22:	4b25      	ldr	r3, [pc, #148]	@ (8008cb8 <HAL_RCCEx_GetPeriphCLKFreq+0x7bc>)
 8008c24:	63fb      	str	r3, [r7, #60]	@ 0x3c
 8008c26:	e002      	b.n	8008c2e <HAL_RCCEx_GetPeriphCLKFreq+0x732>
 8008c28:	2300      	movs	r3, #0
 8008c2a:	63fb      	str	r3, [r7, #60]	@ 0x3c
 8008c2c:	e12f      	b.n	8008e8e <HAL_RCCEx_GetPeriphCLKFreq+0x992>
 8008c2e:	e12e      	b.n	8008e8e <HAL_RCCEx_GetPeriphCLKFreq+0x992>
 8008c30:	2300      	movs	r3, #0
 8008c32:	63fb      	str	r3, [r7, #60]	@ 0x3c
 8008c34:	e12b      	b.n	8008e8e <HAL_RCCEx_GetPeriphCLKFreq+0x992>
 8008c36:	e9d7 2300 	ldrd	r2, r3, [r7]
 8008c3a:	f5a2 3180 	sub.w	r1, r2, #65536	@ 0x10000
 8008c3e:	430b      	orrs	r3, r1
 8008c40:	d13c      	bne.n	8008cbc <HAL_RCCEx_GetPeriphCLKFreq+0x7c0>
 8008c42:	4b1a      	ldr	r3, [pc, #104]	@ (8008cac <HAL_RCCEx_GetPeriphCLKFreq+0x7b0>)
 8008c44:	6cdb      	ldr	r3, [r3, #76]	@ 0x4c
 8008c46:	f403 3380 	and.w	r3, r3, #65536	@ 0x10000
 8008c4a:	63bb      	str	r3, [r7, #56]	@ 0x38
 8008c4c:	6bbb      	ldr	r3, [r7, #56]	@ 0x38
 8008c4e:	2b00      	cmp	r3, #0
 8008c50:	d004      	beq.n	8008c5c <HAL_RCCEx_GetPeriphCLKFreq+0x760>
 8008c52:	6bbb      	ldr	r3, [r7, #56]	@ 0x38
 8008c54:	f5b3 3f80 	cmp.w	r3, #65536	@ 0x10000
 8008c58:	d012      	beq.n	8008c80 <HAL_RCCEx_GetPeriphCLKFreq+0x784>
 8008c5a:	e023      	b.n	8008ca4 <HAL_RCCEx_GetPeriphCLKFreq+0x7a8>
 8008c5c:	4b13      	ldr	r3, [pc, #76]	@ (8008cac <HAL_RCCEx_GetPeriphCLKFreq+0x7b0>)
 8008c5e:	681b      	ldr	r3, [r3, #0]
 8008c60:	f003 7300 	and.w	r3, r3, #33554432	@ 0x2000000
 8008c64:	f1b3 7f00 	cmp.w	r3, #33554432	@ 0x2000000
 8008c68:	d107      	bne.n	8008c7a <HAL_RCCEx_GetPeriphCLKFreq+0x77e>
 8008c6a:	f107 0324 	add.w	r3, r7, #36	@ 0x24
 8008c6e:	4618      	mov	r0, r3
 8008c70:	f000 fbda 	bl	8009428 <HAL_RCCEx_GetPLL1ClockFreq>
 8008c74:	6abb      	ldr	r3, [r7, #40]	@ 0x28
 8008c76:	63fb      	str	r3, [r7, #60]	@ 0x3c
 8008c78:	e109      	b.n	8008e8e <HAL_RCCEx_GetPeriphCLKFreq+0x992>
 8008c7a:	2300      	movs	r3, #0
 8008c7c:	63fb      	str	r3, [r7, #60]	@ 0x3c
 8008c7e:	e106      	b.n	8008e8e <HAL_RCCEx_GetPeriphCLKFreq+0x992>
 8008c80:	4b0a      	ldr	r3, [pc, #40]	@ (8008cac <HAL_RCCEx_GetPeriphCLKFreq+0x7b0>)
 8008c82:	681b      	ldr	r3, [r3, #0]
 8008c84:	f003 6300 	and.w	r3, r3, #134217728	@ 0x8000000
 8008c88:	f1b3 6f00 	cmp.w	r3, #134217728	@ 0x8000000
 8008c8c:	d107      	bne.n	8008c9e <HAL_RCCEx_GetPeriphCLKFreq+0x7a2>
 8008c8e:	f107 0318 	add.w	r3, r7, #24
 8008c92:	4618      	mov	r0, r3
 8008c94:	f000 f920 	bl	8008ed8 <HAL_RCCEx_GetPLL2ClockFreq>
 8008c98:	6a3b      	ldr	r3, [r7, #32]
 8008c9a:	63fb      	str	r3, [r7, #60]	@ 0x3c
 8008c9c:	e0f7      	b.n	8008e8e <HAL_RCCEx_GetPeriphCLKFreq+0x992>
 8008c9e:	2300      	movs	r3, #0
 8008ca0:	63fb      	str	r3, [r7, #60]	@ 0x3c
 8008ca2:	e0f4      	b.n	8008e8e <HAL_RCCEx_GetPeriphCLKFreq+0x992>
 8008ca4:	2300      	movs	r3, #0
 8008ca6:	63fb      	str	r3, [r7, #60]	@ 0x3c
 8008ca8:	e0f1      	b.n	8008e8e <HAL_RCCEx_GetPeriphCLKFreq+0x992>
 8008caa:	bf00      	nop
 8008cac:	58024400 	.word	0x58024400
 8008cb0:	03d09000 	.word	0x03d09000
 8008cb4:	003d0900 	.word	0x003d0900
 8008cb8:	007a1200 	.word	0x007a1200
 8008cbc:	e9d7 2300 	ldrd	r2, r3, [r7]
 8008cc0:	f5a2 4180 	sub.w	r1, r2, #16384	@ 0x4000
 8008cc4:	430b      	orrs	r3, r1
 8008cc6:	f040 8091 	bne.w	8008dec <HAL_RCCEx_GetPeriphCLKFreq+0x8f0>
 8008cca:	4b73      	ldr	r3, [pc, #460]	@ (8008e98 <HAL_RCCEx_GetPeriphCLKFreq+0x99c>)
 8008ccc:	6d9b      	ldr	r3, [r3, #88]	@ 0x58
 8008cce:	f003 43e0 	and.w	r3, r3, #1879048192	@ 0x70000000
 8008cd2:	63bb      	str	r3, [r7, #56]	@ 0x38
 8008cd4:	6bbb      	ldr	r3, [r7, #56]	@ 0x38
 8008cd6:	f1b3 4fc0 	cmp.w	r3, #1610612736	@ 0x60000000
 8008cda:	f000 8081 	beq.w	8008de0 <HAL_RCCEx_GetPeriphCLKFreq+0x8e4>
 8008cde:	6bbb      	ldr	r3, [r7, #56]	@ 0x38
 8008ce0:	f1b3 4fc0 	cmp.w	r3, #1610612736	@ 0x60000000
 8008ce4:	d87f      	bhi.n	8008de6 <HAL_RCCEx_GetPeriphCLKFreq+0x8ea>
 8008ce6:	6bbb      	ldr	r3, [r7, #56]	@ 0x38
 8008ce8:	f1b3 4fa0 	cmp.w	r3, #1342177280	@ 0x50000000
 8008cec:	d06b      	beq.n	8008dc6 <HAL_RCCEx_GetPeriphCLKFreq+0x8ca>
 8008cee:	6bbb      	ldr	r3, [r7, #56]	@ 0x38
 8008cf0:	f1b3 4fa0 	cmp.w	r3, #1342177280	@ 0x50000000
 8008cf4:	d877      	bhi.n	8008de6 <HAL_RCCEx_GetPeriphCLKFreq+0x8ea>
 8008cf6:	6bbb      	ldr	r3, [r7, #56]	@ 0x38
 8008cf8:	f1b3 4f80 	cmp.w	r3, #1073741824	@ 0x40000000
 8008cfc:	d056      	beq.n	8008dac <HAL_RCCEx_GetPeriphCLKFreq+0x8b0>
 8008cfe:	6bbb      	ldr	r3, [r7, #56]	@ 0x38
 8008d00:	f1b3 4f80 	cmp.w	r3, #1073741824	@ 0x40000000
 8008d04:	d86f      	bhi.n	8008de6 <HAL_RCCEx_GetPeriphCLKFreq+0x8ea>
 8008d06:	6bbb      	ldr	r3, [r7, #56]	@ 0x38
 8008d08:	f1b3 5f40 	cmp.w	r3, #805306368	@ 0x30000000
 8008d0c:	d03b      	beq.n	8008d86 <HAL_RCCEx_GetPeriphCLKFreq+0x88a>
 8008d0e:	6bbb      	ldr	r3, [r7, #56]	@ 0x38
 8008d10:	f1b3 5f40 	cmp.w	r3, #805306368	@ 0x30000000
 8008d14:	d867      	bhi.n	8008de6 <HAL_RCCEx_GetPeriphCLKFreq+0x8ea>
 8008d16:	6bbb      	ldr	r3, [r7, #56]	@ 0x38
 8008d18:	f1b3 5f00 	cmp.w	r3, #536870912	@ 0x20000000
 8008d1c:	d021      	beq.n	8008d62 <HAL_RCCEx_GetPeriphCLKFreq+0x866>
 8008d1e:	6bbb      	ldr	r3, [r7, #56]	@ 0x38
 8008d20:	f1b3 5f00 	cmp.w	r3, #536870912	@ 0x20000000
 8008d24:	d85f      	bhi.n	8008de6 <HAL_RCCEx_GetPeriphCLKFreq+0x8ea>
 8008d26:	6bbb      	ldr	r3, [r7, #56]	@ 0x38
 8008d28:	2b00      	cmp	r3, #0
 8008d2a:	d004      	beq.n	8008d36 <HAL_RCCEx_GetPeriphCLKFreq+0x83a>
 8008d2c:	6bbb      	ldr	r3, [r7, #56]	@ 0x38
 8008d2e:	f1b3 5f80 	cmp.w	r3, #268435456	@ 0x10000000
 8008d32:	d004      	beq.n	8008d3e <HAL_RCCEx_GetPeriphCLKFreq+0x842>
 8008d34:	e057      	b.n	8008de6 <HAL_RCCEx_GetPeriphCLKFreq+0x8ea>
 8008d36:	f000 f8b9 	bl	8008eac <HAL_RCCEx_GetD3PCLK1Freq>
 8008d3a:	63f8      	str	r0, [r7, #60]	@ 0x3c
 8008d3c:	e0a7      	b.n	8008e8e <HAL_RCCEx_GetPeriphCLKFreq+0x992>
 8008d3e:	4b56      	ldr	r3, [pc, #344]	@ (8008e98 <HAL_RCCEx_GetPeriphCLKFreq+0x99c>)
 8008d40:	681b      	ldr	r3, [r3, #0]
 8008d42:	f003 6300 	and.w	r3, r3, #134217728	@ 0x8000000
 8008d46:	f1b3 6f00 	cmp.w	r3, #134217728	@ 0x8000000
 8008d4a:	d107      	bne.n	8008d5c <HAL_RCCEx_GetPeriphCLKFreq+0x860>
 8008d4c:	f107 0318 	add.w	r3, r7, #24
 8008d50:	4618      	mov	r0, r3
 8008d52:	f000 f8c1 	bl	8008ed8 <HAL_RCCEx_GetPLL2ClockFreq>
 8008d56:	69fb      	ldr	r3, [r7, #28]
 8008d58:	63fb      	str	r3, [r7, #60]	@ 0x3c
 8008d5a:	e098      	b.n	8008e8e <HAL_RCCEx_GetPeriphCLKFreq+0x992>
 8008d5c:	2300      	movs	r3, #0
 8008d5e:	63fb      	str	r3, [r7, #60]	@ 0x3c
 8008d60:	e095      	b.n	8008e8e <HAL_RCCEx_GetPeriphCLKFreq+0x992>
 8008d62:	4b4d      	ldr	r3, [pc, #308]	@ (8008e98 <HAL_RCCEx_GetPeriphCLKFreq+0x99c>)
 8008d64:	681b      	ldr	r3, [r3, #0]
 8008d66:	f003 5300 	and.w	r3, r3, #536870912	@ 0x20000000
 8008d6a:	f1b3 5f00 	cmp.w	r3, #536870912	@ 0x20000000
 8008d6e:	d107      	bne.n	8008d80 <HAL_RCCEx_GetPeriphCLKFreq+0x884>
 8008d70:	f107 030c 	add.w	r3, r7, #12
 8008d74:	4618      	mov	r0, r3
 8008d76:	f000 fa03 	bl	8009180 <HAL_RCCEx_GetPLL3ClockFreq>
 8008d7a:	693b      	ldr	r3, [r7, #16]
 8008d7c:	63fb      	str	r3, [r7, #60]	@ 0x3c
 8008d7e:	e086      	b.n	8008e8e <HAL_RCCEx_GetPeriphCLKFreq+0x992>
 8008d80:	2300      	movs	r3, #0
 8008d82:	63fb      	str	r3, [r7, #60]	@ 0x3c
 8008d84:	e083      	b.n	8008e8e <HAL_RCCEx_GetPeriphCLKFreq+0x992>
 8008d86:	4b44      	ldr	r3, [pc, #272]	@ (8008e98 <HAL_RCCEx_GetPeriphCLKFreq+0x99c>)
 8008d88:	681b      	ldr	r3, [r3, #0]
 8008d8a:	f003 0304 	and.w	r3, r3, #4
 8008d8e:	2b04      	cmp	r3, #4
 8008d90:	d109      	bne.n	8008da6 <HAL_RCCEx_GetPeriphCLKFreq+0x8aa>
 8008d92:	4b41      	ldr	r3, [pc, #260]	@ (8008e98 <HAL_RCCEx_GetPeriphCLKFreq+0x99c>)
 8008d94:	681b      	ldr	r3, [r3, #0]
 8008d96:	08db      	lsrs	r3, r3, #3
 8008d98:	f003 0303 	and.w	r3, r3, #3
 8008d9c:	4a3f      	ldr	r2, [pc, #252]	@ (8008e9c <HAL_RCCEx_GetPeriphCLKFreq+0x9a0>)
 8008d9e:	fa22 f303 	lsr.w	r3, r2, r3
 8008da2:	63fb      	str	r3, [r7, #60]	@ 0x3c
 8008da4:	e073      	b.n	8008e8e <HAL_RCCEx_GetPeriphCLKFreq+0x992>
 8008da6:	2300      	movs	r3, #0
 8008da8:	63fb      	str	r3, [r7, #60]	@ 0x3c
 8008daa:	e070      	b.n	8008e8e <HAL_RCCEx_GetPeriphCLKFreq+0x992>
 8008dac:	4b3a      	ldr	r3, [pc, #232]	@ (8008e98 <HAL_RCCEx_GetPeriphCLKFreq+0x99c>)
 8008dae:	681b      	ldr	r3, [r3, #0]
 8008db0:	f403 7380 	and.w	r3, r3, #256	@ 0x100
 8008db4:	f5b3 7f80 	cmp.w	r3, #256	@ 0x100
 8008db8:	d102      	bne.n	8008dc0 <HAL_RCCEx_GetPeriphCLKFreq+0x8c4>
 8008dba:	4b39      	ldr	r3, [pc, #228]	@ (8008ea0 <HAL_RCCEx_GetPeriphCLKFreq+0x9a4>)
 8008dbc:	63fb      	str	r3, [r7, #60]	@ 0x3c
 8008dbe:	e066      	b.n	8008e8e <HAL_RCCEx_GetPeriphCLKFreq+0x992>
 8008dc0:	2300      	movs	r3, #0
 8008dc2:	63fb      	str	r3, [r7, #60]	@ 0x3c
 8008dc4:	e063      	b.n	8008e8e <HAL_RCCEx_GetPeriphCLKFreq+0x992>
 8008dc6:	4b34      	ldr	r3, [pc, #208]	@ (8008e98 <HAL_RCCEx_GetPeriphCLKFreq+0x99c>)
 8008dc8:	681b      	ldr	r3, [r3, #0]
 8008dca:	f403 3300 	and.w	r3, r3, #131072	@ 0x20000
 8008dce:	f5b3 3f00 	cmp.w	r3, #131072	@ 0x20000
 8008dd2:	d102      	bne.n	8008dda <HAL_RCCEx_GetPeriphCLKFreq+0x8de>
 8008dd4:	4b33      	ldr	r3, [pc, #204]	@ (8008ea4 <HAL_RCCEx_GetPeriphCLKFreq+0x9a8>)
 8008dd6:	63fb      	str	r3, [r7, #60]	@ 0x3c
 8008dd8:	e059      	b.n	8008e8e <HAL_RCCEx_GetPeriphCLKFreq+0x992>
 8008dda:	2300      	movs	r3, #0
 8008ddc:	63fb      	str	r3, [r7, #60]	@ 0x3c
 8008dde:	e056      	b.n	8008e8e <HAL_RCCEx_GetPeriphCLKFreq+0x992>
 8008de0:	4b31      	ldr	r3, [pc, #196]	@ (8008ea8 <HAL_RCCEx_GetPeriphCLKFreq+0x9ac>)
 8008de2:	63fb      	str	r3, [r7, #60]	@ 0x3c
 8008de4:	e053      	b.n	8008e8e <HAL_RCCEx_GetPeriphCLKFreq+0x992>
 8008de6:	2300      	movs	r3, #0
 8008de8:	63fb      	str	r3, [r7, #60]	@ 0x3c
 8008dea:	e050      	b.n	8008e8e <HAL_RCCEx_GetPeriphCLKFreq+0x992>
 8008dec:	e9d7 2300 	ldrd	r2, r3, [r7]
 8008df0:	f5a2 4100 	sub.w	r1, r2, #32768	@ 0x8000
 8008df4:	430b      	orrs	r3, r1
 8008df6:	d148      	bne.n	8008e8a <HAL_RCCEx_GetPeriphCLKFreq+0x98e>
 8008df8:	4b27      	ldr	r3, [pc, #156]	@ (8008e98 <HAL_RCCEx_GetPeriphCLKFreq+0x99c>)
 8008dfa:	6d1b      	ldr	r3, [r3, #80]	@ 0x50
 8008dfc:	f003 5340 	and.w	r3, r3, #805306368	@ 0x30000000
 8008e00:	63bb      	str	r3, [r7, #56]	@ 0x38
 8008e02:	6bbb      	ldr	r3, [r7, #56]	@ 0x38
 8008e04:	f1b3 5f00 	cmp.w	r3, #536870912	@ 0x20000000
 8008e08:	d02a      	beq.n	8008e60 <HAL_RCCEx_GetPeriphCLKFreq+0x964>
 8008e0a:	6bbb      	ldr	r3, [r7, #56]	@ 0x38
 8008e0c:	f1b3 5f00 	cmp.w	r3, #536870912	@ 0x20000000
 8008e10:	d838      	bhi.n	8008e84 <HAL_RCCEx_GetPeriphCLKFreq+0x988>
 8008e12:	6bbb      	ldr	r3, [r7, #56]	@ 0x38
 8008e14:	2b00      	cmp	r3, #0
 8008e16:	d004      	beq.n	8008e22 <HAL_RCCEx_GetPeriphCLKFreq+0x926>
 8008e18:	6bbb      	ldr	r3, [r7, #56]	@ 0x38
 8008e1a:	f1b3 5f80 	cmp.w	r3, #268435456	@ 0x10000000
 8008e1e:	d00d      	beq.n	8008e3c <HAL_RCCEx_GetPeriphCLKFreq+0x940>
 8008e20:	e030      	b.n	8008e84 <HAL_RCCEx_GetPeriphCLKFreq+0x988>
 8008e22:	4b1d      	ldr	r3, [pc, #116]	@ (8008e98 <HAL_RCCEx_GetPeriphCLKFreq+0x99c>)
 8008e24:	681b      	ldr	r3, [r3, #0]
 8008e26:	f403 3300 	and.w	r3, r3, #131072	@ 0x20000
 8008e2a:	f5b3 3f00 	cmp.w	r3, #131072	@ 0x20000
 8008e2e:	d102      	bne.n	8008e36 <HAL_RCCEx_GetPeriphCLKFreq+0x93a>
 8008e30:	4b1c      	ldr	r3, [pc, #112]	@ (8008ea4 <HAL_RCCEx_GetPeriphCLKFreq+0x9a8>)
 8008e32:	63fb      	str	r3, [r7, #60]	@ 0x3c
 8008e34:	e02b      	b.n	8008e8e <HAL_RCCEx_GetPeriphCLKFreq+0x992>
 8008e36:	2300      	movs	r3, #0
 8008e38:	63fb      	str	r3, [r7, #60]	@ 0x3c
 8008e3a:	e028      	b.n	8008e8e <HAL_RCCEx_GetPeriphCLKFreq+0x992>
 8008e3c:	4b16      	ldr	r3, [pc, #88]	@ (8008e98 <HAL_RCCEx_GetPeriphCLKFreq+0x99c>)
 8008e3e:	681b      	ldr	r3, [r3, #0]
 8008e40:	f003 7300 	and.w	r3, r3, #33554432	@ 0x2000000
 8008e44:	f1b3 7f00 	cmp.w	r3, #33554432	@ 0x2000000
 8008e48:	d107      	bne.n	8008e5a <HAL_RCCEx_GetPeriphCLKFreq+0x95e>
 8008e4a:	f107 0324 	add.w	r3, r7, #36	@ 0x24
 8008e4e:	4618      	mov	r0, r3
 8008e50:	f000 faea 	bl	8009428 <HAL_RCCEx_GetPLL1ClockFreq>
 8008e54:	6abb      	ldr	r3, [r7, #40]	@ 0x28
 8008e56:	63fb      	str	r3, [r7, #60]	@ 0x3c
 8008e58:	e019      	b.n	8008e8e <HAL_RCCEx_GetPeriphCLKFreq+0x992>
 8008e5a:	2300      	movs	r3, #0
 8008e5c:	63fb      	str	r3, [r7, #60]	@ 0x3c
 8008e5e:	e016      	b.n	8008e8e <HAL_RCCEx_GetPeriphCLKFreq+0x992>
 8008e60:	4b0d      	ldr	r3, [pc, #52]	@ (8008e98 <HAL_RCCEx_GetPeriphCLKFreq+0x99c>)
 8008e62:	681b      	ldr	r3, [r3, #0]
 8008e64:	f003 6300 	and.w	r3, r3, #134217728	@ 0x8000000
 8008e68:	f1b3 6f00 	cmp.w	r3, #134217728	@ 0x8000000
 8008e6c:	d107      	bne.n	8008e7e <HAL_RCCEx_GetPeriphCLKFreq+0x982>
 8008e6e:	f107 0318 	add.w	r3, r7, #24
 8008e72:	4618      	mov	r0, r3
 8008e74:	f000 f830 	bl	8008ed8 <HAL_RCCEx_GetPLL2ClockFreq>
 8008e78:	69fb      	ldr	r3, [r7, #28]
 8008e7a:	63fb      	str	r3, [r7, #60]	@ 0x3c
 8008e7c:	e007      	b.n	8008e8e <HAL_RCCEx_GetPeriphCLKFreq+0x992>
 8008e7e:	2300      	movs	r3, #0
 8008e80:	63fb      	str	r3, [r7, #60]	@ 0x3c
 8008e82:	e004      	b.n	8008e8e <HAL_RCCEx_GetPeriphCLKFreq+0x992>
 8008e84:	2300      	movs	r3, #0
 8008e86:	63fb      	str	r3, [r7, #60]	@ 0x3c
 8008e88:	e001      	b.n	8008e8e <HAL_RCCEx_GetPeriphCLKFreq+0x992>
 8008e8a:	2300      	movs	r3, #0
 8008e8c:	63fb      	str	r3, [r7, #60]	@ 0x3c
 8008e8e:	6bfb      	ldr	r3, [r7, #60]	@ 0x3c
 8008e90:	4618      	mov	r0, r3
 8008e92:	3740      	adds	r7, #64	@ 0x40
 8008e94:	46bd      	mov	sp, r7
 8008e96:	bd80      	pop	{r7, pc}
 8008e98:	58024400 	.word	0x58024400
 8008e9c:	03d09000 	.word	0x03d09000
 8008ea0:	003d0900 	.word	0x003d0900
 8008ea4:	007a1200 	.word	0x007a1200
 8008ea8:	00bb8000 	.word	0x00bb8000

08008eac <HAL_RCCEx_GetD3PCLK1Freq>:
 8008eac:	b580      	push	{r7, lr}
 8008eae:	af00      	add	r7, sp, #0
 8008eb0:	f7fe f90a 	bl	80070c8 <HAL_RCC_GetHCLKFreq>
 8008eb4:	4602      	mov	r2, r0
 8008eb6:	4b06      	ldr	r3, [pc, #24]	@ (8008ed0 <HAL_RCCEx_GetD3PCLK1Freq+0x24>)
 8008eb8:	6a1b      	ldr	r3, [r3, #32]
 8008eba:	091b      	lsrs	r3, r3, #4
 8008ebc:	f003 0307 	and.w	r3, r3, #7
 8008ec0:	4904      	ldr	r1, [pc, #16]	@ (8008ed4 <HAL_RCCEx_GetD3PCLK1Freq+0x28>)
 8008ec2:	5ccb      	ldrb	r3, [r1, r3]
 8008ec4:	f003 031f 	and.w	r3, r3, #31
 8008ec8:	fa22 f303 	lsr.w	r3, r2, r3
 8008ecc:	4618      	mov	r0, r3
 8008ece:	bd80      	pop	{r7, pc}
 8008ed0:	58024400 	.word	0x58024400
 8008ed4:	0800b6e0 	.word	0x0800b6e0

08008ed8 <HAL_RCCEx_GetPLL2ClockFreq>:
 8008ed8:	b480      	push	{r7}
 8008eda:	b089      	sub	sp, #36	@ 0x24
 8008edc:	af00      	add	r7, sp, #0
 8008ede:	6078      	str	r0, [r7, #4]
 8008ee0:	4ba1      	ldr	r3, [pc, #644]	@ (8009168 <HAL_RCCEx_GetPLL2ClockFreq+0x290>)
 8008ee2:	6a9b      	ldr	r3, [r3, #40]	@ 0x28
 8008ee4:	f003 0303 	and.w	r3, r3, #3
 8008ee8:	61bb      	str	r3, [r7, #24]
 8008eea:	4b9f      	ldr	r3, [pc, #636]	@ (8009168 <HAL_RCCEx_GetPLL2ClockFreq+0x290>)
 8008eec:	6a9b      	ldr	r3, [r3, #40]	@ 0x28
 8008eee:	0b1b      	lsrs	r3, r3, #12
 8008ef0:	f003 033f 	and.w	r3, r3, #63	@ 0x3f
 8008ef4:	617b      	str	r3, [r7, #20]
 8008ef6:	4b9c      	ldr	r3, [pc, #624]	@ (8009168 <HAL_RCCEx_GetPLL2ClockFreq+0x290>)
 8008ef8:	6adb      	ldr	r3, [r3, #44]	@ 0x2c
 8008efa:	091b      	lsrs	r3, r3, #4
 8008efc:	f003 0301 	and.w	r3, r3, #1
 8008f00:	613b      	str	r3, [r7, #16]
 8008f02:	4b99      	ldr	r3, [pc, #612]	@ (8009168 <HAL_RCCEx_GetPLL2ClockFreq+0x290>)
 8008f04:	6bdb      	ldr	r3, [r3, #60]	@ 0x3c
 8008f06:	08db      	lsrs	r3, r3, #3
 8008f08:	f3c3 030c 	ubfx	r3, r3, #0, #13
 8008f0c:	693a      	ldr	r2, [r7, #16]
 8008f0e:	fb02 f303 	mul.w	r3, r2, r3
 8008f12:	ee07 3a90 	vmov	s15, r3
 8008f16:	eef8 7a67 	vcvt.f32.u32	s15, s15
 8008f1a:	edc7 7a03 	vstr	s15, [r7, #12]
 8008f1e:	697b      	ldr	r3, [r7, #20]
 8008f20:	2b00      	cmp	r3, #0
 8008f22:	f000 8111 	beq.w	8009148 <HAL_RCCEx_GetPLL2ClockFreq+0x270>
 8008f26:	69bb      	ldr	r3, [r7, #24]
 8008f28:	2b02      	cmp	r3, #2
 8008f2a:	f000 8083 	beq.w	8009034 <HAL_RCCEx_GetPLL2ClockFreq+0x15c>
 8008f2e:	69bb      	ldr	r3, [r7, #24]
 8008f30:	2b02      	cmp	r3, #2
 8008f32:	f200 80a1 	bhi.w	8009078 <HAL_RCCEx_GetPLL2ClockFreq+0x1a0>
 8008f36:	69bb      	ldr	r3, [r7, #24]
 8008f38:	2b00      	cmp	r3, #0
 8008f3a:	d003      	beq.n	8008f44 <HAL_RCCEx_GetPLL2ClockFreq+0x6c>
 8008f3c:	69bb      	ldr	r3, [r7, #24]
 8008f3e:	2b01      	cmp	r3, #1
 8008f40:	d056      	beq.n	8008ff0 <HAL_RCCEx_GetPLL2ClockFreq+0x118>
 8008f42:	e099      	b.n	8009078 <HAL_RCCEx_GetPLL2ClockFreq+0x1a0>
 8008f44:	4b88      	ldr	r3, [pc, #544]	@ (8009168 <HAL_RCCEx_GetPLL2ClockFreq+0x290>)
 8008f46:	681b      	ldr	r3, [r3, #0]
 8008f48:	f003 0320 	and.w	r3, r3, #32
 8008f4c:	2b00      	cmp	r3, #0
 8008f4e:	d02d      	beq.n	8008fac <HAL_RCCEx_GetPLL2ClockFreq+0xd4>
 8008f50:	4b85      	ldr	r3, [pc, #532]	@ (8009168 <HAL_RCCEx_GetPLL2ClockFreq+0x290>)
 8008f52:	681b      	ldr	r3, [r3, #0]
 8008f54:	08db      	lsrs	r3, r3, #3
 8008f56:	f003 0303 	and.w	r3, r3, #3
 8008f5a:	4a84      	ldr	r2, [pc, #528]	@ (800916c <HAL_RCCEx_GetPLL2ClockFreq+0x294>)
 8008f5c:	fa22 f303 	lsr.w	r3, r2, r3
 8008f60:	60bb      	str	r3, [r7, #8]
 8008f62:	68bb      	ldr	r3, [r7, #8]
 8008f64:	ee07 3a90 	vmov	s15, r3
 8008f68:	eef8 6a67 	vcvt.f32.u32	s13, s15
 8008f6c:	697b      	ldr	r3, [r7, #20]
 8008f6e:	ee07 3a90 	vmov	s15, r3
 8008f72:	eef8 7a67 	vcvt.f32.u32	s15, s15
 8008f76:	ee86 7aa7 	vdiv.f32	s14, s13, s15
 8008f7a:	4b7b      	ldr	r3, [pc, #492]	@ (8009168 <HAL_RCCEx_GetPLL2ClockFreq+0x290>)
 8008f7c:	6b9b      	ldr	r3, [r3, #56]	@ 0x38
 8008f7e:	f3c3 0308 	ubfx	r3, r3, #0, #9
 8008f82:	ee07 3a90 	vmov	s15, r3
 8008f86:	eef8 6a67 	vcvt.f32.u32	s13, s15
 8008f8a:	ed97 6a03 	vldr	s12, [r7, #12]
 8008f8e:	eddf 5a78 	vldr	s11, [pc, #480]	@ 8009170 <HAL_RCCEx_GetPLL2ClockFreq+0x298>
 8008f92:	eec6 7a25 	vdiv.f32	s15, s12, s11
 8008f96:	ee76 7aa7 	vadd.f32	s15, s13, s15
 8008f9a:	eef7 6a00 	vmov.f32	s13, #112	@ 0x3f800000  1.0
 8008f9e:	ee77 7aa6 	vadd.f32	s15, s15, s13
 8008fa2:	ee67 7a27 	vmul.f32	s15, s14, s15
 8008fa6:	edc7 7a07 	vstr	s15, [r7, #28]
 8008faa:	e087      	b.n	80090bc <HAL_RCCEx_GetPLL2ClockFreq+0x1e4>
 8008fac:	697b      	ldr	r3, [r7, #20]
 8008fae:	ee07 3a90 	vmov	s15, r3
 8008fb2:	eef8 7a67 	vcvt.f32.u32	s15, s15
 8008fb6:	eddf 6a6f 	vldr	s13, [pc, #444]	@ 8009174 <HAL_RCCEx_GetPLL2ClockFreq+0x29c>
 8008fba:	ee86 7aa7 	vdiv.f32	s14, s13, s15
 8008fbe:	4b6a      	ldr	r3, [pc, #424]	@ (8009168 <HAL_RCCEx_GetPLL2ClockFreq+0x290>)
 8008fc0:	6b9b      	ldr	r3, [r3, #56]	@ 0x38
 8008fc2:	f3c3 0308 	ubfx	r3, r3, #0, #9
 8008fc6:	ee07 3a90 	vmov	s15, r3
 8008fca:	eef8 6a67 	vcvt.f32.u32	s13, s15
 8008fce:	ed97 6a03 	vldr	s12, [r7, #12]
 8008fd2:	eddf 5a67 	vldr	s11, [pc, #412]	@ 8009170 <HAL_RCCEx_GetPLL2ClockFreq+0x298>
 8008fd6:	eec6 7a25 	vdiv.f32	s15, s12, s11
 8008fda:	ee76 7aa7 	vadd.f32	s15, s13, s15
 8008fde:	eef7 6a00 	vmov.f32	s13, #112	@ 0x3f800000  1.0
 8008fe2:	ee77 7aa6 	vadd.f32	s15, s15, s13
 8008fe6:	ee67 7a27 	vmul.f32	s15, s14, s15
 8008fea:	edc7 7a07 	vstr	s15, [r7, #28]
 8008fee:	e065      	b.n	80090bc <HAL_RCCEx_GetPLL2ClockFreq+0x1e4>
 8008ff0:	697b      	ldr	r3, [r7, #20]
 8008ff2:	ee07 3a90 	vmov	s15, r3
 8008ff6:	eef8 7a67 	vcvt.f32.u32	s15, s15
 8008ffa:	eddf 6a5f 	vldr	s13, [pc, #380]	@ 8009178 <HAL_RCCEx_GetPLL2ClockFreq+0x2a0>
 8008ffe:	ee86 7aa7 	vdiv.f32	s14, s13, s15
 8009002:	4b59      	ldr	r3, [pc, #356]	@ (8009168 <HAL_RCCEx_GetPLL2ClockFreq+0x290>)
 8009004:	6b9b      	ldr	r3, [r3, #56]	@ 0x38
 8009006:	f3c3 0308 	ubfx	r3, r3, #0, #9
 800900a:	ee07 3a90 	vmov	s15, r3
 800900e:	eef8 6a67 	vcvt.f32.u32	s13, s15
 8009012:	ed97 6a03 	vldr	s12, [r7, #12]
 8009016:	eddf 5a56 	vldr	s11, [pc, #344]	@ 8009170 <HAL_RCCEx_GetPLL2ClockFreq+0x298>
 800901a:	eec6 7a25 	vdiv.f32	s15, s12, s11
 800901e:	ee76 7aa7 	vadd.f32	s15, s13, s15
 8009022:	eef7 6a00 	vmov.f32	s13, #112	@ 0x3f800000  1.0
 8009026:	ee77 7aa6 	vadd.f32	s15, s15, s13
 800902a:	ee67 7a27 	vmul.f32	s15, s14, s15
 800902e:	edc7 7a07 	vstr	s15, [r7, #28]
 8009032:	e043      	b.n	80090bc <HAL_RCCEx_GetPLL2ClockFreq+0x1e4>
 8009034:	697b      	ldr	r3, [r7, #20]
 8009036:	ee07 3a90 	vmov	s15, r3
 800903a:	eef8 7a67 	vcvt.f32.u32	s15, s15
 800903e:	eddf 6a4f 	vldr	s13, [pc, #316]	@ 800917c <HAL_RCCEx_GetPLL2ClockFreq+0x2a4>
 8009042:	ee86 7aa7 	vdiv.f32	s14, s13, s15
 8009046:	4b48      	ldr	r3, [pc, #288]	@ (8009168 <HAL_RCCEx_GetPLL2ClockFreq+0x290>)
 8009048:	6b9b      	ldr	r3, [r3, #56]	@ 0x38
 800904a:	f3c3 0308 	ubfx	r3, r3, #0, #9
 800904e:	ee07 3a90 	vmov	s15, r3
 8009052:	eef8 6a67 	vcvt.f32.u32	s13, s15
 8009056:	ed97 6a03 	vldr	s12, [r7, #12]
 800905a:	eddf 5a45 	vldr	s11, [pc, #276]	@ 8009170 <HAL_RCCEx_GetPLL2ClockFreq+0x298>
 800905e:	eec6 7a25 	vdiv.f32	s15, s12, s11
 8009062:	ee76 7aa7 	vadd.f32	s15, s13, s15
 8009066:	eef7 6a00 	vmov.f32	s13, #112	@ 0x3f800000  1.0
 800906a:	ee77 7aa6 	vadd.f32	s15, s15, s13
 800906e:	ee67 7a27 	vmul.f32	s15, s14, s15
 8009072:	edc7 7a07 	vstr	s15, [r7, #28]
 8009076:	e021      	b.n	80090bc <HAL_RCCEx_GetPLL2ClockFreq+0x1e4>
 8009078:	697b      	ldr	r3, [r7, #20]
 800907a:	ee07 3a90 	vmov	s15, r3
 800907e:	eef8 7a67 	vcvt.f32.u32	s15, s15
 8009082:	eddf 6a3d 	vldr	s13, [pc, #244]	@ 8009178 <HAL_RCCEx_GetPLL2ClockFreq+0x2a0>
 8009086:	ee86 7aa7 	vdiv.f32	s14, s13, s15
 800908a:	4b37      	ldr	r3, [pc, #220]	@ (8009168 <HAL_RCCEx_GetPLL2ClockFreq+0x290>)
 800908c:	6b9b      	ldr	r3, [r3, #56]	@ 0x38
 800908e:	f3c3 0308 	ubfx	r3, r3, #0, #9
 8009092:	ee07 3a90 	vmov	s15, r3
 8009096:	eef8 6a67 	vcvt.f32.u32	s13, s15
 800909a:	ed97 6a03 	vldr	s12, [r7, #12]
 800909e:	eddf 5a34 	vldr	s11, [pc, #208]	@ 8009170 <HAL_RCCEx_GetPLL2ClockFreq+0x298>
 80090a2:	eec6 7a25 	vdiv.f32	s15, s12, s11
 80090a6:	ee76 7aa7 	vadd.f32	s15, s13, s15
 80090aa:	eef7 6a00 	vmov.f32	s13, #112	@ 0x3f800000  1.0
 80090ae:	ee77 7aa6 	vadd.f32	s15, s15, s13
 80090b2:	ee67 7a27 	vmul.f32	s15, s14, s15
 80090b6:	edc7 7a07 	vstr	s15, [r7, #28]
 80090ba:	bf00      	nop
 80090bc:	4b2a      	ldr	r3, [pc, #168]	@ (8009168 <HAL_RCCEx_GetPLL2ClockFreq+0x290>)
 80090be:	6b9b      	ldr	r3, [r3, #56]	@ 0x38
 80090c0:	0a5b      	lsrs	r3, r3, #9
 80090c2:	f003 037f 	and.w	r3, r3, #127	@ 0x7f
 80090c6:	ee07 3a90 	vmov	s15, r3
 80090ca:	eef8 7a67 	vcvt.f32.u32	s15, s15
 80090ce:	eeb7 7a00 	vmov.f32	s14, #112	@ 0x3f800000  1.0
 80090d2:	ee37 7a87 	vadd.f32	s14, s15, s14
 80090d6:	edd7 6a07 	vldr	s13, [r7, #28]
 80090da:	eec6 7a87 	vdiv.f32	s15, s13, s14
 80090de:	eefc 7ae7 	vcvt.u32.f32	s15, s15
 80090e2:	ee17 2a90 	vmov	r2, s15
 80090e6:	687b      	ldr	r3, [r7, #4]
 80090e8:	601a      	str	r2, [r3, #0]
 80090ea:	4b1f      	ldr	r3, [pc, #124]	@ (8009168 <HAL_RCCEx_GetPLL2ClockFreq+0x290>)
 80090ec:	6b9b      	ldr	r3, [r3, #56]	@ 0x38
 80090ee:	0c1b      	lsrs	r3, r3, #16
 80090f0:	f003 037f 	and.w	r3, r3, #127	@ 0x7f
 80090f4:	ee07 3a90 	vmov	s15, r3
 80090f8:	eef8 7a67 	vcvt.f32.u32	s15, s15
 80090fc:	eeb7 7a00 	vmov.f32	s14, #112	@ 0x3f800000  1.0
 8009100:	ee37 7a87 	vadd.f32	s14, s15, s14
 8009104:	edd7 6a07 	vldr	s13, [r7, #28]
 8009108:	eec6 7a87 	vdiv.f32	s15, s13, s14
 800910c:	eefc 7ae7 	vcvt.u32.f32	s15, s15
 8009110:	ee17 2a90 	vmov	r2, s15
 8009114:	687b      	ldr	r3, [r7, #4]
 8009116:	605a      	str	r2, [r3, #4]
 8009118:	4b13      	ldr	r3, [pc, #76]	@ (8009168 <HAL_RCCEx_GetPLL2ClockFreq+0x290>)
 800911a:	6b9b      	ldr	r3, [r3, #56]	@ 0x38
 800911c:	0e1b      	lsrs	r3, r3, #24
 800911e:	f003 037f 	and.w	r3, r3, #127	@ 0x7f
 8009122:	ee07 3a90 	vmov	s15, r3
 8009126:	eef8 7a67 	vcvt.f32.u32	s15, s15
 800912a:	eeb7 7a00 	vmov.f32	s14, #112	@ 0x3f800000  1.0
 800912e:	ee37 7a87 	vadd.f32	s14, s15, s14
 8009132:	edd7 6a07 	vldr	s13, [r7, #28]
 8009136:	eec6 7a87 	vdiv.f32	s15, s13, s14
 800913a:	eefc 7ae7 	vcvt.u32.f32	s15, s15
 800913e:	ee17 2a90 	vmov	r2, s15
 8009142:	687b      	ldr	r3, [r7, #4]
 8009144:	609a      	str	r2, [r3, #8]
 8009146:	e008      	b.n	800915a <HAL_RCCEx_GetPLL2ClockFreq+0x282>
 8009148:	687b      	ldr	r3, [r7, #4]
 800914a:	2200      	movs	r2, #0
 800914c:	601a      	str	r2, [r3, #0]
 800914e:	687b      	ldr	r3, [r7, #4]
 8009150:	2200      	movs	r2, #0
 8009152:	605a      	str	r2, [r3, #4]
 8009154:	687b      	ldr	r3, [r7, #4]
 8009156:	2200      	movs	r2, #0
 8009158:	609a      	str	r2, [r3, #8]
 800915a:	bf00      	nop
 800915c:	3724      	adds	r7, #36	@ 0x24
 800915e:	46bd      	mov	sp, r7
 8009160:	f85d 7b04 	ldr.w	r7, [sp], #4
 8009164:	4770      	bx	lr
 8009166:	bf00      	nop
 8009168:	58024400 	.word	0x58024400
 800916c:	03d09000 	.word	0x03d09000
 8009170:	46000000 	.word	0x46000000
 8009174:	4c742400 	.word	0x4c742400
 8009178:	4a742400 	.word	0x4a742400
 800917c:	4af42400 	.word	0x4af42400

08009180 <HAL_RCCEx_GetPLL3ClockFreq>:
 8009180:	b480      	push	{r7}
 8009182:	b089      	sub	sp, #36	@ 0x24
 8009184:	af00      	add	r7, sp, #0
 8009186:	6078      	str	r0, [r7, #4]
 8009188:	4ba1      	ldr	r3, [pc, #644]	@ (8009410 <HAL_RCCEx_GetPLL3ClockFreq+0x290>)
 800918a:	6a9b      	ldr	r3, [r3, #40]	@ 0x28
 800918c:	f003 0303 	and.w	r3, r3, #3
 8009190:	61bb      	str	r3, [r7, #24]
 8009192:	4b9f      	ldr	r3, [pc, #636]	@ (8009410 <HAL_RCCEx_GetPLL3ClockFreq+0x290>)
 8009194:	6a9b      	ldr	r3, [r3, #40]	@ 0x28
 8009196:	0d1b      	lsrs	r3, r3, #20
 8009198:	f003 033f 	and.w	r3, r3, #63	@ 0x3f
 800919c:	617b      	str	r3, [r7, #20]
 800919e:	4b9c      	ldr	r3, [pc, #624]	@ (8009410 <HAL_RCCEx_GetPLL3ClockFreq+0x290>)
 80091a0:	6adb      	ldr	r3, [r3, #44]	@ 0x2c
 80091a2:	0a1b      	lsrs	r3, r3, #8
 80091a4:	f003 0301 	and.w	r3, r3, #1
 80091a8:	613b      	str	r3, [r7, #16]
 80091aa:	4b99      	ldr	r3, [pc, #612]	@ (8009410 <HAL_RCCEx_GetPLL3ClockFreq+0x290>)
 80091ac:	6c5b      	ldr	r3, [r3, #68]	@ 0x44
 80091ae:	08db      	lsrs	r3, r3, #3
 80091b0:	f3c3 030c 	ubfx	r3, r3, #0, #13
 80091b4:	693a      	ldr	r2, [r7, #16]
 80091b6:	fb02 f303 	mul.w	r3, r2, r3
 80091ba:	ee07 3a90 	vmov	s15, r3
 80091be:	eef8 7a67 	vcvt.f32.u32	s15, s15
 80091c2:	edc7 7a03 	vstr	s15, [r7, #12]
 80091c6:	697b      	ldr	r3, [r7, #20]
 80091c8:	2b00      	cmp	r3, #0
 80091ca:	f000 8111 	beq.w	80093f0 <HAL_RCCEx_GetPLL3ClockFreq+0x270>
 80091ce:	69bb      	ldr	r3, [r7, #24]
 80091d0:	2b02      	cmp	r3, #2
 80091d2:	f000 8083 	beq.w	80092dc <HAL_RCCEx_GetPLL3ClockFreq+0x15c>
 80091d6:	69bb      	ldr	r3, [r7, #24]
 80091d8:	2b02      	cmp	r3, #2
 80091da:	f200 80a1 	bhi.w	8009320 <HAL_RCCEx_GetPLL3ClockFreq+0x1a0>
 80091de:	69bb      	ldr	r3, [r7, #24]
 80091e0:	2b00      	cmp	r3, #0
 80091e2:	d003      	beq.n	80091ec <HAL_RCCEx_GetPLL3ClockFreq+0x6c>
 80091e4:	69bb      	ldr	r3, [r7, #24]
 80091e6:	2b01      	cmp	r3, #1
 80091e8:	d056      	beq.n	8009298 <HAL_RCCEx_GetPLL3ClockFreq+0x118>
 80091ea:	e099      	b.n	8009320 <HAL_RCCEx_GetPLL3ClockFreq+0x1a0>
 80091ec:	4b88      	ldr	r3, [pc, #544]	@ (8009410 <HAL_RCCEx_GetPLL3ClockFreq+0x290>)
 80091ee:	681b      	ldr	r3, [r3, #0]
 80091f0:	f003 0320 	and.w	r3, r3, #32
 80091f4:	2b00      	cmp	r3, #0
 80091f6:	d02d      	beq.n	8009254 <HAL_RCCEx_GetPLL3ClockFreq+0xd4>
 80091f8:	4b85      	ldr	r3, [pc, #532]	@ (8009410 <HAL_RCCEx_GetPLL3ClockFreq+0x290>)
 80091fa:	681b      	ldr	r3, [r3, #0]
 80091fc:	08db      	lsrs	r3, r3, #3
 80091fe:	f003 0303 	and.w	r3, r3, #3
 8009202:	4a84      	ldr	r2, [pc, #528]	@ (8009414 <HAL_RCCEx_GetPLL3ClockFreq+0x294>)
 8009204:	fa22 f303 	lsr.w	r3, r2, r3
 8009208:	60bb      	str	r3, [r7, #8]
 800920a:	68bb      	ldr	r3, [r7, #8]
 800920c:	ee07 3a90 	vmov	s15, r3
 8009210:	eef8 6a67 	vcvt.f32.u32	s13, s15
 8009214:	697b      	ldr	r3, [r7, #20]
 8009216:	ee07 3a90 	vmov	s15, r3
 800921a:	eef8 7a67 	vcvt.f32.u32	s15, s15
 800921e:	ee86 7aa7 	vdiv.f32	s14, s13, s15
 8009222:	4b7b      	ldr	r3, [pc, #492]	@ (8009410 <HAL_RCCEx_GetPLL3ClockFreq+0x290>)
 8009224:	6c1b      	ldr	r3, [r3, #64]	@ 0x40
 8009226:	f3c3 0308 	ubfx	r3, r3, #0, #9
 800922a:	ee07 3a90 	vmov	s15, r3
 800922e:	eef8 6a67 	vcvt.f32.u32	s13, s15
 8009232:	ed97 6a03 	vldr	s12, [r7, #12]
 8009236:	eddf 5a78 	vldr	s11, [pc, #480]	@ 8009418 <HAL_RCCEx_GetPLL3ClockFreq+0x298>
 800923a:	eec6 7a25 	vdiv.f32	s15, s12, s11
 800923e:	ee76 7aa7 	vadd.f32	s15, s13, s15
 8009242:	eef7 6a00 	vmov.f32	s13, #112	@ 0x3f800000  1.0
 8009246:	ee77 7aa6 	vadd.f32	s15, s15, s13
 800924a:	ee67 7a27 	vmul.f32	s15, s14, s15
 800924e:	edc7 7a07 	vstr	s15, [r7, #28]
 8009252:	e087      	b.n	8009364 <HAL_RCCEx_GetPLL3ClockFreq+0x1e4>
 8009254:	697b      	ldr	r3, [r7, #20]
 8009256:	ee07 3a90 	vmov	s15, r3
 800925a:	eef8 7a67 	vcvt.f32.u32	s15, s15
 800925e:	eddf 6a6f 	vldr	s13, [pc, #444]	@ 800941c <HAL_RCCEx_GetPLL3ClockFreq+0x29c>
 8009262:	ee86 7aa7 	vdiv.f32	s14, s13, s15
 8009266:	4b6a      	ldr	r3, [pc, #424]	@ (8009410 <HAL_RCCEx_GetPLL3ClockFreq+0x290>)
 8009268:	6c1b      	ldr	r3, [r3, #64]	@ 0x40
 800926a:	f3c3 0308 	ubfx	r3, r3, #0, #9
 800926e:	ee07 3a90 	vmov	s15, r3
 8009272:	eef8 6a67 	vcvt.f32.u32	s13, s15
 8009276:	ed97 6a03 	vldr	s12, [r7, #12]
 800927a:	eddf 5a67 	vldr	s11, [pc, #412]	@ 8009418 <HAL_RCCEx_GetPLL3ClockFreq+0x298>
 800927e:	eec6 7a25 	vdiv.f32	s15, s12, s11
 8009282:	ee76 7aa7 	vadd.f32	s15, s13, s15
 8009286:	eef7 6a00 	vmov.f32	s13, #112	@ 0x3f800000  1.0
 800928a:	ee77 7aa6 	vadd.f32	s15, s15, s13
 800928e:	ee67 7a27 	vmul.f32	s15, s14, s15
 8009292:	edc7 7a07 	vstr	s15, [r7, #28]
 8009296:	e065      	b.n	8009364 <HAL_RCCEx_GetPLL3ClockFreq+0x1e4>
 8009298:	697b      	ldr	r3, [r7, #20]
 800929a:	ee07 3a90 	vmov	s15, r3
 800929e:	eef8 7a67 	vcvt.f32.u32	s15, s15
 80092a2:	eddf 6a5f 	vldr	s13, [pc, #380]	@ 8009420 <HAL_RCCEx_GetPLL3ClockFreq+0x2a0>
 80092a6:	ee86 7aa7 	vdiv.f32	s14, s13, s15
 80092aa:	4b59      	ldr	r3, [pc, #356]	@ (8009410 <HAL_RCCEx_GetPLL3ClockFreq+0x290>)
 80092ac:	6c1b      	ldr	r3, [r3, #64]	@ 0x40
 80092ae:	f3c3 0308 	ubfx	r3, r3, #0, #9
 80092b2:	ee07 3a90 	vmov	s15, r3
 80092b6:	eef8 6a67 	vcvt.f32.u32	s13, s15
 80092ba:	ed97 6a03 	vldr	s12, [r7, #12]
 80092be:	eddf 5a56 	vldr	s11, [pc, #344]	@ 8009418 <HAL_RCCEx_GetPLL3ClockFreq+0x298>
 80092c2:	eec6 7a25 	vdiv.f32	s15, s12, s11
 80092c6:	ee76 7aa7 	vadd.f32	s15, s13, s15
 80092ca:	eef7 6a00 	vmov.f32	s13, #112	@ 0x3f800000  1.0
 80092ce:	ee77 7aa6 	vadd.f32	s15, s15, s13
 80092d2:	ee67 7a27 	vmul.f32	s15, s14, s15
 80092d6:	edc7 7a07 	vstr	s15, [r7, #28]
 80092da:	e043      	b.n	8009364 <HAL_RCCEx_GetPLL3ClockFreq+0x1e4>
 80092dc:	697b      	ldr	r3, [r7, #20]
 80092de:	ee07 3a90 	vmov	s15, r3
 80092e2:	eef8 7a67 	vcvt.f32.u32	s15, s15
 80092e6:	eddf 6a4f 	vldr	s13, [pc, #316]	@ 8009424 <HAL_RCCEx_GetPLL3ClockFreq+0x2a4>
 80092ea:	ee86 7aa7 	vdiv.f32	s14, s13, s15
 80092ee:	4b48      	ldr	r3, [pc, #288]	@ (8009410 <HAL_RCCEx_GetPLL3ClockFreq+0x290>)
 80092f0:	6c1b      	ldr	r3, [r3, #64]	@ 0x40
 80092f2:	f3c3 0308 	ubfx	r3, r3, #0, #9
 80092f6:	ee07 3a90 	vmov	s15, r3
 80092fa:	eef8 6a67 	vcvt.f32.u32	s13, s15
 80092fe:	ed97 6a03 	vldr	s12, [r7, #12]
 8009302:	eddf 5a45 	vldr	s11, [pc, #276]	@ 8009418 <HAL_RCCEx_GetPLL3ClockFreq+0x298>
 8009306:	eec6 7a25 	vdiv.f32	s15, s12, s11
 800930a:	ee76 7aa7 	vadd.f32	s15, s13, s15
 800930e:	eef7 6a00 	vmov.f32	s13, #112	@ 0x3f800000  1.0
 8009312:	ee77 7aa6 	vadd.f32	s15, s15, s13
 8009316:	ee67 7a27 	vmul.f32	s15, s14, s15
 800931a:	edc7 7a07 	vstr	s15, [r7, #28]
 800931e:	e021      	b.n	8009364 <HAL_RCCEx_GetPLL3ClockFreq+0x1e4>
 8009320:	697b      	ldr	r3, [r7, #20]
 8009322:	ee07 3a90 	vmov	s15, r3
 8009326:	eef8 7a67 	vcvt.f32.u32	s15, s15
 800932a:	eddf 6a3d 	vldr	s13, [pc, #244]	@ 8009420 <HAL_RCCEx_GetPLL3ClockFreq+0x2a0>
 800932e:	ee86 7aa7 	vdiv.f32	s14, s13, s15
 8009332:	4b37      	ldr	r3, [pc, #220]	@ (8009410 <HAL_RCCEx_GetPLL3ClockFreq+0x290>)
 8009334:	6c1b      	ldr	r3, [r3, #64]	@ 0x40
 8009336:	f3c3 0308 	ubfx	r3, r3, #0, #9
 800933a:	ee07 3a90 	vmov	s15, r3
 800933e:	eef8 6a67 	vcvt.f32.u32	s13, s15
 8009342:	ed97 6a03 	vldr	s12, [r7, #12]
 8009346:	eddf 5a34 	vldr	s11, [pc, #208]	@ 8009418 <HAL_RCCEx_GetPLL3ClockFreq+0x298>
 800934a:	eec6 7a25 	vdiv.f32	s15, s12, s11
 800934e:	ee76 7aa7 	vadd.f32	s15, s13, s15
 8009352:	eef7 6a00 	vmov.f32	s13, #112	@ 0x3f800000  1.0
 8009356:	ee77 7aa6 	vadd.f32	s15, s15, s13
 800935a:	ee67 7a27 	vmul.f32	s15, s14, s15
 800935e:	edc7 7a07 	vstr	s15, [r7, #28]
 8009362:	bf00      	nop
 8009364:	4b2a      	ldr	r3, [pc, #168]	@ (8009410 <HAL_RCCEx_GetPLL3ClockFreq+0x290>)
 8009366:	6c1b      	ldr	r3, [r3, #64]	@ 0x40
 8009368:	0a5b      	lsrs	r3, r3, #9
 800936a:	f003 037f 	and.w	r3, r3, #127	@ 0x7f
 800936e:	ee07 3a90 	vmov	s15, r3
 8009372:	eef8 7a67 	vcvt.f32.u32	s15, s15
 8009376:	eeb7 7a00 	vmov.f32	s14, #112	@ 0x3f800000  1.0
 800937a:	ee37 7a87 	vadd.f32	s14, s15, s14
 800937e:	edd7 6a07 	vldr	s13, [r7, #28]
 8009382:	eec6 7a87 	vdiv.f32	s15, s13, s14
 8009386:	eefc 7ae7 	vcvt.u32.f32	s15, s15
 800938a:	ee17 2a90 	vmov	r2, s15
 800938e:	687b      	ldr	r3, [r7, #4]
 8009390:	601a      	str	r2, [r3, #0]
 8009392:	4b1f      	ldr	r3, [pc, #124]	@ (8009410 <HAL_RCCEx_GetPLL3ClockFreq+0x290>)
 8009394:	6c1b      	ldr	r3, [r3, #64]	@ 0x40
 8009396:	0c1b      	lsrs	r3, r3, #16
 8009398:	f003 037f 	and.w	r3, r3, #127	@ 0x7f
 800939c:	ee07 3a90 	vmov	s15, r3
 80093a0:	eef8 7a67 	vcvt.f32.u32	s15, s15
 80093a4:	eeb7 7a00 	vmov.f32	s14, #112	@ 0x3f800000  1.0
 80093a8:	ee37 7a87 	vadd.f32	s14, s15, s14
 80093ac:	edd7 6a07 	vldr	s13, [r7, #28]
 80093b0:	eec6 7a87 	vdiv.f32	s15, s13, s14
 80093b4:	eefc 7ae7 	vcvt.u32.f32	s15, s15
 80093b8:	ee17 2a90 	vmov	r2, s15
 80093bc:	687b      	ldr	r3, [r7, #4]
 80093be:	605a      	str	r2, [r3, #4]
 80093c0:	4b13      	ldr	r3, [pc, #76]	@ (8009410 <HAL_RCCEx_GetPLL3ClockFreq+0x290>)
 80093c2:	6c1b      	ldr	r3, [r3, #64]	@ 0x40
 80093c4:	0e1b      	lsrs	r3, r3, #24
 80093c6:	f003 037f 	and.w	r3, r3, #127	@ 0x7f
 80093ca:	ee07 3a90 	vmov	s15, r3
 80093ce:	eef8 7a67 	vcvt.f32.u32	s15, s15
 80093d2:	eeb7 7a00 	vmov.f32	s14, #112	@ 0x3f800000  1.0
 80093d6:	ee37 7a87 	vadd.f32	s14, s15, s14
 80093da:	edd7 6a07 	vldr	s13, [r7, #28]
 80093de:	eec6 7a87 	vdiv.f32	s15, s13, s14
 80093e2:	eefc 7ae7 	vcvt.u32.f32	s15, s15
 80093e6:	ee17 2a90 	vmov	r2, s15
 80093ea:	687b      	ldr	r3, [r7, #4]
 80093ec:	609a      	str	r2, [r3, #8]
 80093ee:	e008      	b.n	8009402 <HAL_RCCEx_GetPLL3ClockFreq+0x282>
 80093f0:	687b      	ldr	r3, [r7, #4]
 80093f2:	2200      	movs	r2, #0
 80093f4:	601a      	str	r2, [r3, #0]
 80093f6:	687b      	ldr	r3, [r7, #4]
 80093f8:	2200      	movs	r2, #0
 80093fa:	605a      	str	r2, [r3, #4]
 80093fc:	687b      	ldr	r3, [r7, #4]
 80093fe:	2200      	movs	r2, #0
 8009400:	609a      	str	r2, [r3, #8]
 8009402:	bf00      	nop
 8009404:	3724      	adds	r7, #36	@ 0x24
 8009406:	46bd      	mov	sp, r7
 8009408:	f85d 7b04 	ldr.w	r7, [sp], #4
 800940c:	4770      	bx	lr
 800940e:	bf00      	nop
 8009410:	58024400 	.word	0x58024400
 8009414:	03d09000 	.word	0x03d09000
 8009418:	46000000 	.word	0x46000000
 800941c:	4c742400 	.word	0x4c742400
 8009420:	4a742400 	.word	0x4a742400
 8009424:	4af42400 	.word	0x4af42400

08009428 <HAL_RCCEx_GetPLL1ClockFreq>:
 8009428:	b480      	push	{r7}
 800942a:	b089      	sub	sp, #36	@ 0x24
 800942c:	af00      	add	r7, sp, #0
 800942e:	6078      	str	r0, [r7, #4]
 8009430:	4ba0      	ldr	r3, [pc, #640]	@ (80096b4 <HAL_RCCEx_GetPLL1ClockFreq+0x28c>)
 8009432:	6a9b      	ldr	r3, [r3, #40]	@ 0x28
 8009434:	f003 0303 	and.w	r3, r3, #3
 8009438:	61bb      	str	r3, [r7, #24]
 800943a:	4b9e      	ldr	r3, [pc, #632]	@ (80096b4 <HAL_RCCEx_GetPLL1ClockFreq+0x28c>)
 800943c:	6a9b      	ldr	r3, [r3, #40]	@ 0x28
 800943e:	091b      	lsrs	r3, r3, #4
 8009440:	f003 033f 	and.w	r3, r3, #63	@ 0x3f
 8009444:	617b      	str	r3, [r7, #20]
 8009446:	4b9b      	ldr	r3, [pc, #620]	@ (80096b4 <HAL_RCCEx_GetPLL1ClockFreq+0x28c>)
 8009448:	6adb      	ldr	r3, [r3, #44]	@ 0x2c
 800944a:	f003 0301 	and.w	r3, r3, #1
 800944e:	613b      	str	r3, [r7, #16]
 8009450:	4b98      	ldr	r3, [pc, #608]	@ (80096b4 <HAL_RCCEx_GetPLL1ClockFreq+0x28c>)
 8009452:	6b5b      	ldr	r3, [r3, #52]	@ 0x34
 8009454:	08db      	lsrs	r3, r3, #3
 8009456:	f3c3 030c 	ubfx	r3, r3, #0, #13
 800945a:	693a      	ldr	r2, [r7, #16]
 800945c:	fb02 f303 	mul.w	r3, r2, r3
 8009460:	ee07 3a90 	vmov	s15, r3
 8009464:	eef8 7a67 	vcvt.f32.u32	s15, s15
 8009468:	edc7 7a03 	vstr	s15, [r7, #12]
 800946c:	697b      	ldr	r3, [r7, #20]
 800946e:	2b00      	cmp	r3, #0
 8009470:	f000 8111 	beq.w	8009696 <HAL_RCCEx_GetPLL1ClockFreq+0x26e>
 8009474:	69bb      	ldr	r3, [r7, #24]
 8009476:	2b02      	cmp	r3, #2
 8009478:	f000 8083 	beq.w	8009582 <HAL_RCCEx_GetPLL1ClockFreq+0x15a>
 800947c:	69bb      	ldr	r3, [r7, #24]
 800947e:	2b02      	cmp	r3, #2
 8009480:	f200 80a1 	bhi.w	80095c6 <HAL_RCCEx_GetPLL1ClockFreq+0x19e>
 8009484:	69bb      	ldr	r3, [r7, #24]
 8009486:	2b00      	cmp	r3, #0
 8009488:	d003      	beq.n	8009492 <HAL_RCCEx_GetPLL1ClockFreq+0x6a>
 800948a:	69bb      	ldr	r3, [r7, #24]
 800948c:	2b01      	cmp	r3, #1
 800948e:	d056      	beq.n	800953e <HAL_RCCEx_GetPLL1ClockFreq+0x116>
 8009490:	e099      	b.n	80095c6 <HAL_RCCEx_GetPLL1ClockFreq+0x19e>
 8009492:	4b88      	ldr	r3, [pc, #544]	@ (80096b4 <HAL_RCCEx_GetPLL1ClockFreq+0x28c>)
 8009494:	681b      	ldr	r3, [r3, #0]
 8009496:	f003 0320 	and.w	r3, r3, #32
 800949a:	2b00      	cmp	r3, #0
 800949c:	d02d      	beq.n	80094fa <HAL_RCCEx_GetPLL1ClockFreq+0xd2>
 800949e:	4b85      	ldr	r3, [pc, #532]	@ (80096b4 <HAL_RCCEx_GetPLL1ClockFreq+0x28c>)
 80094a0:	681b      	ldr	r3, [r3, #0]
 80094a2:	08db      	lsrs	r3, r3, #3
 80094a4:	f003 0303 	and.w	r3, r3, #3
 80094a8:	4a83      	ldr	r2, [pc, #524]	@ (80096b8 <HAL_RCCEx_GetPLL1ClockFreq+0x290>)
 80094aa:	fa22 f303 	lsr.w	r3, r2, r3
 80094ae:	60bb      	str	r3, [r7, #8]
 80094b0:	68bb      	ldr	r3, [r7, #8]
 80094b2:	ee07 3a90 	vmov	s15, r3
 80094b6:	eef8 6a67 	vcvt.f32.u32	s13, s15
 80094ba:	697b      	ldr	r3, [r7, #20]
 80094bc:	ee07 3a90 	vmov	s15, r3
 80094c0:	eef8 7a67 	vcvt.f32.u32	s15, s15
 80094c4:	ee86 7aa7 	vdiv.f32	s14, s13, s15
 80094c8:	4b7a      	ldr	r3, [pc, #488]	@ (80096b4 <HAL_RCCEx_GetPLL1ClockFreq+0x28c>)
 80094ca:	6b1b      	ldr	r3, [r3, #48]	@ 0x30
 80094cc:	f3c3 0308 	ubfx	r3, r3, #0, #9
 80094d0:	ee07 3a90 	vmov	s15, r3
 80094d4:	eef8 6a67 	vcvt.f32.u32	s13, s15
 80094d8:	ed97 6a03 	vldr	s12, [r7, #12]
 80094dc:	eddf 5a77 	vldr	s11, [pc, #476]	@ 80096bc <HAL_RCCEx_GetPLL1ClockFreq+0x294>
 80094e0:	eec6 7a25 	vdiv.f32	s15, s12, s11
 80094e4:	ee76 7aa7 	vadd.f32	s15, s13, s15
 80094e8:	eef7 6a00 	vmov.f32	s13, #112	@ 0x3f800000  1.0
 80094ec:	ee77 7aa6 	vadd.f32	s15, s15, s13
 80094f0:	ee67 7a27 	vmul.f32	s15, s14, s15
 80094f4:	edc7 7a07 	vstr	s15, [r7, #28]
 80094f8:	e087      	b.n	800960a <HAL_RCCEx_GetPLL1ClockFreq+0x1e2>
 80094fa:	697b      	ldr	r3, [r7, #20]
 80094fc:	ee07 3a90 	vmov	s15, r3
 8009500:	eef8 7a67 	vcvt.f32.u32	s15, s15
 8009504:	eddf 6a6e 	vldr	s13, [pc, #440]	@ 80096c0 <HAL_RCCEx_GetPLL1ClockFreq+0x298>
 8009508:	ee86 7aa7 	vdiv.f32	s14, s13, s15
 800950c:	4b69      	ldr	r3, [pc, #420]	@ (80096b4 <HAL_RCCEx_GetPLL1ClockFreq+0x28c>)
 800950e:	6b1b      	ldr	r3, [r3, #48]	@ 0x30
 8009510:	f3c3 0308 	ubfx	r3, r3, #0, #9
 8009514:	ee07 3a90 	vmov	s15, r3
 8009518:	eef8 6a67 	vcvt.f32.u32	s13, s15
 800951c:	ed97 6a03 	vldr	s12, [r7, #12]
 8009520:	eddf 5a66 	vldr	s11, [pc, #408]	@ 80096bc <HAL_RCCEx_GetPLL1ClockFreq+0x294>
 8009524:	eec6 7a25 	vdiv.f32	s15, s12, s11
 8009528:	ee76 7aa7 	vadd.f32	s15, s13, s15
 800952c:	eef7 6a00 	vmov.f32	s13, #112	@ 0x3f800000  1.0
 8009530:	ee77 7aa6 	vadd.f32	s15, s15, s13
 8009534:	ee67 7a27 	vmul.f32	s15, s14, s15
 8009538:	edc7 7a07 	vstr	s15, [r7, #28]
 800953c:	e065      	b.n	800960a <HAL_RCCEx_GetPLL1ClockFreq+0x1e2>
 800953e:	697b      	ldr	r3, [r7, #20]
 8009540:	ee07 3a90 	vmov	s15, r3
 8009544:	eef8 7a67 	vcvt.f32.u32	s15, s15
 8009548:	eddf 6a5e 	vldr	s13, [pc, #376]	@ 80096c4 <HAL_RCCEx_GetPLL1ClockFreq+0x29c>
 800954c:	ee86 7aa7 	vdiv.f32	s14, s13, s15
 8009550:	4b58      	ldr	r3, [pc, #352]	@ (80096b4 <HAL_RCCEx_GetPLL1ClockFreq+0x28c>)
 8009552:	6b1b      	ldr	r3, [r3, #48]	@ 0x30
 8009554:	f3c3 0308 	ubfx	r3, r3, #0, #9
 8009558:	ee07 3a90 	vmov	s15, r3
 800955c:	eef8 6a67 	vcvt.f32.u32	s13, s15
 8009560:	ed97 6a03 	vldr	s12, [r7, #12]
 8009564:	eddf 5a55 	vldr	s11, [pc, #340]	@ 80096bc <HAL_RCCEx_GetPLL1ClockFreq+0x294>
 8009568:	eec6 7a25 	vdiv.f32	s15, s12, s11
 800956c:	ee76 7aa7 	vadd.f32	s15, s13, s15
 8009570:	eef7 6a00 	vmov.f32	s13, #112	@ 0x3f800000  1.0
 8009574:	ee77 7aa6 	vadd.f32	s15, s15, s13
 8009578:	ee67 7a27 	vmul.f32	s15, s14, s15
 800957c:	edc7 7a07 	vstr	s15, [r7, #28]
 8009580:	e043      	b.n	800960a <HAL_RCCEx_GetPLL1ClockFreq+0x1e2>
 8009582:	697b      	ldr	r3, [r7, #20]
 8009584:	ee07 3a90 	vmov	s15, r3
 8009588:	eef8 7a67 	vcvt.f32.u32	s15, s15
 800958c:	eddf 6a4e 	vldr	s13, [pc, #312]	@ 80096c8 <HAL_RCCEx_GetPLL1ClockFreq+0x2a0>
 8009590:	ee86 7aa7 	vdiv.f32	s14, s13, s15
 8009594:	4b47      	ldr	r3, [pc, #284]	@ (80096b4 <HAL_RCCEx_GetPLL1ClockFreq+0x28c>)
 8009596:	6b1b      	ldr	r3, [r3, #48]	@ 0x30
 8009598:	f3c3 0308 	ubfx	r3, r3, #0, #9
 800959c:	ee07 3a90 	vmov	s15, r3
 80095a0:	eef8 6a67 	vcvt.f32.u32	s13, s15
 80095a4:	ed97 6a03 	vldr	s12, [r7, #12]
 80095a8:	eddf 5a44 	vldr	s11, [pc, #272]	@ 80096bc <HAL_RCCEx_GetPLL1ClockFreq+0x294>
 80095ac:	eec6 7a25 	vdiv.f32	s15, s12, s11
 80095b0:	ee76 7aa7 	vadd.f32	s15, s13, s15
 80095b4:	eef7 6a00 	vmov.f32	s13, #112	@ 0x3f800000  1.0
 80095b8:	ee77 7aa6 	vadd.f32	s15, s15, s13
 80095bc:	ee67 7a27 	vmul.f32	s15, s14, s15
 80095c0:	edc7 7a07 	vstr	s15, [r7, #28]
 80095c4:	e021      	b.n	800960a <HAL_RCCEx_GetPLL1ClockFreq+0x1e2>
 80095c6:	697b      	ldr	r3, [r7, #20]
 80095c8:	ee07 3a90 	vmov	s15, r3
 80095cc:	eef8 7a67 	vcvt.f32.u32	s15, s15
 80095d0:	eddf 6a3b 	vldr	s13, [pc, #236]	@ 80096c0 <HAL_RCCEx_GetPLL1ClockFreq+0x298>
 80095d4:	ee86 7aa7 	vdiv.f32	s14, s13, s15
 80095d8:	4b36      	ldr	r3, [pc, #216]	@ (80096b4 <HAL_RCCEx_GetPLL1ClockFreq+0x28c>)
 80095da:	6b1b      	ldr	r3, [r3, #48]	@ 0x30
 80095dc:	f3c3 0308 	ubfx	r3, r3, #0, #9
 80095e0:	ee07 3a90 	vmov	s15, r3
 80095e4:	eef8 6a67 	vcvt.f32.u32	s13, s15
 80095e8:	ed97 6a03 	vldr	s12, [r7, #12]
 80095ec:	eddf 5a33 	vldr	s11, [pc, #204]	@ 80096bc <HAL_RCCEx_GetPLL1ClockFreq+0x294>
 80095f0:	eec6 7a25 	vdiv.f32	s15, s12, s11
 80095f4:	ee76 7aa7 	vadd.f32	s15, s13, s15
 80095f8:	eef7 6a00 	vmov.f32	s13, #112	@ 0x3f800000  1.0
 80095fc:	ee77 7aa6 	vadd.f32	s15, s15, s13
 8009600:	ee67 7a27 	vmul.f32	s15, s14, s15
 8009604:	edc7 7a07 	vstr	s15, [r7, #28]
 8009608:	bf00      	nop
 800960a:	4b2a      	ldr	r3, [pc, #168]	@ (80096b4 <HAL_RCCEx_GetPLL1ClockFreq+0x28c>)
 800960c:	6b1b      	ldr	r3, [r3, #48]	@ 0x30
 800960e:	0a5b      	lsrs	r3, r3, #9
 8009610:	f003 037f 	and.w	r3, r3, #127	@ 0x7f
 8009614:	ee07 3a90 	vmov	s15, r3
 8009618:	eef8 7a67 	vcvt.f32.u32	s15, s15
 800961c:	eeb7 7a00 	vmov.f32	s14, #112	@ 0x3f800000  1.0
 8009620:	ee37 7a87 	vadd.f32	s14, s15, s14
 8009624:	edd7 6a07 	vldr	s13, [r7, #28]
 8009628:	eec6 7a87 	vdiv.f32	s15, s13, s14
 800962c:	eefc 7ae7 	vcvt.u32.f32	s15, s15
 8009630:	ee17 2a90 	vmov	r2, s15
 8009634:	687b      	ldr	r3, [r7, #4]
 8009636:	601a      	str	r2, [r3, #0]
 8009638:	4b1e      	ldr	r3, [pc, #120]	@ (80096b4 <HAL_RCCEx_GetPLL1ClockFreq+0x28c>)
 800963a:	6b1b      	ldr	r3, [r3, #48]	@ 0x30
 800963c:	0c1b      	lsrs	r3, r3, #16
 800963e:	f003 037f 	and.w	r3, r3, #127	@ 0x7f
 8009642:	ee07 3a90 	vmov	s15, r3
 8009646:	eef8 7a67 	vcvt.f32.u32	s15, s15
 800964a:	eeb7 7a00 	vmov.f32	s14, #112	@ 0x3f800000  1.0
 800964e:	ee37 7a87 	vadd.f32	s14, s15, s14
 8009652:	edd7 6a07 	vldr	s13, [r7, #28]
 8009656:	eec6 7a87 	vdiv.f32	s15, s13, s14
 800965a:	eefc 7ae7 	vcvt.u32.f32	s15, s15
 800965e:	ee17 2a90 	vmov	r2, s15
 8009662:	687b      	ldr	r3, [r7, #4]
 8009664:	605a      	str	r2, [r3, #4]
 8009666:	4b13      	ldr	r3, [pc, #76]	@ (80096b4 <HAL_RCCEx_GetPLL1ClockFreq+0x28c>)
 8009668:	6b1b      	ldr	r3, [r3, #48]	@ 0x30
 800966a:	0e1b      	lsrs	r3, r3, #24
 800966c:	f003 037f 	and.w	r3, r3, #127	@ 0x7f
 8009670:	ee07 3a90 	vmov	s15, r3
 8009674:	eef8 7a67 	vcvt.f32.u32	s15, s15
 8009678:	eeb7 7a00 	vmov.f32	s14, #112	@ 0x3f800000  1.0
 800967c:	ee37 7a87 	vadd.f32	s14, s15, s14
 8009680:	edd7 6a07 	vldr	s13, [r7, #28]
 8009684:	eec6 7a87 	vdiv.f32	s15, s13, s14
 8009688:	eefc 7ae7 	vcvt.u32.f32	s15, s15
 800968c:	ee17 2a90 	vmov	r2, s15
 8009690:	687b      	ldr	r3, [r7, #4]
 8009692:	609a      	str	r2, [r3, #8]
 8009694:	e008      	b.n	80096a8 <HAL_RCCEx_GetPLL1ClockFreq+0x280>
 8009696:	687b      	ldr	r3, [r7, #4]
 8009698:	2200      	movs	r2, #0
 800969a:	601a      	str	r2, [r3, #0]
 800969c:	687b      	ldr	r3, [r7, #4]
 800969e:	2200      	movs	r2, #0
 80096a0:	605a      	str	r2, [r3, #4]
 80096a2:	687b      	ldr	r3, [r7, #4]
 80096a4:	2200      	movs	r2, #0
 80096a6:	609a      	str	r2, [r3, #8]
 80096a8:	bf00      	nop
 80096aa:	3724      	adds	r7, #36	@ 0x24
 80096ac:	46bd      	mov	sp, r7
 80096ae:	f85d 7b04 	ldr.w	r7, [sp], #4
 80096b2:	4770      	bx	lr
 80096b4:	58024400 	.word	0x58024400
 80096b8:	03d09000 	.word	0x03d09000
 80096bc:	46000000 	.word	0x46000000
 80096c0:	4c742400 	.word	0x4c742400
 80096c4:	4a742400 	.word	0x4a742400
 80096c8:	4af42400 	.word	0x4af42400

080096cc <HAL_RCCEx_CRSConfig>:
 80096cc:	b580      	push	{r7, lr}
 80096ce:	b084      	sub	sp, #16
 80096d0:	af00      	add	r7, sp, #0
 80096d2:	6078      	str	r0, [r7, #4]
 80096d4:	4b26      	ldr	r3, [pc, #152]	@ (8009770 <HAL_RCCEx_CRSConfig+0xa4>)
 80096d6:	f8d3 3094 	ldr.w	r3, [r3, #148]	@ 0x94
 80096da:	4a25      	ldr	r2, [pc, #148]	@ (8009770 <HAL_RCCEx_CRSConfig+0xa4>)
 80096dc:	f043 0302 	orr.w	r3, r3, #2
 80096e0:	f8c2 3094 	str.w	r3, [r2, #148]	@ 0x94
 80096e4:	4b22      	ldr	r3, [pc, #136]	@ (8009770 <HAL_RCCEx_CRSConfig+0xa4>)
 80096e6:	f8d3 3094 	ldr.w	r3, [r3, #148]	@ 0x94
 80096ea:	4a21      	ldr	r2, [pc, #132]	@ (8009770 <HAL_RCCEx_CRSConfig+0xa4>)
 80096ec:	f023 0302 	bic.w	r3, r3, #2
 80096f0:	f8c2 3094 	str.w	r3, [r2, #148]	@ 0x94
 80096f4:	f7f7 fd9c 	bl	8001230 <HAL_GetREVID>
 80096f8:	4603      	mov	r3, r0
 80096fa:	f241 0203 	movw	r2, #4099	@ 0x1003
 80096fe:	4293      	cmp	r3, r2
 8009700:	d80b      	bhi.n	800971a <HAL_RCCEx_CRSConfig+0x4e>
 8009702:	687b      	ldr	r3, [r7, #4]
 8009704:	685b      	ldr	r3, [r3, #4]
 8009706:	f1b3 5f40 	cmp.w	r3, #805306368	@ 0x30000000
 800970a:	d106      	bne.n	800971a <HAL_RCCEx_CRSConfig+0x4e>
 800970c:	687b      	ldr	r3, [r7, #4]
 800970e:	681a      	ldr	r2, [r3, #0]
 8009710:	687b      	ldr	r3, [r7, #4]
 8009712:	689b      	ldr	r3, [r3, #8]
 8009714:	4313      	orrs	r3, r2
 8009716:	60fb      	str	r3, [r7, #12]
 8009718:	e008      	b.n	800972c <HAL_RCCEx_CRSConfig+0x60>
 800971a:	687b      	ldr	r3, [r7, #4]
 800971c:	681a      	ldr	r2, [r3, #0]
 800971e:	687b      	ldr	r3, [r7, #4]
 8009720:	685b      	ldr	r3, [r3, #4]
 8009722:	431a      	orrs	r2, r3
 8009724:	687b      	ldr	r3, [r7, #4]
 8009726:	689b      	ldr	r3, [r3, #8]
 8009728:	4313      	orrs	r3, r2
 800972a:	60fb      	str	r3, [r7, #12]
 800972c:	687b      	ldr	r3, [r7, #4]
 800972e:	68db      	ldr	r3, [r3, #12]
 8009730:	68fa      	ldr	r2, [r7, #12]
 8009732:	4313      	orrs	r3, r2
 8009734:	60fb      	str	r3, [r7, #12]
 8009736:	687b      	ldr	r3, [r7, #4]
 8009738:	691b      	ldr	r3, [r3, #16]
 800973a:	041b      	lsls	r3, r3, #16
 800973c:	68fa      	ldr	r2, [r7, #12]
 800973e:	4313      	orrs	r3, r2
 8009740:	60fb      	str	r3, [r7, #12]
 8009742:	4a0c      	ldr	r2, [pc, #48]	@ (8009774 <HAL_RCCEx_CRSConfig+0xa8>)
 8009744:	68fb      	ldr	r3, [r7, #12]
 8009746:	6053      	str	r3, [r2, #4]
 8009748:	4b0a      	ldr	r3, [pc, #40]	@ (8009774 <HAL_RCCEx_CRSConfig+0xa8>)
 800974a:	681b      	ldr	r3, [r3, #0]
 800974c:	f423 527c 	bic.w	r2, r3, #16128	@ 0x3f00
 8009750:	687b      	ldr	r3, [r7, #4]
 8009752:	695b      	ldr	r3, [r3, #20]
 8009754:	021b      	lsls	r3, r3, #8
 8009756:	4907      	ldr	r1, [pc, #28]	@ (8009774 <HAL_RCCEx_CRSConfig+0xa8>)
 8009758:	4313      	orrs	r3, r2
 800975a:	600b      	str	r3, [r1, #0]
 800975c:	4b05      	ldr	r3, [pc, #20]	@ (8009774 <HAL_RCCEx_CRSConfig+0xa8>)
 800975e:	681b      	ldr	r3, [r3, #0]
 8009760:	4a04      	ldr	r2, [pc, #16]	@ (8009774 <HAL_RCCEx_CRSConfig+0xa8>)
 8009762:	f043 0360 	orr.w	r3, r3, #96	@ 0x60
 8009766:	6013      	str	r3, [r2, #0]
 8009768:	bf00      	nop
 800976a:	3710      	adds	r7, #16
 800976c:	46bd      	mov	sp, r7
 800976e:	bd80      	pop	{r7, pc}
 8009770:	58024400 	.word	0x58024400
 8009774:	40008400 	.word	0x40008400

08009778 <RCCEx_PLL2_Config>:
 8009778:	b580      	push	{r7, lr}
 800977a:	b084      	sub	sp, #16
 800977c:	af00      	add	r7, sp, #0
 800977e:	6078      	str	r0, [r7, #4]
 8009780:	6039      	str	r1, [r7, #0]
 8009782:	2300      	movs	r3, #0
 8009784:	73fb      	strb	r3, [r7, #15]
 8009786:	4b53      	ldr	r3, [pc, #332]	@ (80098d4 <RCCEx_PLL2_Config+0x15c>)
 8009788:	6a9b      	ldr	r3, [r3, #40]	@ 0x28
 800978a:	f003 0303 	and.w	r3, r3, #3
 800978e:	2b03      	cmp	r3, #3
 8009790:	d101      	bne.n	8009796 <RCCEx_PLL2_Config+0x1e>
 8009792:	2301      	movs	r3, #1
 8009794:	e099      	b.n	80098ca <RCCEx_PLL2_Config+0x152>
 8009796:	4b4f      	ldr	r3, [pc, #316]	@ (80098d4 <RCCEx_PLL2_Config+0x15c>)
 8009798:	681b      	ldr	r3, [r3, #0]
 800979a:	4a4e      	ldr	r2, [pc, #312]	@ (80098d4 <RCCEx_PLL2_Config+0x15c>)
 800979c:	f023 6380 	bic.w	r3, r3, #67108864	@ 0x4000000
 80097a0:	6013      	str	r3, [r2, #0]
 80097a2:	f7f7 fd39 	bl	8001218 <HAL_GetTick>
 80097a6:	60b8      	str	r0, [r7, #8]
 80097a8:	e008      	b.n	80097bc <RCCEx_PLL2_Config+0x44>
 80097aa:	f7f7 fd35 	bl	8001218 <HAL_GetTick>
 80097ae:	4602      	mov	r2, r0
 80097b0:	68bb      	ldr	r3, [r7, #8]
 80097b2:	1ad3      	subs	r3, r2, r3
 80097b4:	2b02      	cmp	r3, #2
 80097b6:	d901      	bls.n	80097bc <RCCEx_PLL2_Config+0x44>
 80097b8:	2303      	movs	r3, #3
 80097ba:	e086      	b.n	80098ca <RCCEx_PLL2_Config+0x152>
 80097bc:	4b45      	ldr	r3, [pc, #276]	@ (80098d4 <RCCEx_PLL2_Config+0x15c>)
 80097be:	681b      	ldr	r3, [r3, #0]
 80097c0:	f003 6300 	and.w	r3, r3, #134217728	@ 0x8000000
 80097c4:	2b00      	cmp	r3, #0
 80097c6:	d1f0      	bne.n	80097aa <RCCEx_PLL2_Config+0x32>
 80097c8:	4b42      	ldr	r3, [pc, #264]	@ (80098d4 <RCCEx_PLL2_Config+0x15c>)
 80097ca:	6a9b      	ldr	r3, [r3, #40]	@ 0x28
 80097cc:	f423 327c 	bic.w	r2, r3, #258048	@ 0x3f000
 80097d0:	687b      	ldr	r3, [r7, #4]
 80097d2:	681b      	ldr	r3, [r3, #0]
 80097d4:	031b      	lsls	r3, r3, #12
 80097d6:	493f      	ldr	r1, [pc, #252]	@ (80098d4 <RCCEx_PLL2_Config+0x15c>)
 80097d8:	4313      	orrs	r3, r2
 80097da:	628b      	str	r3, [r1, #40]	@ 0x28
 80097dc:	687b      	ldr	r3, [r7, #4]
 80097de:	685b      	ldr	r3, [r3, #4]
 80097e0:	3b01      	subs	r3, #1
 80097e2:	f3c3 0208 	ubfx	r2, r3, #0, #9
 80097e6:	687b      	ldr	r3, [r7, #4]
 80097e8:	689b      	ldr	r3, [r3, #8]
 80097ea:	3b01      	subs	r3, #1
 80097ec:	025b      	lsls	r3, r3, #9
 80097ee:	b29b      	uxth	r3, r3
 80097f0:	431a      	orrs	r2, r3
 80097f2:	687b      	ldr	r3, [r7, #4]
 80097f4:	68db      	ldr	r3, [r3, #12]
 80097f6:	3b01      	subs	r3, #1
 80097f8:	041b      	lsls	r3, r3, #16
 80097fa:	f403 03fe 	and.w	r3, r3, #8323072	@ 0x7f0000
 80097fe:	431a      	orrs	r2, r3
 8009800:	687b      	ldr	r3, [r7, #4]
 8009802:	691b      	ldr	r3, [r3, #16]
 8009804:	3b01      	subs	r3, #1
 8009806:	061b      	lsls	r3, r3, #24
 8009808:	f003 43fe 	and.w	r3, r3, #2130706432	@ 0x7f000000
 800980c:	4931      	ldr	r1, [pc, #196]	@ (80098d4 <RCCEx_PLL2_Config+0x15c>)
 800980e:	4313      	orrs	r3, r2
 8009810:	638b      	str	r3, [r1, #56]	@ 0x38
 8009812:	4b30      	ldr	r3, [pc, #192]	@ (80098d4 <RCCEx_PLL2_Config+0x15c>)
 8009814:	6adb      	ldr	r3, [r3, #44]	@ 0x2c
 8009816:	f023 02c0 	bic.w	r2, r3, #192	@ 0xc0
 800981a:	687b      	ldr	r3, [r7, #4]
 800981c:	695b      	ldr	r3, [r3, #20]
 800981e:	492d      	ldr	r1, [pc, #180]	@ (80098d4 <RCCEx_PLL2_Config+0x15c>)
 8009820:	4313      	orrs	r3, r2
 8009822:	62cb      	str	r3, [r1, #44]	@ 0x2c
 8009824:	4b2b      	ldr	r3, [pc, #172]	@ (80098d4 <RCCEx_PLL2_Config+0x15c>)
 8009826:	6adb      	ldr	r3, [r3, #44]	@ 0x2c
 8009828:	f023 0220 	bic.w	r2, r3, #32
 800982c:	687b      	ldr	r3, [r7, #4]
 800982e:	699b      	ldr	r3, [r3, #24]
 8009830:	4928      	ldr	r1, [pc, #160]	@ (80098d4 <RCCEx_PLL2_Config+0x15c>)
 8009832:	4313      	orrs	r3, r2
 8009834:	62cb      	str	r3, [r1, #44]	@ 0x2c
 8009836:	4b27      	ldr	r3, [pc, #156]	@ (80098d4 <RCCEx_PLL2_Config+0x15c>)
 8009838:	6adb      	ldr	r3, [r3, #44]	@ 0x2c
 800983a:	4a26      	ldr	r2, [pc, #152]	@ (80098d4 <RCCEx_PLL2_Config+0x15c>)
 800983c:	f023 0310 	bic.w	r3, r3, #16
 8009840:	62d3      	str	r3, [r2, #44]	@ 0x2c
 8009842:	4b24      	ldr	r3, [pc, #144]	@ (80098d4 <RCCEx_PLL2_Config+0x15c>)
 8009844:	6bda      	ldr	r2, [r3, #60]	@ 0x3c
 8009846:	4b24      	ldr	r3, [pc, #144]	@ (80098d8 <RCCEx_PLL2_Config+0x160>)
 8009848:	4013      	ands	r3, r2
 800984a:	687a      	ldr	r2, [r7, #4]
 800984c:	69d2      	ldr	r2, [r2, #28]
 800984e:	00d2      	lsls	r2, r2, #3
 8009850:	4920      	ldr	r1, [pc, #128]	@ (80098d4 <RCCEx_PLL2_Config+0x15c>)
 8009852:	4313      	orrs	r3, r2
 8009854:	63cb      	str	r3, [r1, #60]	@ 0x3c
 8009856:	4b1f      	ldr	r3, [pc, #124]	@ (80098d4 <RCCEx_PLL2_Config+0x15c>)
 8009858:	6adb      	ldr	r3, [r3, #44]	@ 0x2c
 800985a:	4a1e      	ldr	r2, [pc, #120]	@ (80098d4 <RCCEx_PLL2_Config+0x15c>)
 800985c:	f043 0310 	orr.w	r3, r3, #16
 8009860:	62d3      	str	r3, [r2, #44]	@ 0x2c
 8009862:	683b      	ldr	r3, [r7, #0]
 8009864:	2b00      	cmp	r3, #0
 8009866:	d106      	bne.n	8009876 <RCCEx_PLL2_Config+0xfe>
 8009868:	4b1a      	ldr	r3, [pc, #104]	@ (80098d4 <RCCEx_PLL2_Config+0x15c>)
 800986a:	6adb      	ldr	r3, [r3, #44]	@ 0x2c
 800986c:	4a19      	ldr	r2, [pc, #100]	@ (80098d4 <RCCEx_PLL2_Config+0x15c>)
 800986e:	f443 2300 	orr.w	r3, r3, #524288	@ 0x80000
 8009872:	62d3      	str	r3, [r2, #44]	@ 0x2c
 8009874:	e00f      	b.n	8009896 <RCCEx_PLL2_Config+0x11e>
 8009876:	683b      	ldr	r3, [r7, #0]
 8009878:	2b01      	cmp	r3, #1
 800987a:	d106      	bne.n	800988a <RCCEx_PLL2_Config+0x112>
 800987c:	4b15      	ldr	r3, [pc, #84]	@ (80098d4 <RCCEx_PLL2_Config+0x15c>)
 800987e:	6adb      	ldr	r3, [r3, #44]	@ 0x2c
 8009880:	4a14      	ldr	r2, [pc, #80]	@ (80098d4 <RCCEx_PLL2_Config+0x15c>)
 8009882:	f443 1380 	orr.w	r3, r3, #1048576	@ 0x100000
 8009886:	62d3      	str	r3, [r2, #44]	@ 0x2c
 8009888:	e005      	b.n	8009896 <RCCEx_PLL2_Config+0x11e>
 800988a:	4b12      	ldr	r3, [pc, #72]	@ (80098d4 <RCCEx_PLL2_Config+0x15c>)
 800988c:	6adb      	ldr	r3, [r3, #44]	@ 0x2c
 800988e:	4a11      	ldr	r2, [pc, #68]	@ (80098d4 <RCCEx_PLL2_Config+0x15c>)
 8009890:	f443 1300 	orr.w	r3, r3, #2097152	@ 0x200000
 8009894:	62d3      	str	r3, [r2, #44]	@ 0x2c
 8009896:	4b0f      	ldr	r3, [pc, #60]	@ (80098d4 <RCCEx_PLL2_Config+0x15c>)
 8009898:	681b      	ldr	r3, [r3, #0]
 800989a:	4a0e      	ldr	r2, [pc, #56]	@ (80098d4 <RCCEx_PLL2_Config+0x15c>)
 800989c:	f043 6380 	orr.w	r3, r3, #67108864	@ 0x4000000
 80098a0:	6013      	str	r3, [r2, #0]
 80098a2:	f7f7 fcb9 	bl	8001218 <HAL_GetTick>
 80098a6:	60b8      	str	r0, [r7, #8]
 80098a8:	e008      	b.n	80098bc <RCCEx_PLL2_Config+0x144>
 80098aa:	f7f7 fcb5 	bl	8001218 <HAL_GetTick>
 80098ae:	4602      	mov	r2, r0
 80098b0:	68bb      	ldr	r3, [r7, #8]
 80098b2:	1ad3      	subs	r3, r2, r3
 80098b4:	2b02      	cmp	r3, #2
 80098b6:	d901      	bls.n	80098bc <RCCEx_PLL2_Config+0x144>
 80098b8:	2303      	movs	r3, #3
 80098ba:	e006      	b.n	80098ca <RCCEx_PLL2_Config+0x152>
 80098bc:	4b05      	ldr	r3, [pc, #20]	@ (80098d4 <RCCEx_PLL2_Config+0x15c>)
 80098be:	681b      	ldr	r3, [r3, #0]
 80098c0:	f003 6300 	and.w	r3, r3, #134217728	@ 0x8000000
 80098c4:	2b00      	cmp	r3, #0
 80098c6:	d0f0      	beq.n	80098aa <RCCEx_PLL2_Config+0x132>
 80098c8:	7bfb      	ldrb	r3, [r7, #15]
 80098ca:	4618      	mov	r0, r3
 80098cc:	3710      	adds	r7, #16
 80098ce:	46bd      	mov	sp, r7
 80098d0:	bd80      	pop	{r7, pc}
 80098d2:	bf00      	nop
 80098d4:	58024400 	.word	0x58024400
 80098d8:	ffff0007 	.word	0xffff0007

080098dc <RCCEx_PLL3_Config>:
 80098dc:	b580      	push	{r7, lr}
 80098de:	b084      	sub	sp, #16
 80098e0:	af00      	add	r7, sp, #0
 80098e2:	6078      	str	r0, [r7, #4]
 80098e4:	6039      	str	r1, [r7, #0]
 80098e6:	2300      	movs	r3, #0
 80098e8:	73fb      	strb	r3, [r7, #15]
 80098ea:	4b53      	ldr	r3, [pc, #332]	@ (8009a38 <RCCEx_PLL3_Config+0x15c>)
 80098ec:	6a9b      	ldr	r3, [r3, #40]	@ 0x28
 80098ee:	f003 0303 	and.w	r3, r3, #3
 80098f2:	2b03      	cmp	r3, #3
 80098f4:	d101      	bne.n	80098fa <RCCEx_PLL3_Config+0x1e>
 80098f6:	2301      	movs	r3, #1
 80098f8:	e099      	b.n	8009a2e <RCCEx_PLL3_Config+0x152>
 80098fa:	4b4f      	ldr	r3, [pc, #316]	@ (8009a38 <RCCEx_PLL3_Config+0x15c>)
 80098fc:	681b      	ldr	r3, [r3, #0]
 80098fe:	4a4e      	ldr	r2, [pc, #312]	@ (8009a38 <RCCEx_PLL3_Config+0x15c>)
 8009900:	f023 5380 	bic.w	r3, r3, #268435456	@ 0x10000000
 8009904:	6013      	str	r3, [r2, #0]
 8009906:	f7f7 fc87 	bl	8001218 <HAL_GetTick>
 800990a:	60b8      	str	r0, [r7, #8]
 800990c:	e008      	b.n	8009920 <RCCEx_PLL3_Config+0x44>
 800990e:	f7f7 fc83 	bl	8001218 <HAL_GetTick>
 8009912:	4602      	mov	r2, r0
 8009914:	68bb      	ldr	r3, [r7, #8]
 8009916:	1ad3      	subs	r3, r2, r3
 8009918:	2b02      	cmp	r3, #2
 800991a:	d901      	bls.n	8009920 <RCCEx_PLL3_Config+0x44>
 800991c:	2303      	movs	r3, #3
 800991e:	e086      	b.n	8009a2e <RCCEx_PLL3_Config+0x152>
 8009920:	4b45      	ldr	r3, [pc, #276]	@ (8009a38 <RCCEx_PLL3_Config+0x15c>)
 8009922:	681b      	ldr	r3, [r3, #0]
 8009924:	f003 5300 	and.w	r3, r3, #536870912	@ 0x20000000
 8009928:	2b00      	cmp	r3, #0
 800992a:	d1f0      	bne.n	800990e <RCCEx_PLL3_Config+0x32>
 800992c:	4b42      	ldr	r3, [pc, #264]	@ (8009a38 <RCCEx_PLL3_Config+0x15c>)
 800992e:	6a9b      	ldr	r3, [r3, #40]	@ 0x28
 8009930:	f023 727c 	bic.w	r2, r3, #66060288	@ 0x3f00000
 8009934:	687b      	ldr	r3, [r7, #4]
 8009936:	681b      	ldr	r3, [r3, #0]
 8009938:	051b      	lsls	r3, r3, #20
 800993a:	493f      	ldr	r1, [pc, #252]	@ (8009a38 <RCCEx_PLL3_Config+0x15c>)
 800993c:	4313      	orrs	r3, r2
 800993e:	628b      	str	r3, [r1, #40]	@ 0x28
 8009940:	687b      	ldr	r3, [r7, #4]
 8009942:	685b      	ldr	r3, [r3, #4]
 8009944:	3b01      	subs	r3, #1
 8009946:	f3c3 0208 	ubfx	r2, r3, #0, #9
 800994a:	687b      	ldr	r3, [r7, #4]
 800994c:	689b      	ldr	r3, [r3, #8]
 800994e:	3b01      	subs	r3, #1
 8009950:	025b      	lsls	r3, r3, #9
 8009952:	b29b      	uxth	r3, r3
 8009954:	431a      	orrs	r2, r3
 8009956:	687b      	ldr	r3, [r7, #4]
 8009958:	68db      	ldr	r3, [r3, #12]
 800995a:	3b01      	subs	r3, #1
 800995c:	041b      	lsls	r3, r3, #16
 800995e:	f403 03fe 	and.w	r3, r3, #8323072	@ 0x7f0000
 8009962:	431a      	orrs	r2, r3
 8009964:	687b      	ldr	r3, [r7, #4]
 8009966:	691b      	ldr	r3, [r3, #16]
 8009968:	3b01      	subs	r3, #1
 800996a:	061b      	lsls	r3, r3, #24
 800996c:	f003 43fe 	and.w	r3, r3, #2130706432	@ 0x7f000000
 8009970:	4931      	ldr	r1, [pc, #196]	@ (8009a38 <RCCEx_PLL3_Config+0x15c>)
 8009972:	4313      	orrs	r3, r2
 8009974:	640b      	str	r3, [r1, #64]	@ 0x40
 8009976:	4b30      	ldr	r3, [pc, #192]	@ (8009a38 <RCCEx_PLL3_Config+0x15c>)
 8009978:	6adb      	ldr	r3, [r3, #44]	@ 0x2c
 800997a:	f423 6240 	bic.w	r2, r3, #3072	@ 0xc00
 800997e:	687b      	ldr	r3, [r7, #4]
 8009980:	695b      	ldr	r3, [r3, #20]
 8009982:	492d      	ldr	r1, [pc, #180]	@ (8009a38 <RCCEx_PLL3_Config+0x15c>)
 8009984:	4313      	orrs	r3, r2
 8009986:	62cb      	str	r3, [r1, #44]	@ 0x2c
 8009988:	4b2b      	ldr	r3, [pc, #172]	@ (8009a38 <RCCEx_PLL3_Config+0x15c>)
 800998a:	6adb      	ldr	r3, [r3, #44]	@ 0x2c
 800998c:	f423 7200 	bic.w	r2, r3, #512	@ 0x200
 8009990:	687b      	ldr	r3, [r7, #4]
 8009992:	699b      	ldr	r3, [r3, #24]
 8009994:	4928      	ldr	r1, [pc, #160]	@ (8009a38 <RCCEx_PLL3_Config+0x15c>)
 8009996:	4313      	orrs	r3, r2
 8009998:	62cb      	str	r3, [r1, #44]	@ 0x2c
 800999a:	4b27      	ldr	r3, [pc, #156]	@ (8009a38 <RCCEx_PLL3_Config+0x15c>)
 800999c:	6adb      	ldr	r3, [r3, #44]	@ 0x2c
 800999e:	4a26      	ldr	r2, [pc, #152]	@ (8009a38 <RCCEx_PLL3_Config+0x15c>)
 80099a0:	f423 7380 	bic.w	r3, r3, #256	@ 0x100
 80099a4:	62d3      	str	r3, [r2, #44]	@ 0x2c
 80099a6:	4b24      	ldr	r3, [pc, #144]	@ (8009a38 <RCCEx_PLL3_Config+0x15c>)
 80099a8:	6c5a      	ldr	r2, [r3, #68]	@ 0x44
 80099aa:	4b24      	ldr	r3, [pc, #144]	@ (8009a3c <RCCEx_PLL3_Config+0x160>)
 80099ac:	4013      	ands	r3, r2
 80099ae:	687a      	ldr	r2, [r7, #4]
 80099b0:	69d2      	ldr	r2, [r2, #28]
 80099b2:	00d2      	lsls	r2, r2, #3
 80099b4:	4920      	ldr	r1, [pc, #128]	@ (8009a38 <RCCEx_PLL3_Config+0x15c>)
 80099b6:	4313      	orrs	r3, r2
 80099b8:	644b      	str	r3, [r1, #68]	@ 0x44
 80099ba:	4b1f      	ldr	r3, [pc, #124]	@ (8009a38 <RCCEx_PLL3_Config+0x15c>)
 80099bc:	6adb      	ldr	r3, [r3, #44]	@ 0x2c
 80099be:	4a1e      	ldr	r2, [pc, #120]	@ (8009a38 <RCCEx_PLL3_Config+0x15c>)
 80099c0:	f443 7380 	orr.w	r3, r3, #256	@ 0x100
 80099c4:	62d3      	str	r3, [r2, #44]	@ 0x2c
 80099c6:	683b      	ldr	r3, [r7, #0]
 80099c8:	2b00      	cmp	r3, #0
 80099ca:	d106      	bne.n	80099da <RCCEx_PLL3_Config+0xfe>
 80099cc:	4b1a      	ldr	r3, [pc, #104]	@ (8009a38 <RCCEx_PLL3_Config+0x15c>)
 80099ce:	6adb      	ldr	r3, [r3, #44]	@ 0x2c
 80099d0:	4a19      	ldr	r2, [pc, #100]	@ (8009a38 <RCCEx_PLL3_Config+0x15c>)
 80099d2:	f443 0380 	orr.w	r3, r3, #4194304	@ 0x400000
 80099d6:	62d3      	str	r3, [r2, #44]	@ 0x2c
 80099d8:	e00f      	b.n	80099fa <RCCEx_PLL3_Config+0x11e>
 80099da:	683b      	ldr	r3, [r7, #0]
 80099dc:	2b01      	cmp	r3, #1
 80099de:	d106      	bne.n	80099ee <RCCEx_PLL3_Config+0x112>
 80099e0:	4b15      	ldr	r3, [pc, #84]	@ (8009a38 <RCCEx_PLL3_Config+0x15c>)
 80099e2:	6adb      	ldr	r3, [r3, #44]	@ 0x2c
 80099e4:	4a14      	ldr	r2, [pc, #80]	@ (8009a38 <RCCEx_PLL3_Config+0x15c>)
 80099e6:	f443 0300 	orr.w	r3, r3, #8388608	@ 0x800000
 80099ea:	62d3      	str	r3, [r2, #44]	@ 0x2c
 80099ec:	e005      	b.n	80099fa <RCCEx_PLL3_Config+0x11e>
 80099ee:	4b12      	ldr	r3, [pc, #72]	@ (8009a38 <RCCEx_PLL3_Config+0x15c>)
 80099f0:	6adb      	ldr	r3, [r3, #44]	@ 0x2c
 80099f2:	4a11      	ldr	r2, [pc, #68]	@ (8009a38 <RCCEx_PLL3_Config+0x15c>)
 80099f4:	f043 7380 	orr.w	r3, r3, #16777216	@ 0x1000000
 80099f8:	62d3      	str	r3, [r2, #44]	@ 0x2c
 80099fa:	4b0f      	ldr	r3, [pc, #60]	@ (8009a38 <RCCEx_PLL3_Config+0x15c>)
 80099fc:	681b      	ldr	r3, [r3, #0]
 80099fe:	4a0e      	ldr	r2, [pc, #56]	@ (8009a38 <RCCEx_PLL3_Config+0x15c>)
 8009a00:	f043 5380 	orr.w	r3, r3, #268435456	@ 0x10000000
 8009a04:	6013      	str	r3, [r2, #0]
 8009a06:	f7f7 fc07 	bl	8001218 <HAL_GetTick>
 8009a0a:	60b8      	str	r0, [r7, #8]
 8009a0c:	e008      	b.n	8009a20 <RCCEx_PLL3_Config+0x144>
 8009a0e:	f7f7 fc03 	bl	8001218 <HAL_GetTick>
 8009a12:	4602      	mov	r2, r0
 8009a14:	68bb      	ldr	r3, [r7, #8]
 8009a16:	1ad3      	subs	r3, r2, r3
 8009a18:	2b02      	cmp	r3, #2
 8009a1a:	d901      	bls.n	8009a20 <RCCEx_PLL3_Config+0x144>
 8009a1c:	2303      	movs	r3, #3
 8009a1e:	e006      	b.n	8009a2e <RCCEx_PLL3_Config+0x152>
 8009a20:	4b05      	ldr	r3, [pc, #20]	@ (8009a38 <RCCEx_PLL3_Config+0x15c>)
 8009a22:	681b      	ldr	r3, [r3, #0]
 8009a24:	f003 5300 	and.w	r3, r3, #536870912	@ 0x20000000
 8009a28:	2b00      	cmp	r3, #0
 8009a2a:	d0f0      	beq.n	8009a0e <RCCEx_PLL3_Config+0x132>
 8009a2c:	7bfb      	ldrb	r3, [r7, #15]
 8009a2e:	4618      	mov	r0, r3
 8009a30:	3710      	adds	r7, #16
 8009a32:	46bd      	mov	sp, r7
 8009a34:	bd80      	pop	{r7, pc}
 8009a36:	bf00      	nop
 8009a38:	58024400 	.word	0x58024400
 8009a3c:	ffff0007 	.word	0xffff0007

08009a40 <HAL_UART_Init>:
 8009a40:	b580      	push	{r7, lr}
 8009a42:	b082      	sub	sp, #8
 8009a44:	af00      	add	r7, sp, #0
 8009a46:	6078      	str	r0, [r7, #4]
 8009a48:	687b      	ldr	r3, [r7, #4]
 8009a4a:	2b00      	cmp	r3, #0
 8009a4c:	d101      	bne.n	8009a52 <HAL_UART_Init+0x12>
 8009a4e:	2301      	movs	r3, #1
 8009a50:	e042      	b.n	8009ad8 <HAL_UART_Init+0x98>
 8009a52:	687b      	ldr	r3, [r7, #4]
 8009a54:	f8d3 3088 	ldr.w	r3, [r3, #136]	@ 0x88
 8009a58:	2b00      	cmp	r3, #0
 8009a5a:	d106      	bne.n	8009a6a <HAL_UART_Init+0x2a>
 8009a5c:	687b      	ldr	r3, [r7, #4]
 8009a5e:	2200      	movs	r2, #0
 8009a60:	f883 2084 	strb.w	r2, [r3, #132]	@ 0x84
 8009a64:	6878      	ldr	r0, [r7, #4]
 8009a66:	f7f7 f9eb 	bl	8000e40 <HAL_UART_MspInit>
 8009a6a:	687b      	ldr	r3, [r7, #4]
 8009a6c:	2224      	movs	r2, #36	@ 0x24
 8009a6e:	f8c3 2088 	str.w	r2, [r3, #136]	@ 0x88
 8009a72:	687b      	ldr	r3, [r7, #4]
 8009a74:	681b      	ldr	r3, [r3, #0]
 8009a76:	681a      	ldr	r2, [r3, #0]
 8009a78:	687b      	ldr	r3, [r7, #4]
 8009a7a:	681b      	ldr	r3, [r3, #0]
 8009a7c:	f022 0201 	bic.w	r2, r2, #1
 8009a80:	601a      	str	r2, [r3, #0]
 8009a82:	687b      	ldr	r3, [r7, #4]
 8009a84:	6a9b      	ldr	r3, [r3, #40]	@ 0x28
 8009a86:	2b00      	cmp	r3, #0
 8009a88:	d002      	beq.n	8009a90 <HAL_UART_Init+0x50>
 8009a8a:	6878      	ldr	r0, [r7, #4]
 8009a8c:	f001 fa6e 	bl	800af6c <UART_AdvFeatureConfig>
 8009a90:	6878      	ldr	r0, [r7, #4]
 8009a92:	f000 fbff 	bl	800a294 <UART_SetConfig>
 8009a96:	4603      	mov	r3, r0
 8009a98:	2b01      	cmp	r3, #1
 8009a9a:	d101      	bne.n	8009aa0 <HAL_UART_Init+0x60>
 8009a9c:	2301      	movs	r3, #1
 8009a9e:	e01b      	b.n	8009ad8 <HAL_UART_Init+0x98>
 8009aa0:	687b      	ldr	r3, [r7, #4]
 8009aa2:	681b      	ldr	r3, [r3, #0]
 8009aa4:	685a      	ldr	r2, [r3, #4]
 8009aa6:	687b      	ldr	r3, [r7, #4]
 8009aa8:	681b      	ldr	r3, [r3, #0]
 8009aaa:	f422 4290 	bic.w	r2, r2, #18432	@ 0x4800
 8009aae:	605a      	str	r2, [r3, #4]
 8009ab0:	687b      	ldr	r3, [r7, #4]
 8009ab2:	681b      	ldr	r3, [r3, #0]
 8009ab4:	689a      	ldr	r2, [r3, #8]
 8009ab6:	687b      	ldr	r3, [r7, #4]
 8009ab8:	681b      	ldr	r3, [r3, #0]
 8009aba:	f022 022a 	bic.w	r2, r2, #42	@ 0x2a
 8009abe:	609a      	str	r2, [r3, #8]
 8009ac0:	687b      	ldr	r3, [r7, #4]
 8009ac2:	681b      	ldr	r3, [r3, #0]
 8009ac4:	681a      	ldr	r2, [r3, #0]
 8009ac6:	687b      	ldr	r3, [r7, #4]
 8009ac8:	681b      	ldr	r3, [r3, #0]
 8009aca:	f042 0201 	orr.w	r2, r2, #1
 8009ace:	601a      	str	r2, [r3, #0]
 8009ad0:	6878      	ldr	r0, [r7, #4]
 8009ad2:	f001 faed 	bl	800b0b0 <UART_CheckIdleState>
 8009ad6:	4603      	mov	r3, r0
 8009ad8:	4618      	mov	r0, r3
 8009ada:	3708      	adds	r7, #8
 8009adc:	46bd      	mov	sp, r7
 8009ade:	bd80      	pop	{r7, pc}

08009ae0 <HAL_UART_IRQHandler>:
 8009ae0:	b580      	push	{r7, lr}
 8009ae2:	b0ba      	sub	sp, #232	@ 0xe8
 8009ae4:	af00      	add	r7, sp, #0
 8009ae6:	6078      	str	r0, [r7, #4]
 8009ae8:	687b      	ldr	r3, [r7, #4]
 8009aea:	681b      	ldr	r3, [r3, #0]
 8009aec:	69db      	ldr	r3, [r3, #28]
 8009aee:	f8c7 30e4 	str.w	r3, [r7, #228]	@ 0xe4
 8009af2:	687b      	ldr	r3, [r7, #4]
 8009af4:	681b      	ldr	r3, [r3, #0]
 8009af6:	681b      	ldr	r3, [r3, #0]
 8009af8:	f8c7 30e0 	str.w	r3, [r7, #224]	@ 0xe0
 8009afc:	687b      	ldr	r3, [r7, #4]
 8009afe:	681b      	ldr	r3, [r3, #0]
 8009b00:	689b      	ldr	r3, [r3, #8]
 8009b02:	f8c7 30dc 	str.w	r3, [r7, #220]	@ 0xdc
 8009b06:	f8d7 20e4 	ldr.w	r2, [r7, #228]	@ 0xe4
 8009b0a:	f640 030f 	movw	r3, #2063	@ 0x80f
 8009b0e:	4013      	ands	r3, r2
 8009b10:	f8c7 30d8 	str.w	r3, [r7, #216]	@ 0xd8
 8009b14:	f8d7 30d8 	ldr.w	r3, [r7, #216]	@ 0xd8
 8009b18:	2b00      	cmp	r3, #0
 8009b1a:	d11b      	bne.n	8009b54 <HAL_UART_IRQHandler+0x74>
 8009b1c:	f8d7 30e4 	ldr.w	r3, [r7, #228]	@ 0xe4
 8009b20:	f003 0320 	and.w	r3, r3, #32
 8009b24:	2b00      	cmp	r3, #0
 8009b26:	d015      	beq.n	8009b54 <HAL_UART_IRQHandler+0x74>
 8009b28:	f8d7 30e0 	ldr.w	r3, [r7, #224]	@ 0xe0
 8009b2c:	f003 0320 	and.w	r3, r3, #32
 8009b30:	2b00      	cmp	r3, #0
 8009b32:	d105      	bne.n	8009b40 <HAL_UART_IRQHandler+0x60>
 8009b34:	f8d7 30dc 	ldr.w	r3, [r7, #220]	@ 0xdc
 8009b38:	f003 5380 	and.w	r3, r3, #268435456	@ 0x10000000
 8009b3c:	2b00      	cmp	r3, #0
 8009b3e:	d009      	beq.n	8009b54 <HAL_UART_IRQHandler+0x74>
 8009b40:	687b      	ldr	r3, [r7, #4]
 8009b42:	6f5b      	ldr	r3, [r3, #116]	@ 0x74
 8009b44:	2b00      	cmp	r3, #0
 8009b46:	f000 8377 	beq.w	800a238 <HAL_UART_IRQHandler+0x758>
 8009b4a:	687b      	ldr	r3, [r7, #4]
 8009b4c:	6f5b      	ldr	r3, [r3, #116]	@ 0x74
 8009b4e:	6878      	ldr	r0, [r7, #4]
 8009b50:	4798      	blx	r3
 8009b52:	e371      	b.n	800a238 <HAL_UART_IRQHandler+0x758>
 8009b54:	f8d7 30d8 	ldr.w	r3, [r7, #216]	@ 0xd8
 8009b58:	2b00      	cmp	r3, #0
 8009b5a:	f000 8123 	beq.w	8009da4 <HAL_UART_IRQHandler+0x2c4>
 8009b5e:	f8d7 20dc 	ldr.w	r2, [r7, #220]	@ 0xdc
 8009b62:	4b8d      	ldr	r3, [pc, #564]	@ (8009d98 <HAL_UART_IRQHandler+0x2b8>)
 8009b64:	4013      	ands	r3, r2
 8009b66:	2b00      	cmp	r3, #0
 8009b68:	d106      	bne.n	8009b78 <HAL_UART_IRQHandler+0x98>
 8009b6a:	f8d7 20e0 	ldr.w	r2, [r7, #224]	@ 0xe0
 8009b6e:	4b8b      	ldr	r3, [pc, #556]	@ (8009d9c <HAL_UART_IRQHandler+0x2bc>)
 8009b70:	4013      	ands	r3, r2
 8009b72:	2b00      	cmp	r3, #0
 8009b74:	f000 8116 	beq.w	8009da4 <HAL_UART_IRQHandler+0x2c4>
 8009b78:	f8d7 30e4 	ldr.w	r3, [r7, #228]	@ 0xe4
 8009b7c:	f003 0301 	and.w	r3, r3, #1
 8009b80:	2b00      	cmp	r3, #0
 8009b82:	d011      	beq.n	8009ba8 <HAL_UART_IRQHandler+0xc8>
 8009b84:	f8d7 30e0 	ldr.w	r3, [r7, #224]	@ 0xe0
 8009b88:	f403 7380 	and.w	r3, r3, #256	@ 0x100
 8009b8c:	2b00      	cmp	r3, #0
 8009b8e:	d00b      	beq.n	8009ba8 <HAL_UART_IRQHandler+0xc8>
 8009b90:	687b      	ldr	r3, [r7, #4]
 8009b92:	681b      	ldr	r3, [r3, #0]
 8009b94:	2201      	movs	r2, #1
 8009b96:	621a      	str	r2, [r3, #32]
 8009b98:	687b      	ldr	r3, [r7, #4]
 8009b9a:	f8d3 3090 	ldr.w	r3, [r3, #144]	@ 0x90
 8009b9e:	f043 0201 	orr.w	r2, r3, #1
 8009ba2:	687b      	ldr	r3, [r7, #4]
 8009ba4:	f8c3 2090 	str.w	r2, [r3, #144]	@ 0x90
 8009ba8:	f8d7 30e4 	ldr.w	r3, [r7, #228]	@ 0xe4
 8009bac:	f003 0302 	and.w	r3, r3, #2
 8009bb0:	2b00      	cmp	r3, #0
 8009bb2:	d011      	beq.n	8009bd8 <HAL_UART_IRQHandler+0xf8>
 8009bb4:	f8d7 30dc 	ldr.w	r3, [r7, #220]	@ 0xdc
 8009bb8:	f003 0301 	and.w	r3, r3, #1
 8009bbc:	2b00      	cmp	r3, #0
 8009bbe:	d00b      	beq.n	8009bd8 <HAL_UART_IRQHandler+0xf8>
 8009bc0:	687b      	ldr	r3, [r7, #4]
 8009bc2:	681b      	ldr	r3, [r3, #0]
 8009bc4:	2202      	movs	r2, #2
 8009bc6:	621a      	str	r2, [r3, #32]
 8009bc8:	687b      	ldr	r3, [r7, #4]
 8009bca:	f8d3 3090 	ldr.w	r3, [r3, #144]	@ 0x90
 8009bce:	f043 0204 	orr.w	r2, r3, #4
 8009bd2:	687b      	ldr	r3, [r7, #4]
 8009bd4:	f8c3 2090 	str.w	r2, [r3, #144]	@ 0x90
 8009bd8:	f8d7 30e4 	ldr.w	r3, [r7, #228]	@ 0xe4
 8009bdc:	f003 0304 	and.w	r3, r3, #4
 8009be0:	2b00      	cmp	r3, #0
 8009be2:	d011      	beq.n	8009c08 <HAL_UART_IRQHandler+0x128>
 8009be4:	f8d7 30dc 	ldr.w	r3, [r7, #220]	@ 0xdc
 8009be8:	f003 0301 	and.w	r3, r3, #1
 8009bec:	2b00      	cmp	r3, #0
 8009bee:	d00b      	beq.n	8009c08 <HAL_UART_IRQHandler+0x128>
 8009bf0:	687b      	ldr	r3, [r7, #4]
 8009bf2:	681b      	ldr	r3, [r3, #0]
 8009bf4:	2204      	movs	r2, #4
 8009bf6:	621a      	str	r2, [r3, #32]
 8009bf8:	687b      	ldr	r3, [r7, #4]
 8009bfa:	f8d3 3090 	ldr.w	r3, [r3, #144]	@ 0x90
 8009bfe:	f043 0202 	orr.w	r2, r3, #2
 8009c02:	687b      	ldr	r3, [r7, #4]
 8009c04:	f8c3 2090 	str.w	r2, [r3, #144]	@ 0x90
 8009c08:	f8d7 30e4 	ldr.w	r3, [r7, #228]	@ 0xe4
 8009c0c:	f003 0308 	and.w	r3, r3, #8
 8009c10:	2b00      	cmp	r3, #0
 8009c12:	d017      	beq.n	8009c44 <HAL_UART_IRQHandler+0x164>
 8009c14:	f8d7 30e0 	ldr.w	r3, [r7, #224]	@ 0xe0
 8009c18:	f003 0320 	and.w	r3, r3, #32
 8009c1c:	2b00      	cmp	r3, #0
 8009c1e:	d105      	bne.n	8009c2c <HAL_UART_IRQHandler+0x14c>
 8009c20:	f8d7 20dc 	ldr.w	r2, [r7, #220]	@ 0xdc
 8009c24:	4b5c      	ldr	r3, [pc, #368]	@ (8009d98 <HAL_UART_IRQHandler+0x2b8>)
 8009c26:	4013      	ands	r3, r2
 8009c28:	2b00      	cmp	r3, #0
 8009c2a:	d00b      	beq.n	8009c44 <HAL_UART_IRQHandler+0x164>
 8009c2c:	687b      	ldr	r3, [r7, #4]
 8009c2e:	681b      	ldr	r3, [r3, #0]
 8009c30:	2208      	movs	r2, #8
 8009c32:	621a      	str	r2, [r3, #32]
 8009c34:	687b      	ldr	r3, [r7, #4]
 8009c36:	f8d3 3090 	ldr.w	r3, [r3, #144]	@ 0x90
 8009c3a:	f043 0208 	orr.w	r2, r3, #8
 8009c3e:	687b      	ldr	r3, [r7, #4]
 8009c40:	f8c3 2090 	str.w	r2, [r3, #144]	@ 0x90
 8009c44:	f8d7 30e4 	ldr.w	r3, [r7, #228]	@ 0xe4
 8009c48:	f403 6300 	and.w	r3, r3, #2048	@ 0x800
 8009c4c:	2b00      	cmp	r3, #0
 8009c4e:	d012      	beq.n	8009c76 <HAL_UART_IRQHandler+0x196>
 8009c50:	f8d7 30e0 	ldr.w	r3, [r7, #224]	@ 0xe0
 8009c54:	f003 6380 	and.w	r3, r3, #67108864	@ 0x4000000
 8009c58:	2b00      	cmp	r3, #0
 8009c5a:	d00c      	beq.n	8009c76 <HAL_UART_IRQHandler+0x196>
 8009c5c:	687b      	ldr	r3, [r7, #4]
 8009c5e:	681b      	ldr	r3, [r3, #0]
 8009c60:	f44f 6200 	mov.w	r2, #2048	@ 0x800
 8009c64:	621a      	str	r2, [r3, #32]
 8009c66:	687b      	ldr	r3, [r7, #4]
 8009c68:	f8d3 3090 	ldr.w	r3, [r3, #144]	@ 0x90
 8009c6c:	f043 0220 	orr.w	r2, r3, #32
 8009c70:	687b      	ldr	r3, [r7, #4]
 8009c72:	f8c3 2090 	str.w	r2, [r3, #144]	@ 0x90
 8009c76:	687b      	ldr	r3, [r7, #4]
 8009c78:	f8d3 3090 	ldr.w	r3, [r3, #144]	@ 0x90
 8009c7c:	2b00      	cmp	r3, #0
 8009c7e:	f000 82dd 	beq.w	800a23c <HAL_UART_IRQHandler+0x75c>
 8009c82:	f8d7 30e4 	ldr.w	r3, [r7, #228]	@ 0xe4
 8009c86:	f003 0320 	and.w	r3, r3, #32
 8009c8a:	2b00      	cmp	r3, #0
 8009c8c:	d013      	beq.n	8009cb6 <HAL_UART_IRQHandler+0x1d6>
 8009c8e:	f8d7 30e0 	ldr.w	r3, [r7, #224]	@ 0xe0
 8009c92:	f003 0320 	and.w	r3, r3, #32
 8009c96:	2b00      	cmp	r3, #0
 8009c98:	d105      	bne.n	8009ca6 <HAL_UART_IRQHandler+0x1c6>
 8009c9a:	f8d7 30dc 	ldr.w	r3, [r7, #220]	@ 0xdc
 8009c9e:	f003 5380 	and.w	r3, r3, #268435456	@ 0x10000000
 8009ca2:	2b00      	cmp	r3, #0
 8009ca4:	d007      	beq.n	8009cb6 <HAL_UART_IRQHandler+0x1d6>
 8009ca6:	687b      	ldr	r3, [r7, #4]
 8009ca8:	6f5b      	ldr	r3, [r3, #116]	@ 0x74
 8009caa:	2b00      	cmp	r3, #0
 8009cac:	d003      	beq.n	8009cb6 <HAL_UART_IRQHandler+0x1d6>
 8009cae:	687b      	ldr	r3, [r7, #4]
 8009cb0:	6f5b      	ldr	r3, [r3, #116]	@ 0x74
 8009cb2:	6878      	ldr	r0, [r7, #4]
 8009cb4:	4798      	blx	r3
 8009cb6:	687b      	ldr	r3, [r7, #4]
 8009cb8:	f8d3 3090 	ldr.w	r3, [r3, #144]	@ 0x90
 8009cbc:	f8c7 30d4 	str.w	r3, [r7, #212]	@ 0xd4
 8009cc0:	687b      	ldr	r3, [r7, #4]
 8009cc2:	681b      	ldr	r3, [r3, #0]
 8009cc4:	689b      	ldr	r3, [r3, #8]
 8009cc6:	f003 0340 	and.w	r3, r3, #64	@ 0x40
 8009cca:	2b40      	cmp	r3, #64	@ 0x40
 8009ccc:	d005      	beq.n	8009cda <HAL_UART_IRQHandler+0x1fa>
 8009cce:	f8d7 30d4 	ldr.w	r3, [r7, #212]	@ 0xd4
 8009cd2:	f003 0328 	and.w	r3, r3, #40	@ 0x28
 8009cd6:	2b00      	cmp	r3, #0
 8009cd8:	d054      	beq.n	8009d84 <HAL_UART_IRQHandler+0x2a4>
 8009cda:	6878      	ldr	r0, [r7, #4]
 8009cdc:	f001 fb00 	bl	800b2e0 <UART_EndRxTransfer>
 8009ce0:	687b      	ldr	r3, [r7, #4]
 8009ce2:	681b      	ldr	r3, [r3, #0]
 8009ce4:	689b      	ldr	r3, [r3, #8]
 8009ce6:	f003 0340 	and.w	r3, r3, #64	@ 0x40
 8009cea:	2b40      	cmp	r3, #64	@ 0x40
 8009cec:	d146      	bne.n	8009d7c <HAL_UART_IRQHandler+0x29c>
 8009cee:	687b      	ldr	r3, [r7, #4]
 8009cf0:	681b      	ldr	r3, [r3, #0]
 8009cf2:	3308      	adds	r3, #8
 8009cf4:	f8c7 309c 	str.w	r3, [r7, #156]	@ 0x9c
 8009cf8:	f8d7 309c 	ldr.w	r3, [r7, #156]	@ 0x9c
 8009cfc:	e853 3f00 	ldrex	r3, [r3]
 8009d00:	f8c7 3098 	str.w	r3, [r7, #152]	@ 0x98
 8009d04:	f8d7 3098 	ldr.w	r3, [r7, #152]	@ 0x98
 8009d08:	f023 0340 	bic.w	r3, r3, #64	@ 0x40
 8009d0c:	f8c7 30d0 	str.w	r3, [r7, #208]	@ 0xd0
 8009d10:	687b      	ldr	r3, [r7, #4]
 8009d12:	681b      	ldr	r3, [r3, #0]
 8009d14:	3308      	adds	r3, #8
 8009d16:	f8d7 20d0 	ldr.w	r2, [r7, #208]	@ 0xd0
 8009d1a:	f8c7 20a8 	str.w	r2, [r7, #168]	@ 0xa8
 8009d1e:	f8c7 30a4 	str.w	r3, [r7, #164]	@ 0xa4
 8009d22:	f8d7 10a4 	ldr.w	r1, [r7, #164]	@ 0xa4
 8009d26:	f8d7 20a8 	ldr.w	r2, [r7, #168]	@ 0xa8
 8009d2a:	e841 2300 	strex	r3, r2, [r1]
 8009d2e:	f8c7 30a0 	str.w	r3, [r7, #160]	@ 0xa0
 8009d32:	f8d7 30a0 	ldr.w	r3, [r7, #160]	@ 0xa0
 8009d36:	2b00      	cmp	r3, #0
 8009d38:	d1d9      	bne.n	8009cee <HAL_UART_IRQHandler+0x20e>
 8009d3a:	687b      	ldr	r3, [r7, #4]
 8009d3c:	f8d3 3080 	ldr.w	r3, [r3, #128]	@ 0x80
 8009d40:	2b00      	cmp	r3, #0
 8009d42:	d017      	beq.n	8009d74 <HAL_UART_IRQHandler+0x294>
 8009d44:	687b      	ldr	r3, [r7, #4]
 8009d46:	f8d3 3080 	ldr.w	r3, [r3, #128]	@ 0x80
 8009d4a:	4a15      	ldr	r2, [pc, #84]	@ (8009da0 <HAL_UART_IRQHandler+0x2c0>)
 8009d4c:	651a      	str	r2, [r3, #80]	@ 0x50
 8009d4e:	687b      	ldr	r3, [r7, #4]
 8009d50:	f8d3 3080 	ldr.w	r3, [r3, #128]	@ 0x80
 8009d54:	4618      	mov	r0, r3
 8009d56:	f7fa f9ef 	bl	8004138 <HAL_DMA_Abort_IT>
 8009d5a:	4603      	mov	r3, r0
 8009d5c:	2b00      	cmp	r3, #0
 8009d5e:	d019      	beq.n	8009d94 <HAL_UART_IRQHandler+0x2b4>
 8009d60:	687b      	ldr	r3, [r7, #4]
 8009d62:	f8d3 3080 	ldr.w	r3, [r3, #128]	@ 0x80
 8009d66:	6d1b      	ldr	r3, [r3, #80]	@ 0x50
 8009d68:	687a      	ldr	r2, [r7, #4]
 8009d6a:	f8d2 2080 	ldr.w	r2, [r2, #128]	@ 0x80
 8009d6e:	4610      	mov	r0, r2
 8009d70:	4798      	blx	r3
 8009d72:	e00f      	b.n	8009d94 <HAL_UART_IRQHandler+0x2b4>
 8009d74:	6878      	ldr	r0, [r7, #4]
 8009d76:	f000 fa77 	bl	800a268 <HAL_UART_ErrorCallback>
 8009d7a:	e00b      	b.n	8009d94 <HAL_UART_IRQHandler+0x2b4>
 8009d7c:	6878      	ldr	r0, [r7, #4]
 8009d7e:	f000 fa73 	bl	800a268 <HAL_UART_ErrorCallback>
 8009d82:	e007      	b.n	8009d94 <HAL_UART_IRQHandler+0x2b4>
 8009d84:	6878      	ldr	r0, [r7, #4]
 8009d86:	f000 fa6f 	bl	800a268 <HAL_UART_ErrorCallback>
 8009d8a:	687b      	ldr	r3, [r7, #4]
 8009d8c:	2200      	movs	r2, #0
 8009d8e:	f8c3 2090 	str.w	r2, [r3, #144]	@ 0x90
 8009d92:	e253      	b.n	800a23c <HAL_UART_IRQHandler+0x75c>
 8009d94:	bf00      	nop
 8009d96:	e251      	b.n	800a23c <HAL_UART_IRQHandler+0x75c>
 8009d98:	10000001 	.word	0x10000001
 8009d9c:	04000120 	.word	0x04000120
 8009da0:	0800b3ad 	.word	0x0800b3ad
 8009da4:	687b      	ldr	r3, [r7, #4]
 8009da6:	6edb      	ldr	r3, [r3, #108]	@ 0x6c
 8009da8:	2b01      	cmp	r3, #1
 8009daa:	f040 81e7 	bne.w	800a17c <HAL_UART_IRQHandler+0x69c>
 8009dae:	f8d7 30e4 	ldr.w	r3, [r7, #228]	@ 0xe4
 8009db2:	f003 0310 	and.w	r3, r3, #16
 8009db6:	2b00      	cmp	r3, #0
 8009db8:	f000 81e0 	beq.w	800a17c <HAL_UART_IRQHandler+0x69c>
 8009dbc:	f8d7 30e0 	ldr.w	r3, [r7, #224]	@ 0xe0
 8009dc0:	f003 0310 	and.w	r3, r3, #16
 8009dc4:	2b00      	cmp	r3, #0
 8009dc6:	f000 81d9 	beq.w	800a17c <HAL_UART_IRQHandler+0x69c>
 8009dca:	687b      	ldr	r3, [r7, #4]
 8009dcc:	681b      	ldr	r3, [r3, #0]
 8009dce:	2210      	movs	r2, #16
 8009dd0:	621a      	str	r2, [r3, #32]
 8009dd2:	687b      	ldr	r3, [r7, #4]
 8009dd4:	681b      	ldr	r3, [r3, #0]
 8009dd6:	689b      	ldr	r3, [r3, #8]
 8009dd8:	f003 0340 	and.w	r3, r3, #64	@ 0x40
 8009ddc:	2b40      	cmp	r3, #64	@ 0x40
 8009dde:	f040 8151 	bne.w	800a084 <HAL_UART_IRQHandler+0x5a4>
 8009de2:	687b      	ldr	r3, [r7, #4]
 8009de4:	f8d3 3080 	ldr.w	r3, [r3, #128]	@ 0x80
 8009de8:	681b      	ldr	r3, [r3, #0]
 8009dea:	4a96      	ldr	r2, [pc, #600]	@ (800a044 <HAL_UART_IRQHandler+0x564>)
 8009dec:	4293      	cmp	r3, r2
 8009dee:	d068      	beq.n	8009ec2 <HAL_UART_IRQHandler+0x3e2>
 8009df0:	687b      	ldr	r3, [r7, #4]
 8009df2:	f8d3 3080 	ldr.w	r3, [r3, #128]	@ 0x80
 8009df6:	681b      	ldr	r3, [r3, #0]
 8009df8:	4a93      	ldr	r2, [pc, #588]	@ (800a048 <HAL_UART_IRQHandler+0x568>)
 8009dfa:	4293      	cmp	r3, r2
 8009dfc:	d061      	beq.n	8009ec2 <HAL_UART_IRQHandler+0x3e2>
 8009dfe:	687b      	ldr	r3, [r7, #4]
 8009e00:	f8d3 3080 	ldr.w	r3, [r3, #128]	@ 0x80
 8009e04:	681b      	ldr	r3, [r3, #0]
 8009e06:	4a91      	ldr	r2, [pc, #580]	@ (800a04c <HAL_UART_IRQHandler+0x56c>)
 8009e08:	4293      	cmp	r3, r2
 8009e0a:	d05a      	beq.n	8009ec2 <HAL_UART_IRQHandler+0x3e2>
 8009e0c:	687b      	ldr	r3, [r7, #4]
 8009e0e:	f8d3 3080 	ldr.w	r3, [r3, #128]	@ 0x80
 8009e12:	681b      	ldr	r3, [r3, #0]
 8009e14:	4a8e      	ldr	r2, [pc, #568]	@ (800a050 <HAL_UART_IRQHandler+0x570>)
 8009e16:	4293      	cmp	r3, r2
 8009e18:	d053      	beq.n	8009ec2 <HAL_UART_IRQHandler+0x3e2>
 8009e1a:	687b      	ldr	r3, [r7, #4]
 8009e1c:	f8d3 3080 	ldr.w	r3, [r3, #128]	@ 0x80
 8009e20:	681b      	ldr	r3, [r3, #0]
 8009e22:	4a8c      	ldr	r2, [pc, #560]	@ (800a054 <HAL_UART_IRQHandler+0x574>)
 8009e24:	4293      	cmp	r3, r2
 8009e26:	d04c      	beq.n	8009ec2 <HAL_UART_IRQHandler+0x3e2>
 8009e28:	687b      	ldr	r3, [r7, #4]
 8009e2a:	f8d3 3080 	ldr.w	r3, [r3, #128]	@ 0x80
 8009e2e:	681b      	ldr	r3, [r3, #0]
 8009e30:	4a89      	ldr	r2, [pc, #548]	@ (800a058 <HAL_UART_IRQHandler+0x578>)
 8009e32:	4293      	cmp	r3, r2
 8009e34:	d045      	beq.n	8009ec2 <HAL_UART_IRQHandler+0x3e2>
 8009e36:	687b      	ldr	r3, [r7, #4]
 8009e38:	f8d3 3080 	ldr.w	r3, [r3, #128]	@ 0x80
 8009e3c:	681b      	ldr	r3, [r3, #0]
 8009e3e:	4a87      	ldr	r2, [pc, #540]	@ (800a05c <HAL_UART_IRQHandler+0x57c>)
 8009e40:	4293      	cmp	r3, r2
 8009e42:	d03e      	beq.n	8009ec2 <HAL_UART_IRQHandler+0x3e2>
 8009e44:	687b      	ldr	r3, [r7, #4]
 8009e46:	f8d3 3080 	ldr.w	r3, [r3, #128]	@ 0x80
 8009e4a:	681b      	ldr	r3, [r3, #0]
 8009e4c:	4a84      	ldr	r2, [pc, #528]	@ (800a060 <HAL_UART_IRQHandler+0x580>)
 8009e4e:	4293      	cmp	r3, r2
 8009e50:	d037      	beq.n	8009ec2 <HAL_UART_IRQHandler+0x3e2>
 8009e52:	687b      	ldr	r3, [r7, #4]
 8009e54:	f8d3 3080 	ldr.w	r3, [r3, #128]	@ 0x80
 8009e58:	681b      	ldr	r3, [r3, #0]
 8009e5a:	4a82      	ldr	r2, [pc, #520]	@ (800a064 <HAL_UART_IRQHandler+0x584>)
 8009e5c:	4293      	cmp	r3, r2
 8009e5e:	d030      	beq.n	8009ec2 <HAL_UART_IRQHandler+0x3e2>
 8009e60:	687b      	ldr	r3, [r7, #4]
 8009e62:	f8d3 3080 	ldr.w	r3, [r3, #128]	@ 0x80
 8009e66:	681b      	ldr	r3, [r3, #0]
 8009e68:	4a7f      	ldr	r2, [pc, #508]	@ (800a068 <HAL_UART_IRQHandler+0x588>)
 8009e6a:	4293      	cmp	r3, r2
 8009e6c:	d029      	beq.n	8009ec2 <HAL_UART_IRQHandler+0x3e2>
 8009e6e:	687b      	ldr	r3, [r7, #4]
 8009e70:	f8d3 3080 	ldr.w	r3, [r3, #128]	@ 0x80
 8009e74:	681b      	ldr	r3, [r3, #0]
 8009e76:	4a7d      	ldr	r2, [pc, #500]	@ (800a06c <HAL_UART_IRQHandler+0x58c>)
 8009e78:	4293      	cmp	r3, r2
 8009e7a:	d022      	beq.n	8009ec2 <HAL_UART_IRQHandler+0x3e2>
 8009e7c:	687b      	ldr	r3, [r7, #4]
 8009e7e:	f8d3 3080 	ldr.w	r3, [r3, #128]	@ 0x80
 8009e82:	681b      	ldr	r3, [r3, #0]
 8009e84:	4a7a      	ldr	r2, [pc, #488]	@ (800a070 <HAL_UART_IRQHandler+0x590>)
 8009e86:	4293      	cmp	r3, r2
 8009e88:	d01b      	beq.n	8009ec2 <HAL_UART_IRQHandler+0x3e2>
 8009e8a:	687b      	ldr	r3, [r7, #4]
 8009e8c:	f8d3 3080 	ldr.w	r3, [r3, #128]	@ 0x80
 8009e90:	681b      	ldr	r3, [r3, #0]
 8009e92:	4a78      	ldr	r2, [pc, #480]	@ (800a074 <HAL_UART_IRQHandler+0x594>)
 8009e94:	4293      	cmp	r3, r2
 8009e96:	d014      	beq.n	8009ec2 <HAL_UART_IRQHandler+0x3e2>
 8009e98:	687b      	ldr	r3, [r7, #4]
 8009e9a:	f8d3 3080 	ldr.w	r3, [r3, #128]	@ 0x80
 8009e9e:	681b      	ldr	r3, [r3, #0]
 8009ea0:	4a75      	ldr	r2, [pc, #468]	@ (800a078 <HAL_UART_IRQHandler+0x598>)
 8009ea2:	4293      	cmp	r3, r2
 8009ea4:	d00d      	beq.n	8009ec2 <HAL_UART_IRQHandler+0x3e2>
 8009ea6:	687b      	ldr	r3, [r7, #4]
 8009ea8:	f8d3 3080 	ldr.w	r3, [r3, #128]	@ 0x80
 8009eac:	681b      	ldr	r3, [r3, #0]
 8009eae:	4a73      	ldr	r2, [pc, #460]	@ (800a07c <HAL_UART_IRQHandler+0x59c>)
 8009eb0:	4293      	cmp	r3, r2
 8009eb2:	d006      	beq.n	8009ec2 <HAL_UART_IRQHandler+0x3e2>
 8009eb4:	687b      	ldr	r3, [r7, #4]
 8009eb6:	f8d3 3080 	ldr.w	r3, [r3, #128]	@ 0x80
 8009eba:	681b      	ldr	r3, [r3, #0]
 8009ebc:	4a70      	ldr	r2, [pc, #448]	@ (800a080 <HAL_UART_IRQHandler+0x5a0>)
 8009ebe:	4293      	cmp	r3, r2
 8009ec0:	d106      	bne.n	8009ed0 <HAL_UART_IRQHandler+0x3f0>
 8009ec2:	687b      	ldr	r3, [r7, #4]
 8009ec4:	f8d3 3080 	ldr.w	r3, [r3, #128]	@ 0x80
 8009ec8:	681b      	ldr	r3, [r3, #0]
 8009eca:	685b      	ldr	r3, [r3, #4]
 8009ecc:	b29b      	uxth	r3, r3
 8009ece:	e005      	b.n	8009edc <HAL_UART_IRQHandler+0x3fc>
 8009ed0:	687b      	ldr	r3, [r7, #4]
 8009ed2:	f8d3 3080 	ldr.w	r3, [r3, #128]	@ 0x80
 8009ed6:	681b      	ldr	r3, [r3, #0]
 8009ed8:	685b      	ldr	r3, [r3, #4]
 8009eda:	b29b      	uxth	r3, r3
 8009edc:	f8a7 30be 	strh.w	r3, [r7, #190]	@ 0xbe
 8009ee0:	f8b7 30be 	ldrh.w	r3, [r7, #190]	@ 0xbe
 8009ee4:	2b00      	cmp	r3, #0
 8009ee6:	f000 81ab 	beq.w	800a240 <HAL_UART_IRQHandler+0x760>
 8009eea:	687b      	ldr	r3, [r7, #4]
 8009eec:	f8b3 305c 	ldrh.w	r3, [r3, #92]	@ 0x5c
 8009ef0:	f8b7 20be 	ldrh.w	r2, [r7, #190]	@ 0xbe
 8009ef4:	429a      	cmp	r2, r3
 8009ef6:	f080 81a3 	bcs.w	800a240 <HAL_UART_IRQHandler+0x760>
 8009efa:	687b      	ldr	r3, [r7, #4]
 8009efc:	f8b7 20be 	ldrh.w	r2, [r7, #190]	@ 0xbe
 8009f00:	f8a3 205e 	strh.w	r2, [r3, #94]	@ 0x5e
 8009f04:	687b      	ldr	r3, [r7, #4]
 8009f06:	f8d3 3080 	ldr.w	r3, [r3, #128]	@ 0x80
 8009f0a:	69db      	ldr	r3, [r3, #28]
 8009f0c:	f5b3 7f80 	cmp.w	r3, #256	@ 0x100
 8009f10:	f000 8087 	beq.w	800a022 <HAL_UART_IRQHandler+0x542>
 8009f14:	687b      	ldr	r3, [r7, #4]
 8009f16:	681b      	ldr	r3, [r3, #0]
 8009f18:	f8c7 3088 	str.w	r3, [r7, #136]	@ 0x88
 8009f1c:	f8d7 3088 	ldr.w	r3, [r7, #136]	@ 0x88
 8009f20:	e853 3f00 	ldrex	r3, [r3]
 8009f24:	f8c7 3084 	str.w	r3, [r7, #132]	@ 0x84
 8009f28:	f8d7 3084 	ldr.w	r3, [r7, #132]	@ 0x84
 8009f2c:	f423 7380 	bic.w	r3, r3, #256	@ 0x100
 8009f30:	f8c7 30b8 	str.w	r3, [r7, #184]	@ 0xb8
 8009f34:	687b      	ldr	r3, [r7, #4]
 8009f36:	681b      	ldr	r3, [r3, #0]
 8009f38:	461a      	mov	r2, r3
 8009f3a:	f8d7 30b8 	ldr.w	r3, [r7, #184]	@ 0xb8
 8009f3e:	f8c7 3094 	str.w	r3, [r7, #148]	@ 0x94
 8009f42:	f8c7 2090 	str.w	r2, [r7, #144]	@ 0x90
 8009f46:	f8d7 1090 	ldr.w	r1, [r7, #144]	@ 0x90
 8009f4a:	f8d7 2094 	ldr.w	r2, [r7, #148]	@ 0x94
 8009f4e:	e841 2300 	strex	r3, r2, [r1]
 8009f52:	f8c7 308c 	str.w	r3, [r7, #140]	@ 0x8c
 8009f56:	f8d7 308c 	ldr.w	r3, [r7, #140]	@ 0x8c
 8009f5a:	2b00      	cmp	r3, #0
 8009f5c:	d1da      	bne.n	8009f14 <HAL_UART_IRQHandler+0x434>
 8009f5e:	687b      	ldr	r3, [r7, #4]
 8009f60:	681b      	ldr	r3, [r3, #0]
 8009f62:	3308      	adds	r3, #8
 8009f64:	677b      	str	r3, [r7, #116]	@ 0x74
 8009f66:	6f7b      	ldr	r3, [r7, #116]	@ 0x74
 8009f68:	e853 3f00 	ldrex	r3, [r3]
 8009f6c:	673b      	str	r3, [r7, #112]	@ 0x70
 8009f6e:	6f3b      	ldr	r3, [r7, #112]	@ 0x70
 8009f70:	f023 0301 	bic.w	r3, r3, #1
 8009f74:	f8c7 30b4 	str.w	r3, [r7, #180]	@ 0xb4
 8009f78:	687b      	ldr	r3, [r7, #4]
 8009f7a:	681b      	ldr	r3, [r3, #0]
 8009f7c:	3308      	adds	r3, #8
 8009f7e:	f8d7 20b4 	ldr.w	r2, [r7, #180]	@ 0xb4
 8009f82:	f8c7 2080 	str.w	r2, [r7, #128]	@ 0x80
 8009f86:	67fb      	str	r3, [r7, #124]	@ 0x7c
 8009f88:	6ff9      	ldr	r1, [r7, #124]	@ 0x7c
 8009f8a:	f8d7 2080 	ldr.w	r2, [r7, #128]	@ 0x80
 8009f8e:	e841 2300 	strex	r3, r2, [r1]
 8009f92:	67bb      	str	r3, [r7, #120]	@ 0x78
 8009f94:	6fbb      	ldr	r3, [r7, #120]	@ 0x78
 8009f96:	2b00      	cmp	r3, #0
 8009f98:	d1e1      	bne.n	8009f5e <HAL_UART_IRQHandler+0x47e>
 8009f9a:	687b      	ldr	r3, [r7, #4]
 8009f9c:	681b      	ldr	r3, [r3, #0]
 8009f9e:	3308      	adds	r3, #8
 8009fa0:	663b      	str	r3, [r7, #96]	@ 0x60
 8009fa2:	6e3b      	ldr	r3, [r7, #96]	@ 0x60
 8009fa4:	e853 3f00 	ldrex	r3, [r3]
 8009fa8:	65fb      	str	r3, [r7, #92]	@ 0x5c
 8009faa:	6dfb      	ldr	r3, [r7, #92]	@ 0x5c
 8009fac:	f023 0340 	bic.w	r3, r3, #64	@ 0x40
 8009fb0:	f8c7 30b0 	str.w	r3, [r7, #176]	@ 0xb0
 8009fb4:	687b      	ldr	r3, [r7, #4]
 8009fb6:	681b      	ldr	r3, [r3, #0]
 8009fb8:	3308      	adds	r3, #8
 8009fba:	f8d7 20b0 	ldr.w	r2, [r7, #176]	@ 0xb0
 8009fbe:	66fa      	str	r2, [r7, #108]	@ 0x6c
 8009fc0:	66bb      	str	r3, [r7, #104]	@ 0x68
 8009fc2:	6eb9      	ldr	r1, [r7, #104]	@ 0x68
 8009fc4:	6efa      	ldr	r2, [r7, #108]	@ 0x6c
 8009fc6:	e841 2300 	strex	r3, r2, [r1]
 8009fca:	667b      	str	r3, [r7, #100]	@ 0x64
 8009fcc:	6e7b      	ldr	r3, [r7, #100]	@ 0x64
 8009fce:	2b00      	cmp	r3, #0
 8009fd0:	d1e3      	bne.n	8009f9a <HAL_UART_IRQHandler+0x4ba>
 8009fd2:	687b      	ldr	r3, [r7, #4]
 8009fd4:	2220      	movs	r2, #32
 8009fd6:	f8c3 208c 	str.w	r2, [r3, #140]	@ 0x8c
 8009fda:	687b      	ldr	r3, [r7, #4]
 8009fdc:	2200      	movs	r2, #0
 8009fde:	66da      	str	r2, [r3, #108]	@ 0x6c
 8009fe0:	687b      	ldr	r3, [r7, #4]
 8009fe2:	681b      	ldr	r3, [r3, #0]
 8009fe4:	64fb      	str	r3, [r7, #76]	@ 0x4c
 8009fe6:	6cfb      	ldr	r3, [r7, #76]	@ 0x4c
 8009fe8:	e853 3f00 	ldrex	r3, [r3]
 8009fec:	64bb      	str	r3, [r7, #72]	@ 0x48
 8009fee:	6cbb      	ldr	r3, [r7, #72]	@ 0x48
 8009ff0:	f023 0310 	bic.w	r3, r3, #16
 8009ff4:	f8c7 30ac 	str.w	r3, [r7, #172]	@ 0xac
 8009ff8:	687b      	ldr	r3, [r7, #4]
 8009ffa:	681b      	ldr	r3, [r3, #0]
 8009ffc:	461a      	mov	r2, r3
 8009ffe:	f8d7 30ac 	ldr.w	r3, [r7, #172]	@ 0xac
 800a002:	65bb      	str	r3, [r7, #88]	@ 0x58
 800a004:	657a      	str	r2, [r7, #84]	@ 0x54
 800a006:	6d79      	ldr	r1, [r7, #84]	@ 0x54
 800a008:	6dba      	ldr	r2, [r7, #88]	@ 0x58
 800a00a:	e841 2300 	strex	r3, r2, [r1]
 800a00e:	653b      	str	r3, [r7, #80]	@ 0x50
 800a010:	6d3b      	ldr	r3, [r7, #80]	@ 0x50
 800a012:	2b00      	cmp	r3, #0
 800a014:	d1e4      	bne.n	8009fe0 <HAL_UART_IRQHandler+0x500>
 800a016:	687b      	ldr	r3, [r7, #4]
 800a018:	f8d3 3080 	ldr.w	r3, [r3, #128]	@ 0x80
 800a01c:	4618      	mov	r0, r3
 800a01e:	f7f9 fd6d 	bl	8003afc <HAL_DMA_Abort>
 800a022:	687b      	ldr	r3, [r7, #4]
 800a024:	2202      	movs	r2, #2
 800a026:	671a      	str	r2, [r3, #112]	@ 0x70
 800a028:	687b      	ldr	r3, [r7, #4]
 800a02a:	f8b3 205c 	ldrh.w	r2, [r3, #92]	@ 0x5c
 800a02e:	687b      	ldr	r3, [r7, #4]
 800a030:	f8b3 305e 	ldrh.w	r3, [r3, #94]	@ 0x5e
 800a034:	b29b      	uxth	r3, r3
 800a036:	1ad3      	subs	r3, r2, r3
 800a038:	b29b      	uxth	r3, r3
 800a03a:	4619      	mov	r1, r3
 800a03c:	6878      	ldr	r0, [r7, #4]
 800a03e:	f000 f91d 	bl	800a27c <HAL_UARTEx_RxEventCallback>
 800a042:	e0fd      	b.n	800a240 <HAL_UART_IRQHandler+0x760>
 800a044:	40020010 	.word	0x40020010
 800a048:	40020028 	.word	0x40020028
 800a04c:	40020040 	.word	0x40020040
 800a050:	40020058 	.word	0x40020058
 800a054:	40020070 	.word	0x40020070
 800a058:	40020088 	.word	0x40020088
 800a05c:	400200a0 	.word	0x400200a0
 800a060:	400200b8 	.word	0x400200b8
 800a064:	40020410 	.word	0x40020410
 800a068:	40020428 	.word	0x40020428
 800a06c:	40020440 	.word	0x40020440
 800a070:	40020458 	.word	0x40020458
 800a074:	40020470 	.word	0x40020470
 800a078:	40020488 	.word	0x40020488
 800a07c:	400204a0 	.word	0x400204a0
 800a080:	400204b8 	.word	0x400204b8
 800a084:	687b      	ldr	r3, [r7, #4]
 800a086:	f8b3 205c 	ldrh.w	r2, [r3, #92]	@ 0x5c
 800a08a:	687b      	ldr	r3, [r7, #4]
 800a08c:	f8b3 305e 	ldrh.w	r3, [r3, #94]	@ 0x5e
 800a090:	b29b      	uxth	r3, r3
 800a092:	1ad3      	subs	r3, r2, r3
 800a094:	f8a7 30ce 	strh.w	r3, [r7, #206]	@ 0xce
 800a098:	687b      	ldr	r3, [r7, #4]
 800a09a:	f8b3 305e 	ldrh.w	r3, [r3, #94]	@ 0x5e
 800a09e:	b29b      	uxth	r3, r3
 800a0a0:	2b00      	cmp	r3, #0
 800a0a2:	f000 80cf 	beq.w	800a244 <HAL_UART_IRQHandler+0x764>
 800a0a6:	f8b7 30ce 	ldrh.w	r3, [r7, #206]	@ 0xce
 800a0aa:	2b00      	cmp	r3, #0
 800a0ac:	f000 80ca 	beq.w	800a244 <HAL_UART_IRQHandler+0x764>
 800a0b0:	687b      	ldr	r3, [r7, #4]
 800a0b2:	681b      	ldr	r3, [r3, #0]
 800a0b4:	63bb      	str	r3, [r7, #56]	@ 0x38
 800a0b6:	6bbb      	ldr	r3, [r7, #56]	@ 0x38
 800a0b8:	e853 3f00 	ldrex	r3, [r3]
 800a0bc:	637b      	str	r3, [r7, #52]	@ 0x34
 800a0be:	6b7b      	ldr	r3, [r7, #52]	@ 0x34
 800a0c0:	f423 7390 	bic.w	r3, r3, #288	@ 0x120
 800a0c4:	f8c7 30c8 	str.w	r3, [r7, #200]	@ 0xc8
 800a0c8:	687b      	ldr	r3, [r7, #4]
 800a0ca:	681b      	ldr	r3, [r3, #0]
 800a0cc:	461a      	mov	r2, r3
 800a0ce:	f8d7 30c8 	ldr.w	r3, [r7, #200]	@ 0xc8
 800a0d2:	647b      	str	r3, [r7, #68]	@ 0x44
 800a0d4:	643a      	str	r2, [r7, #64]	@ 0x40
 800a0d6:	6c39      	ldr	r1, [r7, #64]	@ 0x40
 800a0d8:	6c7a      	ldr	r2, [r7, #68]	@ 0x44
 800a0da:	e841 2300 	strex	r3, r2, [r1]
 800a0de:	63fb      	str	r3, [r7, #60]	@ 0x3c
 800a0e0:	6bfb      	ldr	r3, [r7, #60]	@ 0x3c
 800a0e2:	2b00      	cmp	r3, #0
 800a0e4:	d1e4      	bne.n	800a0b0 <HAL_UART_IRQHandler+0x5d0>
 800a0e6:	687b      	ldr	r3, [r7, #4]
 800a0e8:	681b      	ldr	r3, [r3, #0]
 800a0ea:	3308      	adds	r3, #8
 800a0ec:	627b      	str	r3, [r7, #36]	@ 0x24
 800a0ee:	6a7b      	ldr	r3, [r7, #36]	@ 0x24
 800a0f0:	e853 3f00 	ldrex	r3, [r3]
 800a0f4:	623b      	str	r3, [r7, #32]
 800a0f6:	6a3a      	ldr	r2, [r7, #32]
 800a0f8:	4b55      	ldr	r3, [pc, #340]	@ (800a250 <HAL_UART_IRQHandler+0x770>)
 800a0fa:	4013      	ands	r3, r2
 800a0fc:	f8c7 30c4 	str.w	r3, [r7, #196]	@ 0xc4
 800a100:	687b      	ldr	r3, [r7, #4]
 800a102:	681b      	ldr	r3, [r3, #0]
 800a104:	3308      	adds	r3, #8
 800a106:	f8d7 20c4 	ldr.w	r2, [r7, #196]	@ 0xc4
 800a10a:	633a      	str	r2, [r7, #48]	@ 0x30
 800a10c:	62fb      	str	r3, [r7, #44]	@ 0x2c
 800a10e:	6af9      	ldr	r1, [r7, #44]	@ 0x2c
 800a110:	6b3a      	ldr	r2, [r7, #48]	@ 0x30
 800a112:	e841 2300 	strex	r3, r2, [r1]
 800a116:	62bb      	str	r3, [r7, #40]	@ 0x28
 800a118:	6abb      	ldr	r3, [r7, #40]	@ 0x28
 800a11a:	2b00      	cmp	r3, #0
 800a11c:	d1e3      	bne.n	800a0e6 <HAL_UART_IRQHandler+0x606>
 800a11e:	687b      	ldr	r3, [r7, #4]
 800a120:	2220      	movs	r2, #32
 800a122:	f8c3 208c 	str.w	r2, [r3, #140]	@ 0x8c
 800a126:	687b      	ldr	r3, [r7, #4]
 800a128:	2200      	movs	r2, #0
 800a12a:	66da      	str	r2, [r3, #108]	@ 0x6c
 800a12c:	687b      	ldr	r3, [r7, #4]
 800a12e:	2200      	movs	r2, #0
 800a130:	675a      	str	r2, [r3, #116]	@ 0x74
 800a132:	687b      	ldr	r3, [r7, #4]
 800a134:	681b      	ldr	r3, [r3, #0]
 800a136:	613b      	str	r3, [r7, #16]
 800a138:	693b      	ldr	r3, [r7, #16]
 800a13a:	e853 3f00 	ldrex	r3, [r3]
 800a13e:	60fb      	str	r3, [r7, #12]
 800a140:	68fb      	ldr	r3, [r7, #12]
 800a142:	f023 0310 	bic.w	r3, r3, #16
 800a146:	f8c7 30c0 	str.w	r3, [r7, #192]	@ 0xc0
 800a14a:	687b      	ldr	r3, [r7, #4]
 800a14c:	681b      	ldr	r3, [r3, #0]
 800a14e:	461a      	mov	r2, r3
 800a150:	f8d7 30c0 	ldr.w	r3, [r7, #192]	@ 0xc0
 800a154:	61fb      	str	r3, [r7, #28]
 800a156:	61ba      	str	r2, [r7, #24]
 800a158:	69b9      	ldr	r1, [r7, #24]
 800a15a:	69fa      	ldr	r2, [r7, #28]
 800a15c:	e841 2300 	strex	r3, r2, [r1]
 800a160:	617b      	str	r3, [r7, #20]
 800a162:	697b      	ldr	r3, [r7, #20]
 800a164:	2b00      	cmp	r3, #0
 800a166:	d1e4      	bne.n	800a132 <HAL_UART_IRQHandler+0x652>
 800a168:	687b      	ldr	r3, [r7, #4]
 800a16a:	2202      	movs	r2, #2
 800a16c:	671a      	str	r2, [r3, #112]	@ 0x70
 800a16e:	f8b7 30ce 	ldrh.w	r3, [r7, #206]	@ 0xce
 800a172:	4619      	mov	r1, r3
 800a174:	6878      	ldr	r0, [r7, #4]
 800a176:	f000 f881 	bl	800a27c <HAL_UARTEx_RxEventCallback>
 800a17a:	e063      	b.n	800a244 <HAL_UART_IRQHandler+0x764>
 800a17c:	f8d7 30e4 	ldr.w	r3, [r7, #228]	@ 0xe4
 800a180:	f403 1380 	and.w	r3, r3, #1048576	@ 0x100000
 800a184:	2b00      	cmp	r3, #0
 800a186:	d00e      	beq.n	800a1a6 <HAL_UART_IRQHandler+0x6c6>
 800a188:	f8d7 30dc 	ldr.w	r3, [r7, #220]	@ 0xdc
 800a18c:	f403 0380 	and.w	r3, r3, #4194304	@ 0x400000
 800a190:	2b00      	cmp	r3, #0
 800a192:	d008      	beq.n	800a1a6 <HAL_UART_IRQHandler+0x6c6>
 800a194:	687b      	ldr	r3, [r7, #4]
 800a196:	681b      	ldr	r3, [r3, #0]
 800a198:	f44f 1280 	mov.w	r2, #1048576	@ 0x100000
 800a19c:	621a      	str	r2, [r3, #32]
 800a19e:	6878      	ldr	r0, [r7, #4]
 800a1a0:	f001 f945 	bl	800b42e <HAL_UARTEx_WakeupCallback>
 800a1a4:	e051      	b.n	800a24a <HAL_UART_IRQHandler+0x76a>
 800a1a6:	f8d7 30e4 	ldr.w	r3, [r7, #228]	@ 0xe4
 800a1aa:	f003 0380 	and.w	r3, r3, #128	@ 0x80
 800a1ae:	2b00      	cmp	r3, #0
 800a1b0:	d014      	beq.n	800a1dc <HAL_UART_IRQHandler+0x6fc>
 800a1b2:	f8d7 30e0 	ldr.w	r3, [r7, #224]	@ 0xe0
 800a1b6:	f003 0380 	and.w	r3, r3, #128	@ 0x80
 800a1ba:	2b00      	cmp	r3, #0
 800a1bc:	d105      	bne.n	800a1ca <HAL_UART_IRQHandler+0x6ea>
 800a1be:	f8d7 30dc 	ldr.w	r3, [r7, #220]	@ 0xdc
 800a1c2:	f403 0300 	and.w	r3, r3, #8388608	@ 0x800000
 800a1c6:	2b00      	cmp	r3, #0
 800a1c8:	d008      	beq.n	800a1dc <HAL_UART_IRQHandler+0x6fc>
 800a1ca:	687b      	ldr	r3, [r7, #4]
 800a1cc:	6f9b      	ldr	r3, [r3, #120]	@ 0x78
 800a1ce:	2b00      	cmp	r3, #0
 800a1d0:	d03a      	beq.n	800a248 <HAL_UART_IRQHandler+0x768>
 800a1d2:	687b      	ldr	r3, [r7, #4]
 800a1d4:	6f9b      	ldr	r3, [r3, #120]	@ 0x78
 800a1d6:	6878      	ldr	r0, [r7, #4]
 800a1d8:	4798      	blx	r3
 800a1da:	e035      	b.n	800a248 <HAL_UART_IRQHandler+0x768>
 800a1dc:	f8d7 30e4 	ldr.w	r3, [r7, #228]	@ 0xe4
 800a1e0:	f003 0340 	and.w	r3, r3, #64	@ 0x40
 800a1e4:	2b00      	cmp	r3, #0
 800a1e6:	d009      	beq.n	800a1fc <HAL_UART_IRQHandler+0x71c>
 800a1e8:	f8d7 30e0 	ldr.w	r3, [r7, #224]	@ 0xe0
 800a1ec:	f003 0340 	and.w	r3, r3, #64	@ 0x40
 800a1f0:	2b00      	cmp	r3, #0
 800a1f2:	d003      	beq.n	800a1fc <HAL_UART_IRQHandler+0x71c>
 800a1f4:	6878      	ldr	r0, [r7, #4]
 800a1f6:	f001 f8ef 	bl	800b3d8 <UART_EndTransmit_IT>
 800a1fa:	e026      	b.n	800a24a <HAL_UART_IRQHandler+0x76a>
 800a1fc:	f8d7 30e4 	ldr.w	r3, [r7, #228]	@ 0xe4
 800a200:	f403 0300 	and.w	r3, r3, #8388608	@ 0x800000
 800a204:	2b00      	cmp	r3, #0
 800a206:	d009      	beq.n	800a21c <HAL_UART_IRQHandler+0x73c>
 800a208:	f8d7 30e0 	ldr.w	r3, [r7, #224]	@ 0xe0
 800a20c:	f003 4380 	and.w	r3, r3, #1073741824	@ 0x40000000
 800a210:	2b00      	cmp	r3, #0
 800a212:	d003      	beq.n	800a21c <HAL_UART_IRQHandler+0x73c>
 800a214:	6878      	ldr	r0, [r7, #4]
 800a216:	f001 f91e 	bl	800b456 <HAL_UARTEx_TxFifoEmptyCallback>
 800a21a:	e016      	b.n	800a24a <HAL_UART_IRQHandler+0x76a>
 800a21c:	f8d7 30e4 	ldr.w	r3, [r7, #228]	@ 0xe4
 800a220:	f003 7380 	and.w	r3, r3, #16777216	@ 0x1000000
 800a224:	2b00      	cmp	r3, #0
 800a226:	d010      	beq.n	800a24a <HAL_UART_IRQHandler+0x76a>
 800a228:	f8d7 30e0 	ldr.w	r3, [r7, #224]	@ 0xe0
 800a22c:	2b00      	cmp	r3, #0
 800a22e:	da0c      	bge.n	800a24a <HAL_UART_IRQHandler+0x76a>
 800a230:	6878      	ldr	r0, [r7, #4]
 800a232:	f001 f906 	bl	800b442 <HAL_UARTEx_RxFifoFullCallback>
 800a236:	e008      	b.n	800a24a <HAL_UART_IRQHandler+0x76a>
 800a238:	bf00      	nop
 800a23a:	e006      	b.n	800a24a <HAL_UART_IRQHandler+0x76a>
 800a23c:	bf00      	nop
 800a23e:	e004      	b.n	800a24a <HAL_UART_IRQHandler+0x76a>
 800a240:	bf00      	nop
 800a242:	e002      	b.n	800a24a <HAL_UART_IRQHandler+0x76a>
 800a244:	bf00      	nop
 800a246:	e000      	b.n	800a24a <HAL_UART_IRQHandler+0x76a>
 800a248:	bf00      	nop
 800a24a:	37e8      	adds	r7, #232	@ 0xe8
 800a24c:	46bd      	mov	sp, r7
 800a24e:	bd80      	pop	{r7, pc}
 800a250:	effffffe 	.word	0xeffffffe

0800a254 <HAL_UART_TxCpltCallback>:
 800a254:	b480      	push	{r7}
 800a256:	b083      	sub	sp, #12
 800a258:	af00      	add	r7, sp, #0
 800a25a:	6078      	str	r0, [r7, #4]
 800a25c:	bf00      	nop
 800a25e:	370c      	adds	r7, #12
 800a260:	46bd      	mov	sp, r7
 800a262:	f85d 7b04 	ldr.w	r7, [sp], #4
 800a266:	4770      	bx	lr

0800a268 <HAL_UART_ErrorCallback>:
 800a268:	b480      	push	{r7}
 800a26a:	b083      	sub	sp, #12
 800a26c:	af00      	add	r7, sp, #0
 800a26e:	6078      	str	r0, [r7, #4]
 800a270:	bf00      	nop
 800a272:	370c      	adds	r7, #12
 800a274:	46bd      	mov	sp, r7
 800a276:	f85d 7b04 	ldr.w	r7, [sp], #4
 800a27a:	4770      	bx	lr

0800a27c <HAL_UARTEx_RxEventCallback>:
 800a27c:	b480      	push	{r7}
 800a27e:	b083      	sub	sp, #12
 800a280:	af00      	add	r7, sp, #0
 800a282:	6078      	str	r0, [r7, #4]
 800a284:	460b      	mov	r3, r1
 800a286:	807b      	strh	r3, [r7, #2]
 800a288:	bf00      	nop
 800a28a:	370c      	adds	r7, #12
 800a28c:	46bd      	mov	sp, r7
 800a28e:	f85d 7b04 	ldr.w	r7, [sp], #4
 800a292:	4770      	bx	lr

0800a294 <UART_SetConfig>:
 800a294:	e92d 4fb0 	stmdb	sp!, {r4, r5, r7, r8, r9, sl, fp, lr}
 800a298:	b092      	sub	sp, #72	@ 0x48
 800a29a:	af00      	add	r7, sp, #0
 800a29c:	6178      	str	r0, [r7, #20]
 800a29e:	2300      	movs	r3, #0
 800a2a0:	f887 3042 	strb.w	r3, [r7, #66]	@ 0x42
 800a2a4:	697b      	ldr	r3, [r7, #20]
 800a2a6:	689a      	ldr	r2, [r3, #8]
 800a2a8:	697b      	ldr	r3, [r7, #20]
 800a2aa:	691b      	ldr	r3, [r3, #16]
 800a2ac:	431a      	orrs	r2, r3
 800a2ae:	697b      	ldr	r3, [r7, #20]
 800a2b0:	695b      	ldr	r3, [r3, #20]
 800a2b2:	431a      	orrs	r2, r3
 800a2b4:	697b      	ldr	r3, [r7, #20]
 800a2b6:	69db      	ldr	r3, [r3, #28]
 800a2b8:	4313      	orrs	r3, r2
 800a2ba:	647b      	str	r3, [r7, #68]	@ 0x44
 800a2bc:	697b      	ldr	r3, [r7, #20]
 800a2be:	681b      	ldr	r3, [r3, #0]
 800a2c0:	681a      	ldr	r2, [r3, #0]
 800a2c2:	4bbe      	ldr	r3, [pc, #760]	@ (800a5bc <UART_SetConfig+0x328>)
 800a2c4:	4013      	ands	r3, r2
 800a2c6:	697a      	ldr	r2, [r7, #20]
 800a2c8:	6812      	ldr	r2, [r2, #0]
 800a2ca:	6c79      	ldr	r1, [r7, #68]	@ 0x44
 800a2cc:	430b      	orrs	r3, r1
 800a2ce:	6013      	str	r3, [r2, #0]
 800a2d0:	697b      	ldr	r3, [r7, #20]
 800a2d2:	681b      	ldr	r3, [r3, #0]
 800a2d4:	685b      	ldr	r3, [r3, #4]
 800a2d6:	f423 5140 	bic.w	r1, r3, #12288	@ 0x3000
 800a2da:	697b      	ldr	r3, [r7, #20]
 800a2dc:	68da      	ldr	r2, [r3, #12]
 800a2de:	697b      	ldr	r3, [r7, #20]
 800a2e0:	681b      	ldr	r3, [r3, #0]
 800a2e2:	430a      	orrs	r2, r1
 800a2e4:	605a      	str	r2, [r3, #4]
 800a2e6:	697b      	ldr	r3, [r7, #20]
 800a2e8:	699b      	ldr	r3, [r3, #24]
 800a2ea:	647b      	str	r3, [r7, #68]	@ 0x44
 800a2ec:	697b      	ldr	r3, [r7, #20]
 800a2ee:	681b      	ldr	r3, [r3, #0]
 800a2f0:	4ab3      	ldr	r2, [pc, #716]	@ (800a5c0 <UART_SetConfig+0x32c>)
 800a2f2:	4293      	cmp	r3, r2
 800a2f4:	d004      	beq.n	800a300 <UART_SetConfig+0x6c>
 800a2f6:	697b      	ldr	r3, [r7, #20]
 800a2f8:	6a1b      	ldr	r3, [r3, #32]
 800a2fa:	6c7a      	ldr	r2, [r7, #68]	@ 0x44
 800a2fc:	4313      	orrs	r3, r2
 800a2fe:	647b      	str	r3, [r7, #68]	@ 0x44
 800a300:	697b      	ldr	r3, [r7, #20]
 800a302:	681b      	ldr	r3, [r3, #0]
 800a304:	689a      	ldr	r2, [r3, #8]
 800a306:	4baf      	ldr	r3, [pc, #700]	@ (800a5c4 <UART_SetConfig+0x330>)
 800a308:	4013      	ands	r3, r2
 800a30a:	697a      	ldr	r2, [r7, #20]
 800a30c:	6812      	ldr	r2, [r2, #0]
 800a30e:	6c79      	ldr	r1, [r7, #68]	@ 0x44
 800a310:	430b      	orrs	r3, r1
 800a312:	6093      	str	r3, [r2, #8]
 800a314:	697b      	ldr	r3, [r7, #20]
 800a316:	681b      	ldr	r3, [r3, #0]
 800a318:	6adb      	ldr	r3, [r3, #44]	@ 0x2c
 800a31a:	f023 010f 	bic.w	r1, r3, #15
 800a31e:	697b      	ldr	r3, [r7, #20]
 800a320:	6a5a      	ldr	r2, [r3, #36]	@ 0x24
 800a322:	697b      	ldr	r3, [r7, #20]
 800a324:	681b      	ldr	r3, [r3, #0]
 800a326:	430a      	orrs	r2, r1
 800a328:	62da      	str	r2, [r3, #44]	@ 0x2c
 800a32a:	697b      	ldr	r3, [r7, #20]
 800a32c:	681b      	ldr	r3, [r3, #0]
 800a32e:	4aa6      	ldr	r2, [pc, #664]	@ (800a5c8 <UART_SetConfig+0x334>)
 800a330:	4293      	cmp	r3, r2
 800a332:	d177      	bne.n	800a424 <UART_SetConfig+0x190>
 800a334:	4ba5      	ldr	r3, [pc, #660]	@ (800a5cc <UART_SetConfig+0x338>)
 800a336:	6d5b      	ldr	r3, [r3, #84]	@ 0x54
 800a338:	f003 0338 	and.w	r3, r3, #56	@ 0x38
 800a33c:	2b28      	cmp	r3, #40	@ 0x28
 800a33e:	d86d      	bhi.n	800a41c <UART_SetConfig+0x188>
 800a340:	a201      	add	r2, pc, #4	@ (adr r2, 800a348 <UART_SetConfig+0xb4>)
 800a342:	f852 f023 	ldr.w	pc, [r2, r3, lsl #2]
 800a346:	bf00      	nop
 800a348:	0800a3ed 	.word	0x0800a3ed
 800a34c:	0800a41d 	.word	0x0800a41d
 800a350:	0800a41d 	.word	0x0800a41d
 800a354:	0800a41d 	.word	0x0800a41d
 800a358:	0800a41d 	.word	0x0800a41d
 800a35c:	0800a41d 	.word	0x0800a41d
 800a360:	0800a41d 	.word	0x0800a41d
 800a364:	0800a41d 	.word	0x0800a41d
 800a368:	0800a3f5 	.word	0x0800a3f5
 800a36c:	0800a41d 	.word	0x0800a41d
 800a370:	0800a41d 	.word	0x0800a41d
 800a374:	0800a41d 	.word	0x0800a41d
 800a378:	0800a41d 	.word	0x0800a41d
 800a37c:	0800a41d 	.word	0x0800a41d
 800a380:	0800a41d 	.word	0x0800a41d
 800a384:	0800a41d 	.word	0x0800a41d
 800a388:	0800a3fd 	.word	0x0800a3fd
 800a38c:	0800a41d 	.word	0x0800a41d
 800a390:	0800a41d 	.word	0x0800a41d
 800a394:	0800a41d 	.word	0x0800a41d
 800a398:	0800a41d 	.word	0x0800a41d
 800a39c:	0800a41d 	.word	0x0800a41d
 800a3a0:	0800a41d 	.word	0x0800a41d
 800a3a4:	0800a41d 	.word	0x0800a41d
 800a3a8:	0800a405 	.word	0x0800a405
 800a3ac:	0800a41d 	.word	0x0800a41d
 800a3b0:	0800a41d 	.word	0x0800a41d
 800a3b4:	0800a41d 	.word	0x0800a41d
 800a3b8:	0800a41d 	.word	0x0800a41d
 800a3bc:	0800a41d 	.word	0x0800a41d
 800a3c0:	0800a41d 	.word	0x0800a41d
 800a3c4:	0800a41d 	.word	0x0800a41d
 800a3c8:	0800a40d 	.word	0x0800a40d
 800a3cc:	0800a41d 	.word	0x0800a41d
 800a3d0:	0800a41d 	.word	0x0800a41d
 800a3d4:	0800a41d 	.word	0x0800a41d
 800a3d8:	0800a41d 	.word	0x0800a41d
 800a3dc:	0800a41d 	.word	0x0800a41d
 800a3e0:	0800a41d 	.word	0x0800a41d
 800a3e4:	0800a41d 	.word	0x0800a41d
 800a3e8:	0800a415 	.word	0x0800a415
 800a3ec:	2301      	movs	r3, #1
 800a3ee:	f887 3043 	strb.w	r3, [r7, #67]	@ 0x43
 800a3f2:	e326      	b.n	800aa42 <UART_SetConfig+0x7ae>
 800a3f4:	2304      	movs	r3, #4
 800a3f6:	f887 3043 	strb.w	r3, [r7, #67]	@ 0x43
 800a3fa:	e322      	b.n	800aa42 <UART_SetConfig+0x7ae>
 800a3fc:	2308      	movs	r3, #8
 800a3fe:	f887 3043 	strb.w	r3, [r7, #67]	@ 0x43
 800a402:	e31e      	b.n	800aa42 <UART_SetConfig+0x7ae>
 800a404:	2310      	movs	r3, #16
 800a406:	f887 3043 	strb.w	r3, [r7, #67]	@ 0x43
 800a40a:	e31a      	b.n	800aa42 <UART_SetConfig+0x7ae>
 800a40c:	2320      	movs	r3, #32
 800a40e:	f887 3043 	strb.w	r3, [r7, #67]	@ 0x43
 800a412:	e316      	b.n	800aa42 <UART_SetConfig+0x7ae>
 800a414:	2340      	movs	r3, #64	@ 0x40
 800a416:	f887 3043 	strb.w	r3, [r7, #67]	@ 0x43
 800a41a:	e312      	b.n	800aa42 <UART_SetConfig+0x7ae>
 800a41c:	2380      	movs	r3, #128	@ 0x80
 800a41e:	f887 3043 	strb.w	r3, [r7, #67]	@ 0x43
 800a422:	e30e      	b.n	800aa42 <UART_SetConfig+0x7ae>
 800a424:	697b      	ldr	r3, [r7, #20]
 800a426:	681b      	ldr	r3, [r3, #0]
 800a428:	4a69      	ldr	r2, [pc, #420]	@ (800a5d0 <UART_SetConfig+0x33c>)
 800a42a:	4293      	cmp	r3, r2
 800a42c:	d130      	bne.n	800a490 <UART_SetConfig+0x1fc>
 800a42e:	4b67      	ldr	r3, [pc, #412]	@ (800a5cc <UART_SetConfig+0x338>)
 800a430:	6d5b      	ldr	r3, [r3, #84]	@ 0x54
 800a432:	f003 0307 	and.w	r3, r3, #7
 800a436:	2b05      	cmp	r3, #5
 800a438:	d826      	bhi.n	800a488 <UART_SetConfig+0x1f4>
 800a43a:	a201      	add	r2, pc, #4	@ (adr r2, 800a440 <UART_SetConfig+0x1ac>)
 800a43c:	f852 f023 	ldr.w	pc, [r2, r3, lsl #2]
 800a440:	0800a459 	.word	0x0800a459
 800a444:	0800a461 	.word	0x0800a461
 800a448:	0800a469 	.word	0x0800a469
 800a44c:	0800a471 	.word	0x0800a471
 800a450:	0800a479 	.word	0x0800a479
 800a454:	0800a481 	.word	0x0800a481
 800a458:	2300      	movs	r3, #0
 800a45a:	f887 3043 	strb.w	r3, [r7, #67]	@ 0x43
 800a45e:	e2f0      	b.n	800aa42 <UART_SetConfig+0x7ae>
 800a460:	2304      	movs	r3, #4
 800a462:	f887 3043 	strb.w	r3, [r7, #67]	@ 0x43
 800a466:	e2ec      	b.n	800aa42 <UART_SetConfig+0x7ae>
 800a468:	2308      	movs	r3, #8
 800a46a:	f887 3043 	strb.w	r3, [r7, #67]	@ 0x43
 800a46e:	e2e8      	b.n	800aa42 <UART_SetConfig+0x7ae>
 800a470:	2310      	movs	r3, #16
 800a472:	f887 3043 	strb.w	r3, [r7, #67]	@ 0x43
 800a476:	e2e4      	b.n	800aa42 <UART_SetConfig+0x7ae>
 800a478:	2320      	movs	r3, #32
 800a47a:	f887 3043 	strb.w	r3, [r7, #67]	@ 0x43
 800a47e:	e2e0      	b.n	800aa42 <UART_SetConfig+0x7ae>
 800a480:	2340      	movs	r3, #64	@ 0x40
 800a482:	f887 3043 	strb.w	r3, [r7, #67]	@ 0x43
 800a486:	e2dc      	b.n	800aa42 <UART_SetConfig+0x7ae>
 800a488:	2380      	movs	r3, #128	@ 0x80
 800a48a:	f887 3043 	strb.w	r3, [r7, #67]	@ 0x43
 800a48e:	e2d8      	b.n	800aa42 <UART_SetConfig+0x7ae>
 800a490:	697b      	ldr	r3, [r7, #20]
 800a492:	681b      	ldr	r3, [r3, #0]
 800a494:	4a4f      	ldr	r2, [pc, #316]	@ (800a5d4 <UART_SetConfig+0x340>)
 800a496:	4293      	cmp	r3, r2
 800a498:	d130      	bne.n	800a4fc <UART_SetConfig+0x268>
 800a49a:	4b4c      	ldr	r3, [pc, #304]	@ (800a5cc <UART_SetConfig+0x338>)
 800a49c:	6d5b      	ldr	r3, [r3, #84]	@ 0x54
 800a49e:	f003 0307 	and.w	r3, r3, #7
 800a4a2:	2b05      	cmp	r3, #5
 800a4a4:	d826      	bhi.n	800a4f4 <UART_SetConfig+0x260>
 800a4a6:	a201      	add	r2, pc, #4	@ (adr r2, 800a4ac <UART_SetConfig+0x218>)
 800a4a8:	f852 f023 	ldr.w	pc, [r2, r3, lsl #2]
 800a4ac:	0800a4c5 	.word	0x0800a4c5
 800a4b0:	0800a4cd 	.word	0x0800a4cd
 800a4b4:	0800a4d5 	.word	0x0800a4d5
 800a4b8:	0800a4dd 	.word	0x0800a4dd
 800a4bc:	0800a4e5 	.word	0x0800a4e5
 800a4c0:	0800a4ed 	.word	0x0800a4ed
 800a4c4:	2300      	movs	r3, #0
 800a4c6:	f887 3043 	strb.w	r3, [r7, #67]	@ 0x43
 800a4ca:	e2ba      	b.n	800aa42 <UART_SetConfig+0x7ae>
 800a4cc:	2304      	movs	r3, #4
 800a4ce:	f887 3043 	strb.w	r3, [r7, #67]	@ 0x43
 800a4d2:	e2b6      	b.n	800aa42 <UART_SetConfig+0x7ae>
 800a4d4:	2308      	movs	r3, #8
 800a4d6:	f887 3043 	strb.w	r3, [r7, #67]	@ 0x43
 800a4da:	e2b2      	b.n	800aa42 <UART_SetConfig+0x7ae>
 800a4dc:	2310      	movs	r3, #16
 800a4de:	f887 3043 	strb.w	r3, [r7, #67]	@ 0x43
 800a4e2:	e2ae      	b.n	800aa42 <UART_SetConfig+0x7ae>
 800a4e4:	2320      	movs	r3, #32
 800a4e6:	f887 3043 	strb.w	r3, [r7, #67]	@ 0x43
 800a4ea:	e2aa      	b.n	800aa42 <UART_SetConfig+0x7ae>
 800a4ec:	2340      	movs	r3, #64	@ 0x40
 800a4ee:	f887 3043 	strb.w	r3, [r7, #67]	@ 0x43
 800a4f2:	e2a6      	b.n	800aa42 <UART_SetConfig+0x7ae>
 800a4f4:	2380      	movs	r3, #128	@ 0x80
 800a4f6:	f887 3043 	strb.w	r3, [r7, #67]	@ 0x43
 800a4fa:	e2a2      	b.n	800aa42 <UART_SetConfig+0x7ae>
 800a4fc:	697b      	ldr	r3, [r7, #20]
 800a4fe:	681b      	ldr	r3, [r3, #0]
 800a500:	4a35      	ldr	r2, [pc, #212]	@ (800a5d8 <UART_SetConfig+0x344>)
 800a502:	4293      	cmp	r3, r2
 800a504:	d130      	bne.n	800a568 <UART_SetConfig+0x2d4>
 800a506:	4b31      	ldr	r3, [pc, #196]	@ (800a5cc <UART_SetConfig+0x338>)
 800a508:	6d5b      	ldr	r3, [r3, #84]	@ 0x54
 800a50a:	f003 0307 	and.w	r3, r3, #7
 800a50e:	2b05      	cmp	r3, #5
 800a510:	d826      	bhi.n	800a560 <UART_SetConfig+0x2cc>
 800a512:	a201      	add	r2, pc, #4	@ (adr r2, 800a518 <UART_SetConfig+0x284>)
 800a514:	f852 f023 	ldr.w	pc, [r2, r3, lsl #2]
 800a518:	0800a531 	.word	0x0800a531
 800a51c:	0800a539 	.word	0x0800a539
 800a520:	0800a541 	.word	0x0800a541
 800a524:	0800a549 	.word	0x0800a549
 800a528:	0800a551 	.word	0x0800a551
 800a52c:	0800a559 	.word	0x0800a559
 800a530:	2300      	movs	r3, #0
 800a532:	f887 3043 	strb.w	r3, [r7, #67]	@ 0x43
 800a536:	e284      	b.n	800aa42 <UART_SetConfig+0x7ae>
 800a538:	2304      	movs	r3, #4
 800a53a:	f887 3043 	strb.w	r3, [r7, #67]	@ 0x43
 800a53e:	e280      	b.n	800aa42 <UART_SetConfig+0x7ae>
 800a540:	2308      	movs	r3, #8
 800a542:	f887 3043 	strb.w	r3, [r7, #67]	@ 0x43
 800a546:	e27c      	b.n	800aa42 <UART_SetConfig+0x7ae>
 800a548:	2310      	movs	r3, #16
 800a54a:	f887 3043 	strb.w	r3, [r7, #67]	@ 0x43
 800a54e:	e278      	b.n	800aa42 <UART_SetConfig+0x7ae>
 800a550:	2320      	movs	r3, #32
 800a552:	f887 3043 	strb.w	r3, [r7, #67]	@ 0x43
 800a556:	e274      	b.n	800aa42 <UART_SetConfig+0x7ae>
 800a558:	2340      	movs	r3, #64	@ 0x40
 800a55a:	f887 3043 	strb.w	r3, [r7, #67]	@ 0x43
 800a55e:	e270      	b.n	800aa42 <UART_SetConfig+0x7ae>
 800a560:	2380      	movs	r3, #128	@ 0x80
 800a562:	f887 3043 	strb.w	r3, [r7, #67]	@ 0x43
 800a566:	e26c      	b.n	800aa42 <UART_SetConfig+0x7ae>
 800a568:	697b      	ldr	r3, [r7, #20]
 800a56a:	681b      	ldr	r3, [r3, #0]
 800a56c:	4a1b      	ldr	r2, [pc, #108]	@ (800a5dc <UART_SetConfig+0x348>)
 800a56e:	4293      	cmp	r3, r2
 800a570:	d142      	bne.n	800a5f8 <UART_SetConfig+0x364>
 800a572:	4b16      	ldr	r3, [pc, #88]	@ (800a5cc <UART_SetConfig+0x338>)
 800a574:	6d5b      	ldr	r3, [r3, #84]	@ 0x54
 800a576:	f003 0307 	and.w	r3, r3, #7
 800a57a:	2b05      	cmp	r3, #5
 800a57c:	d838      	bhi.n	800a5f0 <UART_SetConfig+0x35c>
 800a57e:	a201      	add	r2, pc, #4	@ (adr r2, 800a584 <UART_SetConfig+0x2f0>)
 800a580:	f852 f023 	ldr.w	pc, [r2, r3, lsl #2]
 800a584:	0800a59d 	.word	0x0800a59d
 800a588:	0800a5a5 	.word	0x0800a5a5
 800a58c:	0800a5ad 	.word	0x0800a5ad
 800a590:	0800a5b5 	.word	0x0800a5b5
 800a594:	0800a5e1 	.word	0x0800a5e1
 800a598:	0800a5e9 	.word	0x0800a5e9
 800a59c:	2300      	movs	r3, #0
 800a59e:	f887 3043 	strb.w	r3, [r7, #67]	@ 0x43
 800a5a2:	e24e      	b.n	800aa42 <UART_SetConfig+0x7ae>
 800a5a4:	2304      	movs	r3, #4
 800a5a6:	f887 3043 	strb.w	r3, [r7, #67]	@ 0x43
 800a5aa:	e24a      	b.n	800aa42 <UART_SetConfig+0x7ae>
 800a5ac:	2308      	movs	r3, #8
 800a5ae:	f887 3043 	strb.w	r3, [r7, #67]	@ 0x43
 800a5b2:	e246      	b.n	800aa42 <UART_SetConfig+0x7ae>
 800a5b4:	2310      	movs	r3, #16
 800a5b6:	f887 3043 	strb.w	r3, [r7, #67]	@ 0x43
 800a5ba:	e242      	b.n	800aa42 <UART_SetConfig+0x7ae>
 800a5bc:	cfff69f3 	.word	0xcfff69f3
 800a5c0:	58000c00 	.word	0x58000c00
 800a5c4:	11fff4ff 	.word	0x11fff4ff
 800a5c8:	40011000 	.word	0x40011000
 800a5cc:	58024400 	.word	0x58024400
 800a5d0:	40004400 	.word	0x40004400
 800a5d4:	40004800 	.word	0x40004800
 800a5d8:	40004c00 	.word	0x40004c00
 800a5dc:	40005000 	.word	0x40005000
 800a5e0:	2320      	movs	r3, #32
 800a5e2:	f887 3043 	strb.w	r3, [r7, #67]	@ 0x43
 800a5e6:	e22c      	b.n	800aa42 <UART_SetConfig+0x7ae>
 800a5e8:	2340      	movs	r3, #64	@ 0x40
 800a5ea:	f887 3043 	strb.w	r3, [r7, #67]	@ 0x43
 800a5ee:	e228      	b.n	800aa42 <UART_SetConfig+0x7ae>
 800a5f0:	2380      	movs	r3, #128	@ 0x80
 800a5f2:	f887 3043 	strb.w	r3, [r7, #67]	@ 0x43
 800a5f6:	e224      	b.n	800aa42 <UART_SetConfig+0x7ae>
 800a5f8:	697b      	ldr	r3, [r7, #20]
 800a5fa:	681b      	ldr	r3, [r3, #0]
 800a5fc:	4ab1      	ldr	r2, [pc, #708]	@ (800a8c4 <UART_SetConfig+0x630>)
 800a5fe:	4293      	cmp	r3, r2
 800a600:	d176      	bne.n	800a6f0 <UART_SetConfig+0x45c>
 800a602:	4bb1      	ldr	r3, [pc, #708]	@ (800a8c8 <UART_SetConfig+0x634>)
 800a604:	6d5b      	ldr	r3, [r3, #84]	@ 0x54
 800a606:	f003 0338 	and.w	r3, r3, #56	@ 0x38
 800a60a:	2b28      	cmp	r3, #40	@ 0x28
 800a60c:	d86c      	bhi.n	800a6e8 <UART_SetConfig+0x454>
 800a60e:	a201      	add	r2, pc, #4	@ (adr r2, 800a614 <UART_SetConfig+0x380>)
 800a610:	f852 f023 	ldr.w	pc, [r2, r3, lsl #2]
 800a614:	0800a6b9 	.word	0x0800a6b9
 800a618:	0800a6e9 	.word	0x0800a6e9
 800a61c:	0800a6e9 	.word	0x0800a6e9
 800a620:	0800a6e9 	.word	0x0800a6e9
 800a624:	0800a6e9 	.word	0x0800a6e9
 800a628:	0800a6e9 	.word	0x0800a6e9
 800a62c:	0800a6e9 	.word	0x0800a6e9
 800a630:	0800a6e9 	.word	0x0800a6e9
 800a634:	0800a6c1 	.word	0x0800a6c1
 800a638:	0800a6e9 	.word	0x0800a6e9
 800a63c:	0800a6e9 	.word	0x0800a6e9
 800a640:	0800a6e9 	.word	0x0800a6e9
 800a644:	0800a6e9 	.word	0x0800a6e9
 800a648:	0800a6e9 	.word	0x0800a6e9
 800a64c:	0800a6e9 	.word	0x0800a6e9
 800a650:	0800a6e9 	.word	0x0800a6e9
 800a654:	0800a6c9 	.word	0x0800a6c9
 800a658:	0800a6e9 	.word	0x0800a6e9
 800a65c:	0800a6e9 	.word	0x0800a6e9
 800a660:	0800a6e9 	.word	0x0800a6e9
 800a664:	0800a6e9 	.word	0x0800a6e9
 800a668:	0800a6e9 	.word	0x0800a6e9
 800a66c:	0800a6e9 	.word	0x0800a6e9
 800a670:	0800a6e9 	.word	0x0800a6e9
 800a674:	0800a6d1 	.word	0x0800a6d1
 800a678:	0800a6e9 	.word	0x0800a6e9
 800a67c:	0800a6e9 	.word	0x0800a6e9
 800a680:	0800a6e9 	.word	0x0800a6e9
 800a684:	0800a6e9 	.word	0x0800a6e9
 800a688:	0800a6e9 	.word	0x0800a6e9
 800a68c:	0800a6e9 	.word	0x0800a6e9
 800a690:	0800a6e9 	.word	0x0800a6e9
 800a694:	0800a6d9 	.word	0x0800a6d9
 800a698:	0800a6e9 	.word	0x0800a6e9
 800a69c:	0800a6e9 	.word	0x0800a6e9
 800a6a0:	0800a6e9 	.word	0x0800a6e9
 800a6a4:	0800a6e9 	.word	0x0800a6e9
 800a6a8:	0800a6e9 	.word	0x0800a6e9
 800a6ac:	0800a6e9 	.word	0x0800a6e9
 800a6b0:	0800a6e9 	.word	0x0800a6e9
 800a6b4:	0800a6e1 	.word	0x0800a6e1
 800a6b8:	2301      	movs	r3, #1
 800a6ba:	f887 3043 	strb.w	r3, [r7, #67]	@ 0x43
 800a6be:	e1c0      	b.n	800aa42 <UART_SetConfig+0x7ae>
 800a6c0:	2304      	movs	r3, #4
 800a6c2:	f887 3043 	strb.w	r3, [r7, #67]	@ 0x43
 800a6c6:	e1bc      	b.n	800aa42 <UART_SetConfig+0x7ae>
 800a6c8:	2308      	movs	r3, #8
 800a6ca:	f887 3043 	strb.w	r3, [r7, #67]	@ 0x43
 800a6ce:	e1b8      	b.n	800aa42 <UART_SetConfig+0x7ae>
 800a6d0:	2310      	movs	r3, #16
 800a6d2:	f887 3043 	strb.w	r3, [r7, #67]	@ 0x43
 800a6d6:	e1b4      	b.n	800aa42 <UART_SetConfig+0x7ae>
 800a6d8:	2320      	movs	r3, #32
 800a6da:	f887 3043 	strb.w	r3, [r7, #67]	@ 0x43
 800a6de:	e1b0      	b.n	800aa42 <UART_SetConfig+0x7ae>
 800a6e0:	2340      	movs	r3, #64	@ 0x40
 800a6e2:	f887 3043 	strb.w	r3, [r7, #67]	@ 0x43
 800a6e6:	e1ac      	b.n	800aa42 <UART_SetConfig+0x7ae>
 800a6e8:	2380      	movs	r3, #128	@ 0x80
 800a6ea:	f887 3043 	strb.w	r3, [r7, #67]	@ 0x43
 800a6ee:	e1a8      	b.n	800aa42 <UART_SetConfig+0x7ae>
 800a6f0:	697b      	ldr	r3, [r7, #20]
 800a6f2:	681b      	ldr	r3, [r3, #0]
 800a6f4:	4a75      	ldr	r2, [pc, #468]	@ (800a8cc <UART_SetConfig+0x638>)
 800a6f6:	4293      	cmp	r3, r2
 800a6f8:	d130      	bne.n	800a75c <UART_SetConfig+0x4c8>
 800a6fa:	4b73      	ldr	r3, [pc, #460]	@ (800a8c8 <UART_SetConfig+0x634>)
 800a6fc:	6d5b      	ldr	r3, [r3, #84]	@ 0x54
 800a6fe:	f003 0307 	and.w	r3, r3, #7
 800a702:	2b05      	cmp	r3, #5
 800a704:	d826      	bhi.n	800a754 <UART_SetConfig+0x4c0>
 800a706:	a201      	add	r2, pc, #4	@ (adr r2, 800a70c <UART_SetConfig+0x478>)
 800a708:	f852 f023 	ldr.w	pc, [r2, r3, lsl #2]
 800a70c:	0800a725 	.word	0x0800a725
 800a710:	0800a72d 	.word	0x0800a72d
 800a714:	0800a735 	.word	0x0800a735
 800a718:	0800a73d 	.word	0x0800a73d
 800a71c:	0800a745 	.word	0x0800a745
 800a720:	0800a74d 	.word	0x0800a74d
 800a724:	2300      	movs	r3, #0
 800a726:	f887 3043 	strb.w	r3, [r7, #67]	@ 0x43
 800a72a:	e18a      	b.n	800aa42 <UART_SetConfig+0x7ae>
 800a72c:	2304      	movs	r3, #4
 800a72e:	f887 3043 	strb.w	r3, [r7, #67]	@ 0x43
 800a732:	e186      	b.n	800aa42 <UART_SetConfig+0x7ae>
 800a734:	2308      	movs	r3, #8
 800a736:	f887 3043 	strb.w	r3, [r7, #67]	@ 0x43
 800a73a:	e182      	b.n	800aa42 <UART_SetConfig+0x7ae>
 800a73c:	2310      	movs	r3, #16
 800a73e:	f887 3043 	strb.w	r3, [r7, #67]	@ 0x43
 800a742:	e17e      	b.n	800aa42 <UART_SetConfig+0x7ae>
 800a744:	2320      	movs	r3, #32
 800a746:	f887 3043 	strb.w	r3, [r7, #67]	@ 0x43
 800a74a:	e17a      	b.n	800aa42 <UART_SetConfig+0x7ae>
 800a74c:	2340      	movs	r3, #64	@ 0x40
 800a74e:	f887 3043 	strb.w	r3, [r7, #67]	@ 0x43
 800a752:	e176      	b.n	800aa42 <UART_SetConfig+0x7ae>
 800a754:	2380      	movs	r3, #128	@ 0x80
 800a756:	f887 3043 	strb.w	r3, [r7, #67]	@ 0x43
 800a75a:	e172      	b.n	800aa42 <UART_SetConfig+0x7ae>
 800a75c:	697b      	ldr	r3, [r7, #20]
 800a75e:	681b      	ldr	r3, [r3, #0]
 800a760:	4a5b      	ldr	r2, [pc, #364]	@ (800a8d0 <UART_SetConfig+0x63c>)
 800a762:	4293      	cmp	r3, r2
 800a764:	d130      	bne.n	800a7c8 <UART_SetConfig+0x534>
 800a766:	4b58      	ldr	r3, [pc, #352]	@ (800a8c8 <UART_SetConfig+0x634>)
 800a768:	6d5b      	ldr	r3, [r3, #84]	@ 0x54
 800a76a:	f003 0307 	and.w	r3, r3, #7
 800a76e:	2b05      	cmp	r3, #5
 800a770:	d826      	bhi.n	800a7c0 <UART_SetConfig+0x52c>
 800a772:	a201      	add	r2, pc, #4	@ (adr r2, 800a778 <UART_SetConfig+0x4e4>)
 800a774:	f852 f023 	ldr.w	pc, [r2, r3, lsl #2]
 800a778:	0800a791 	.word	0x0800a791
 800a77c:	0800a799 	.word	0x0800a799
 800a780:	0800a7a1 	.word	0x0800a7a1
 800a784:	0800a7a9 	.word	0x0800a7a9
 800a788:	0800a7b1 	.word	0x0800a7b1
 800a78c:	0800a7b9 	.word	0x0800a7b9
 800a790:	2300      	movs	r3, #0
 800a792:	f887 3043 	strb.w	r3, [r7, #67]	@ 0x43
 800a796:	e154      	b.n	800aa42 <UART_SetConfig+0x7ae>
 800a798:	2304      	movs	r3, #4
 800a79a:	f887 3043 	strb.w	r3, [r7, #67]	@ 0x43
 800a79e:	e150      	b.n	800aa42 <UART_SetConfig+0x7ae>
 800a7a0:	2308      	movs	r3, #8
 800a7a2:	f887 3043 	strb.w	r3, [r7, #67]	@ 0x43
 800a7a6:	e14c      	b.n	800aa42 <UART_SetConfig+0x7ae>
 800a7a8:	2310      	movs	r3, #16
 800a7aa:	f887 3043 	strb.w	r3, [r7, #67]	@ 0x43
 800a7ae:	e148      	b.n	800aa42 <UART_SetConfig+0x7ae>
 800a7b0:	2320      	movs	r3, #32
 800a7b2:	f887 3043 	strb.w	r3, [r7, #67]	@ 0x43
 800a7b6:	e144      	b.n	800aa42 <UART_SetConfig+0x7ae>
 800a7b8:	2340      	movs	r3, #64	@ 0x40
 800a7ba:	f887 3043 	strb.w	r3, [r7, #67]	@ 0x43
 800a7be:	e140      	b.n	800aa42 <UART_SetConfig+0x7ae>
 800a7c0:	2380      	movs	r3, #128	@ 0x80
 800a7c2:	f887 3043 	strb.w	r3, [r7, #67]	@ 0x43
 800a7c6:	e13c      	b.n	800aa42 <UART_SetConfig+0x7ae>
 800a7c8:	697b      	ldr	r3, [r7, #20]
 800a7ca:	681b      	ldr	r3, [r3, #0]
 800a7cc:	4a41      	ldr	r2, [pc, #260]	@ (800a8d4 <UART_SetConfig+0x640>)
 800a7ce:	4293      	cmp	r3, r2
 800a7d0:	f040 8082 	bne.w	800a8d8 <UART_SetConfig+0x644>
 800a7d4:	4b3c      	ldr	r3, [pc, #240]	@ (800a8c8 <UART_SetConfig+0x634>)
 800a7d6:	6d5b      	ldr	r3, [r3, #84]	@ 0x54
 800a7d8:	f003 0338 	and.w	r3, r3, #56	@ 0x38
 800a7dc:	2b28      	cmp	r3, #40	@ 0x28
 800a7de:	d86d      	bhi.n	800a8bc <UART_SetConfig+0x628>
 800a7e0:	a201      	add	r2, pc, #4	@ (adr r2, 800a7e8 <UART_SetConfig+0x554>)
 800a7e2:	f852 f023 	ldr.w	pc, [r2, r3, lsl #2]
 800a7e6:	bf00      	nop
 800a7e8:	0800a88d 	.word	0x0800a88d
 800a7ec:	0800a8bd 	.word	0x0800a8bd
 800a7f0:	0800a8bd 	.word	0x0800a8bd
 800a7f4:	0800a8bd 	.word	0x0800a8bd
 800a7f8:	0800a8bd 	.word	0x0800a8bd
 800a7fc:	0800a8bd 	.word	0x0800a8bd
 800a800:	0800a8bd 	.word	0x0800a8bd
 800a804:	0800a8bd 	.word	0x0800a8bd
 800a808:	0800a895 	.word	0x0800a895
 800a80c:	0800a8bd 	.word	0x0800a8bd
 800a810:	0800a8bd 	.word	0x0800a8bd
 800a814:	0800a8bd 	.word	0x0800a8bd
 800a818:	0800a8bd 	.word	0x0800a8bd
 800a81c:	0800a8bd 	.word	0x0800a8bd
 800a820:	0800a8bd 	.word	0x0800a8bd
 800a824:	0800a8bd 	.word	0x0800a8bd
 800a828:	0800a89d 	.word	0x0800a89d
 800a82c:	0800a8bd 	.word	0x0800a8bd
 800a830:	0800a8bd 	.word	0x0800a8bd
 800a834:	0800a8bd 	.word	0x0800a8bd
 800a838:	0800a8bd 	.word	0x0800a8bd
 800a83c:	0800a8bd 	.word	0x0800a8bd
 800a840:	0800a8bd 	.word	0x0800a8bd
 800a844:	0800a8bd 	.word	0x0800a8bd
 800a848:	0800a8a5 	.word	0x0800a8a5
 800a84c:	0800a8bd 	.word	0x0800a8bd
 800a850:	0800a8bd 	.word	0x0800a8bd
 800a854:	0800a8bd 	.word	0x0800a8bd
 800a858:	0800a8bd 	.word	0x0800a8bd
 800a85c:	0800a8bd 	.word	0x0800a8bd
 800a860:	0800a8bd 	.word	0x0800a8bd
 800a864:	0800a8bd 	.word	0x0800a8bd
 800a868:	0800a8ad 	.word	0x0800a8ad
 800a86c:	0800a8bd 	.word	0x0800a8bd
 800a870:	0800a8bd 	.word	0x0800a8bd
 800a874:	0800a8bd 	.word	0x0800a8bd
 800a878:	0800a8bd 	.word	0x0800a8bd
 800a87c:	0800a8bd 	.word	0x0800a8bd
 800a880:	0800a8bd 	.word	0x0800a8bd
 800a884:	0800a8bd 	.word	0x0800a8bd
 800a888:	0800a8b5 	.word	0x0800a8b5
 800a88c:	2301      	movs	r3, #1
 800a88e:	f887 3043 	strb.w	r3, [r7, #67]	@ 0x43
 800a892:	e0d6      	b.n	800aa42 <UART_SetConfig+0x7ae>
 800a894:	2304      	movs	r3, #4
 800a896:	f887 3043 	strb.w	r3, [r7, #67]	@ 0x43
 800a89a:	e0d2      	b.n	800aa42 <UART_SetConfig+0x7ae>
 800a89c:	2308      	movs	r3, #8
 800a89e:	f887 3043 	strb.w	r3, [r7, #67]	@ 0x43
 800a8a2:	e0ce      	b.n	800aa42 <UART_SetConfig+0x7ae>
 800a8a4:	2310      	movs	r3, #16
 800a8a6:	f887 3043 	strb.w	r3, [r7, #67]	@ 0x43
 800a8aa:	e0ca      	b.n	800aa42 <UART_SetConfig+0x7ae>
 800a8ac:	2320      	movs	r3, #32
 800a8ae:	f887 3043 	strb.w	r3, [r7, #67]	@ 0x43
 800a8b2:	e0c6      	b.n	800aa42 <UART_SetConfig+0x7ae>
 800a8b4:	2340      	movs	r3, #64	@ 0x40
 800a8b6:	f887 3043 	strb.w	r3, [r7, #67]	@ 0x43
 800a8ba:	e0c2      	b.n	800aa42 <UART_SetConfig+0x7ae>
 800a8bc:	2380      	movs	r3, #128	@ 0x80
 800a8be:	f887 3043 	strb.w	r3, [r7, #67]	@ 0x43
 800a8c2:	e0be      	b.n	800aa42 <UART_SetConfig+0x7ae>
 800a8c4:	40011400 	.word	0x40011400
 800a8c8:	58024400 	.word	0x58024400
 800a8cc:	40007800 	.word	0x40007800
 800a8d0:	40007c00 	.word	0x40007c00
 800a8d4:	40011800 	.word	0x40011800
 800a8d8:	697b      	ldr	r3, [r7, #20]
 800a8da:	681b      	ldr	r3, [r3, #0]
 800a8dc:	4aad      	ldr	r2, [pc, #692]	@ (800ab94 <UART_SetConfig+0x900>)
 800a8de:	4293      	cmp	r3, r2
 800a8e0:	d176      	bne.n	800a9d0 <UART_SetConfig+0x73c>
 800a8e2:	4bad      	ldr	r3, [pc, #692]	@ (800ab98 <UART_SetConfig+0x904>)
 800a8e4:	6d5b      	ldr	r3, [r3, #84]	@ 0x54
 800a8e6:	f003 0338 	and.w	r3, r3, #56	@ 0x38
 800a8ea:	2b28      	cmp	r3, #40	@ 0x28
 800a8ec:	d86c      	bhi.n	800a9c8 <UART_SetConfig+0x734>
 800a8ee:	a201      	add	r2, pc, #4	@ (adr r2, 800a8f4 <UART_SetConfig+0x660>)
 800a8f0:	f852 f023 	ldr.w	pc, [r2, r3, lsl #2]
 800a8f4:	0800a999 	.word	0x0800a999
 800a8f8:	0800a9c9 	.word	0x0800a9c9
 800a8fc:	0800a9c9 	.word	0x0800a9c9
 800a900:	0800a9c9 	.word	0x0800a9c9
 800a904:	0800a9c9 	.word	0x0800a9c9
 800a908:	0800a9c9 	.word	0x0800a9c9
 800a90c:	0800a9c9 	.word	0x0800a9c9
 800a910:	0800a9c9 	.word	0x0800a9c9
 800a914:	0800a9a1 	.word	0x0800a9a1
 800a918:	0800a9c9 	.word	0x0800a9c9
 800a91c:	0800a9c9 	.word	0x0800a9c9
 800a920:	0800a9c9 	.word	0x0800a9c9
 800a924:	0800a9c9 	.word	0x0800a9c9
 800a928:	0800a9c9 	.word	0x0800a9c9
 800a92c:	0800a9c9 	.word	0x0800a9c9
 800a930:	0800a9c9 	.word	0x0800a9c9
 800a934:	0800a9a9 	.word	0x0800a9a9
 800a938:	0800a9c9 	.word	0x0800a9c9
 800a93c:	0800a9c9 	.word	0x0800a9c9
 800a940:	0800a9c9 	.word	0x0800a9c9
 800a944:	0800a9c9 	.word	0x0800a9c9
 800a948:	0800a9c9 	.word	0x0800a9c9
 800a94c:	0800a9c9 	.word	0x0800a9c9
 800a950:	0800a9c9 	.word	0x0800a9c9
 800a954:	0800a9b1 	.word	0x0800a9b1
 800a958:	0800a9c9 	.word	0x0800a9c9
 800a95c:	0800a9c9 	.word	0x0800a9c9
 800a960:	0800a9c9 	.word	0x0800a9c9
 800a964:	0800a9c9 	.word	0x0800a9c9
 800a968:	0800a9c9 	.word	0x0800a9c9
 800a96c:	0800a9c9 	.word	0x0800a9c9
 800a970:	0800a9c9 	.word	0x0800a9c9
 800a974:	0800a9b9 	.word	0x0800a9b9
 800a978:	0800a9c9 	.word	0x0800a9c9
 800a97c:	0800a9c9 	.word	0x0800a9c9
 800a980:	0800a9c9 	.word	0x0800a9c9
 800a984:	0800a9c9 	.word	0x0800a9c9
 800a988:	0800a9c9 	.word	0x0800a9c9
 800a98c:	0800a9c9 	.word	0x0800a9c9
 800a990:	0800a9c9 	.word	0x0800a9c9
 800a994:	0800a9c1 	.word	0x0800a9c1
 800a998:	2301      	movs	r3, #1
 800a99a:	f887 3043 	strb.w	r3, [r7, #67]	@ 0x43
 800a99e:	e050      	b.n	800aa42 <UART_SetConfig+0x7ae>
 800a9a0:	2304      	movs	r3, #4
 800a9a2:	f887 3043 	strb.w	r3, [r7, #67]	@ 0x43
 800a9a6:	e04c      	b.n	800aa42 <UART_SetConfig+0x7ae>
 800a9a8:	2308      	movs	r3, #8
 800a9aa:	f887 3043 	strb.w	r3, [r7, #67]	@ 0x43
 800a9ae:	e048      	b.n	800aa42 <UART_SetConfig+0x7ae>
 800a9b0:	2310      	movs	r3, #16
 800a9b2:	f887 3043 	strb.w	r3, [r7, #67]	@ 0x43
 800a9b6:	e044      	b.n	800aa42 <UART_SetConfig+0x7ae>
 800a9b8:	2320      	movs	r3, #32
 800a9ba:	f887 3043 	strb.w	r3, [r7, #67]	@ 0x43
 800a9be:	e040      	b.n	800aa42 <UART_SetConfig+0x7ae>
 800a9c0:	2340      	movs	r3, #64	@ 0x40
 800a9c2:	f887 3043 	strb.w	r3, [r7, #67]	@ 0x43
 800a9c6:	e03c      	b.n	800aa42 <UART_SetConfig+0x7ae>
 800a9c8:	2380      	movs	r3, #128	@ 0x80
 800a9ca:	f887 3043 	strb.w	r3, [r7, #67]	@ 0x43
 800a9ce:	e038      	b.n	800aa42 <UART_SetConfig+0x7ae>
 800a9d0:	697b      	ldr	r3, [r7, #20]
 800a9d2:	681b      	ldr	r3, [r3, #0]
 800a9d4:	4a71      	ldr	r2, [pc, #452]	@ (800ab9c <UART_SetConfig+0x908>)
 800a9d6:	4293      	cmp	r3, r2
 800a9d8:	d130      	bne.n	800aa3c <UART_SetConfig+0x7a8>
 800a9da:	4b6f      	ldr	r3, [pc, #444]	@ (800ab98 <UART_SetConfig+0x904>)
 800a9dc:	6d9b      	ldr	r3, [r3, #88]	@ 0x58
 800a9de:	f003 0307 	and.w	r3, r3, #7
 800a9e2:	2b05      	cmp	r3, #5
 800a9e4:	d826      	bhi.n	800aa34 <UART_SetConfig+0x7a0>
 800a9e6:	a201      	add	r2, pc, #4	@ (adr r2, 800a9ec <UART_SetConfig+0x758>)
 800a9e8:	f852 f023 	ldr.w	pc, [r2, r3, lsl #2]
 800a9ec:	0800aa05 	.word	0x0800aa05
 800a9f0:	0800aa0d 	.word	0x0800aa0d
 800a9f4:	0800aa15 	.word	0x0800aa15
 800a9f8:	0800aa1d 	.word	0x0800aa1d
 800a9fc:	0800aa25 	.word	0x0800aa25
 800aa00:	0800aa2d 	.word	0x0800aa2d
 800aa04:	2302      	movs	r3, #2
 800aa06:	f887 3043 	strb.w	r3, [r7, #67]	@ 0x43
 800aa0a:	e01a      	b.n	800aa42 <UART_SetConfig+0x7ae>
 800aa0c:	2304      	movs	r3, #4
 800aa0e:	f887 3043 	strb.w	r3, [r7, #67]	@ 0x43
 800aa12:	e016      	b.n	800aa42 <UART_SetConfig+0x7ae>
 800aa14:	2308      	movs	r3, #8
 800aa16:	f887 3043 	strb.w	r3, [r7, #67]	@ 0x43
 800aa1a:	e012      	b.n	800aa42 <UART_SetConfig+0x7ae>
 800aa1c:	2310      	movs	r3, #16
 800aa1e:	f887 3043 	strb.w	r3, [r7, #67]	@ 0x43
 800aa22:	e00e      	b.n	800aa42 <UART_SetConfig+0x7ae>
 800aa24:	2320      	movs	r3, #32
 800aa26:	f887 3043 	strb.w	r3, [r7, #67]	@ 0x43
 800aa2a:	e00a      	b.n	800aa42 <UART_SetConfig+0x7ae>
 800aa2c:	2340      	movs	r3, #64	@ 0x40
 800aa2e:	f887 3043 	strb.w	r3, [r7, #67]	@ 0x43
 800aa32:	e006      	b.n	800aa42 <UART_SetConfig+0x7ae>
 800aa34:	2380      	movs	r3, #128	@ 0x80
 800aa36:	f887 3043 	strb.w	r3, [r7, #67]	@ 0x43
 800aa3a:	e002      	b.n	800aa42 <UART_SetConfig+0x7ae>
 800aa3c:	2380      	movs	r3, #128	@ 0x80
 800aa3e:	f887 3043 	strb.w	r3, [r7, #67]	@ 0x43
 800aa42:	697b      	ldr	r3, [r7, #20]
 800aa44:	681b      	ldr	r3, [r3, #0]
 800aa46:	4a55      	ldr	r2, [pc, #340]	@ (800ab9c <UART_SetConfig+0x908>)
 800aa48:	4293      	cmp	r3, r2
 800aa4a:	f040 80f8 	bne.w	800ac3e <UART_SetConfig+0x9aa>
 800aa4e:	f897 3043 	ldrb.w	r3, [r7, #67]	@ 0x43
 800aa52:	2b20      	cmp	r3, #32
 800aa54:	dc46      	bgt.n	800aae4 <UART_SetConfig+0x850>
 800aa56:	2b02      	cmp	r3, #2
 800aa58:	db75      	blt.n	800ab46 <UART_SetConfig+0x8b2>
 800aa5a:	3b02      	subs	r3, #2
 800aa5c:	2b1e      	cmp	r3, #30
 800aa5e:	d872      	bhi.n	800ab46 <UART_SetConfig+0x8b2>
 800aa60:	a201      	add	r2, pc, #4	@ (adr r2, 800aa68 <UART_SetConfig+0x7d4>)
 800aa62:	f852 f023 	ldr.w	pc, [r2, r3, lsl #2]
 800aa66:	bf00      	nop
 800aa68:	0800aaeb 	.word	0x0800aaeb
 800aa6c:	0800ab47 	.word	0x0800ab47
 800aa70:	0800aaf3 	.word	0x0800aaf3
 800aa74:	0800ab47 	.word	0x0800ab47
 800aa78:	0800ab47 	.word	0x0800ab47
 800aa7c:	0800ab47 	.word	0x0800ab47
 800aa80:	0800ab03 	.word	0x0800ab03
 800aa84:	0800ab47 	.word	0x0800ab47
 800aa88:	0800ab47 	.word	0x0800ab47
 800aa8c:	0800ab47 	.word	0x0800ab47
 800aa90:	0800ab47 	.word	0x0800ab47
 800aa94:	0800ab47 	.word	0x0800ab47
 800aa98:	0800ab47 	.word	0x0800ab47
 800aa9c:	0800ab47 	.word	0x0800ab47
 800aaa0:	0800ab13 	.word	0x0800ab13
 800aaa4:	0800ab47 	.word	0x0800ab47
 800aaa8:	0800ab47 	.word	0x0800ab47
 800aaac:	0800ab47 	.word	0x0800ab47
 800aab0:	0800ab47 	.word	0x0800ab47
 800aab4:	0800ab47 	.word	0x0800ab47
 800aab8:	0800ab47 	.word	0x0800ab47
 800aabc:	0800ab47 	.word	0x0800ab47
 800aac0:	0800ab47 	.word	0x0800ab47
 800aac4:	0800ab47 	.word	0x0800ab47
 800aac8:	0800ab47 	.word	0x0800ab47
 800aacc:	0800ab47 	.word	0x0800ab47
 800aad0:	0800ab47 	.word	0x0800ab47
 800aad4:	0800ab47 	.word	0x0800ab47
 800aad8:	0800ab47 	.word	0x0800ab47
 800aadc:	0800ab47 	.word	0x0800ab47
 800aae0:	0800ab39 	.word	0x0800ab39
 800aae4:	2b40      	cmp	r3, #64	@ 0x40
 800aae6:	d02a      	beq.n	800ab3e <UART_SetConfig+0x8aa>
 800aae8:	e02d      	b.n	800ab46 <UART_SetConfig+0x8b2>
 800aaea:	f7fe f9df 	bl	8008eac <HAL_RCCEx_GetD3PCLK1Freq>
 800aaee:	63f8      	str	r0, [r7, #60]	@ 0x3c
 800aaf0:	e02f      	b.n	800ab52 <UART_SetConfig+0x8be>
 800aaf2:	f107 0324 	add.w	r3, r7, #36	@ 0x24
 800aaf6:	4618      	mov	r0, r3
 800aaf8:	f7fe f9ee 	bl	8008ed8 <HAL_RCCEx_GetPLL2ClockFreq>
 800aafc:	6abb      	ldr	r3, [r7, #40]	@ 0x28
 800aafe:	63fb      	str	r3, [r7, #60]	@ 0x3c
 800ab00:	e027      	b.n	800ab52 <UART_SetConfig+0x8be>
 800ab02:	f107 0318 	add.w	r3, r7, #24
 800ab06:	4618      	mov	r0, r3
 800ab08:	f7fe fb3a 	bl	8009180 <HAL_RCCEx_GetPLL3ClockFreq>
 800ab0c:	69fb      	ldr	r3, [r7, #28]
 800ab0e:	63fb      	str	r3, [r7, #60]	@ 0x3c
 800ab10:	e01f      	b.n	800ab52 <UART_SetConfig+0x8be>
 800ab12:	4b21      	ldr	r3, [pc, #132]	@ (800ab98 <UART_SetConfig+0x904>)
 800ab14:	681b      	ldr	r3, [r3, #0]
 800ab16:	f003 0320 	and.w	r3, r3, #32
 800ab1a:	2b00      	cmp	r3, #0
 800ab1c:	d009      	beq.n	800ab32 <UART_SetConfig+0x89e>
 800ab1e:	4b1e      	ldr	r3, [pc, #120]	@ (800ab98 <UART_SetConfig+0x904>)
 800ab20:	681b      	ldr	r3, [r3, #0]
 800ab22:	08db      	lsrs	r3, r3, #3
 800ab24:	f003 0303 	and.w	r3, r3, #3
 800ab28:	4a1d      	ldr	r2, [pc, #116]	@ (800aba0 <UART_SetConfig+0x90c>)
 800ab2a:	fa22 f303 	lsr.w	r3, r2, r3
 800ab2e:	63fb      	str	r3, [r7, #60]	@ 0x3c
 800ab30:	e00f      	b.n	800ab52 <UART_SetConfig+0x8be>
 800ab32:	4b1b      	ldr	r3, [pc, #108]	@ (800aba0 <UART_SetConfig+0x90c>)
 800ab34:	63fb      	str	r3, [r7, #60]	@ 0x3c
 800ab36:	e00c      	b.n	800ab52 <UART_SetConfig+0x8be>
 800ab38:	4b1a      	ldr	r3, [pc, #104]	@ (800aba4 <UART_SetConfig+0x910>)
 800ab3a:	63fb      	str	r3, [r7, #60]	@ 0x3c
 800ab3c:	e009      	b.n	800ab52 <UART_SetConfig+0x8be>
 800ab3e:	f44f 4300 	mov.w	r3, #32768	@ 0x8000
 800ab42:	63fb      	str	r3, [r7, #60]	@ 0x3c
 800ab44:	e005      	b.n	800ab52 <UART_SetConfig+0x8be>
 800ab46:	2300      	movs	r3, #0
 800ab48:	63fb      	str	r3, [r7, #60]	@ 0x3c
 800ab4a:	2301      	movs	r3, #1
 800ab4c:	f887 3042 	strb.w	r3, [r7, #66]	@ 0x42
 800ab50:	bf00      	nop
 800ab52:	6bfb      	ldr	r3, [r7, #60]	@ 0x3c
 800ab54:	2b00      	cmp	r3, #0
 800ab56:	f000 81ee 	beq.w	800af36 <UART_SetConfig+0xca2>
 800ab5a:	697b      	ldr	r3, [r7, #20]
 800ab5c:	6a5b      	ldr	r3, [r3, #36]	@ 0x24
 800ab5e:	4a12      	ldr	r2, [pc, #72]	@ (800aba8 <UART_SetConfig+0x914>)
 800ab60:	f832 3013 	ldrh.w	r3, [r2, r3, lsl #1]
 800ab64:	461a      	mov	r2, r3
 800ab66:	6bfb      	ldr	r3, [r7, #60]	@ 0x3c
 800ab68:	fbb3 f3f2 	udiv	r3, r3, r2
 800ab6c:	633b      	str	r3, [r7, #48]	@ 0x30
 800ab6e:	697b      	ldr	r3, [r7, #20]
 800ab70:	685a      	ldr	r2, [r3, #4]
 800ab72:	4613      	mov	r3, r2
 800ab74:	005b      	lsls	r3, r3, #1
 800ab76:	4413      	add	r3, r2
 800ab78:	6b3a      	ldr	r2, [r7, #48]	@ 0x30
 800ab7a:	429a      	cmp	r2, r3
 800ab7c:	d305      	bcc.n	800ab8a <UART_SetConfig+0x8f6>
 800ab7e:	697b      	ldr	r3, [r7, #20]
 800ab80:	685b      	ldr	r3, [r3, #4]
 800ab82:	031b      	lsls	r3, r3, #12
 800ab84:	6b3a      	ldr	r2, [r7, #48]	@ 0x30
 800ab86:	429a      	cmp	r2, r3
 800ab88:	d910      	bls.n	800abac <UART_SetConfig+0x918>
 800ab8a:	2301      	movs	r3, #1
 800ab8c:	f887 3042 	strb.w	r3, [r7, #66]	@ 0x42
 800ab90:	e1d1      	b.n	800af36 <UART_SetConfig+0xca2>
 800ab92:	bf00      	nop
 800ab94:	40011c00 	.word	0x40011c00
 800ab98:	58024400 	.word	0x58024400
 800ab9c:	58000c00 	.word	0x58000c00
 800aba0:	03d09000 	.word	0x03d09000
 800aba4:	003d0900 	.word	0x003d0900
 800aba8:	0800b6f8 	.word	0x0800b6f8
 800abac:	6bfb      	ldr	r3, [r7, #60]	@ 0x3c
 800abae:	2200      	movs	r2, #0
 800abb0:	60bb      	str	r3, [r7, #8]
 800abb2:	60fa      	str	r2, [r7, #12]
 800abb4:	697b      	ldr	r3, [r7, #20]
 800abb6:	6a5b      	ldr	r3, [r3, #36]	@ 0x24
 800abb8:	4ac0      	ldr	r2, [pc, #768]	@ (800aebc <UART_SetConfig+0xc28>)
 800abba:	f832 3013 	ldrh.w	r3, [r2, r3, lsl #1]
 800abbe:	b29b      	uxth	r3, r3
 800abc0:	2200      	movs	r2, #0
 800abc2:	603b      	str	r3, [r7, #0]
 800abc4:	607a      	str	r2, [r7, #4]
 800abc6:	e9d7 2300 	ldrd	r2, r3, [r7]
 800abca:	e9d7 0102 	ldrd	r0, r1, [r7, #8]
 800abce:	f7f5 fb8d 	bl	80002ec <__aeabi_uldivmod>
 800abd2:	4602      	mov	r2, r0
 800abd4:	460b      	mov	r3, r1
 800abd6:	4610      	mov	r0, r2
 800abd8:	4619      	mov	r1, r3
 800abda:	f04f 0200 	mov.w	r2, #0
 800abde:	f04f 0300 	mov.w	r3, #0
 800abe2:	020b      	lsls	r3, r1, #8
 800abe4:	ea43 6310 	orr.w	r3, r3, r0, lsr #24
 800abe8:	0202      	lsls	r2, r0, #8
 800abea:	6979      	ldr	r1, [r7, #20]
 800abec:	6849      	ldr	r1, [r1, #4]
 800abee:	0849      	lsrs	r1, r1, #1
 800abf0:	2000      	movs	r0, #0
 800abf2:	460c      	mov	r4, r1
 800abf4:	4605      	mov	r5, r0
 800abf6:	eb12 0804 	adds.w	r8, r2, r4
 800abfa:	eb43 0905 	adc.w	r9, r3, r5
 800abfe:	697b      	ldr	r3, [r7, #20]
 800ac00:	685b      	ldr	r3, [r3, #4]
 800ac02:	2200      	movs	r2, #0
 800ac04:	469a      	mov	sl, r3
 800ac06:	4693      	mov	fp, r2
 800ac08:	4652      	mov	r2, sl
 800ac0a:	465b      	mov	r3, fp
 800ac0c:	4640      	mov	r0, r8
 800ac0e:	4649      	mov	r1, r9
 800ac10:	f7f5 fb6c 	bl	80002ec <__aeabi_uldivmod>
 800ac14:	4602      	mov	r2, r0
 800ac16:	460b      	mov	r3, r1
 800ac18:	4613      	mov	r3, r2
 800ac1a:	63bb      	str	r3, [r7, #56]	@ 0x38
 800ac1c:	6bbb      	ldr	r3, [r7, #56]	@ 0x38
 800ac1e:	f5b3 7f40 	cmp.w	r3, #768	@ 0x300
 800ac22:	d308      	bcc.n	800ac36 <UART_SetConfig+0x9a2>
 800ac24:	6bbb      	ldr	r3, [r7, #56]	@ 0x38
 800ac26:	f5b3 1f80 	cmp.w	r3, #1048576	@ 0x100000
 800ac2a:	d204      	bcs.n	800ac36 <UART_SetConfig+0x9a2>
 800ac2c:	697b      	ldr	r3, [r7, #20]
 800ac2e:	681b      	ldr	r3, [r3, #0]
 800ac30:	6bba      	ldr	r2, [r7, #56]	@ 0x38
 800ac32:	60da      	str	r2, [r3, #12]
 800ac34:	e17f      	b.n	800af36 <UART_SetConfig+0xca2>
 800ac36:	2301      	movs	r3, #1
 800ac38:	f887 3042 	strb.w	r3, [r7, #66]	@ 0x42
 800ac3c:	e17b      	b.n	800af36 <UART_SetConfig+0xca2>
 800ac3e:	697b      	ldr	r3, [r7, #20]
 800ac40:	69db      	ldr	r3, [r3, #28]
 800ac42:	f5b3 4f00 	cmp.w	r3, #32768	@ 0x8000
 800ac46:	f040 80bd 	bne.w	800adc4 <UART_SetConfig+0xb30>
 800ac4a:	f897 3043 	ldrb.w	r3, [r7, #67]	@ 0x43
 800ac4e:	2b20      	cmp	r3, #32
 800ac50:	dc48      	bgt.n	800ace4 <UART_SetConfig+0xa50>
 800ac52:	2b00      	cmp	r3, #0
 800ac54:	db7b      	blt.n	800ad4e <UART_SetConfig+0xaba>
 800ac56:	2b20      	cmp	r3, #32
 800ac58:	d879      	bhi.n	800ad4e <UART_SetConfig+0xaba>
 800ac5a:	a201      	add	r2, pc, #4	@ (adr r2, 800ac60 <UART_SetConfig+0x9cc>)
 800ac5c:	f852 f023 	ldr.w	pc, [r2, r3, lsl #2]
 800ac60:	0800aceb 	.word	0x0800aceb
 800ac64:	0800acf3 	.word	0x0800acf3
 800ac68:	0800ad4f 	.word	0x0800ad4f
 800ac6c:	0800ad4f 	.word	0x0800ad4f
 800ac70:	0800acfb 	.word	0x0800acfb
 800ac74:	0800ad4f 	.word	0x0800ad4f
 800ac78:	0800ad4f 	.word	0x0800ad4f
 800ac7c:	0800ad4f 	.word	0x0800ad4f
 800ac80:	0800ad0b 	.word	0x0800ad0b
 800ac84:	0800ad4f 	.word	0x0800ad4f
 800ac88:	0800ad4f 	.word	0x0800ad4f
 800ac8c:	0800ad4f 	.word	0x0800ad4f
 800ac90:	0800ad4f 	.word	0x0800ad4f
 800ac94:	0800ad4f 	.word	0x0800ad4f
 800ac98:	0800ad4f 	.word	0x0800ad4f
 800ac9c:	0800ad4f 	.word	0x0800ad4f
 800aca0:	0800ad1b 	.word	0x0800ad1b
 800aca4:	0800ad4f 	.word	0x0800ad4f
 800aca8:	0800ad4f 	.word	0x0800ad4f
 800acac:	0800ad4f 	.word	0x0800ad4f
 800acb0:	0800ad4f 	.word	0x0800ad4f
 800acb4:	0800ad4f 	.word	0x0800ad4f
 800acb8:	0800ad4f 	.word	0x0800ad4f
 800acbc:	0800ad4f 	.word	0x0800ad4f
 800acc0:	0800ad4f 	.word	0x0800ad4f
 800acc4:	0800ad4f 	.word	0x0800ad4f
 800acc8:	0800ad4f 	.word	0x0800ad4f
 800accc:	0800ad4f 	.word	0x0800ad4f
 800acd0:	0800ad4f 	.word	0x0800ad4f
 800acd4:	0800ad4f 	.word	0x0800ad4f
 800acd8:	0800ad4f 	.word	0x0800ad4f
 800acdc:	0800ad4f 	.word	0x0800ad4f
 800ace0:	0800ad41 	.word	0x0800ad41
 800ace4:	2b40      	cmp	r3, #64	@ 0x40
 800ace6:	d02e      	beq.n	800ad46 <UART_SetConfig+0xab2>
 800ace8:	e031      	b.n	800ad4e <UART_SetConfig+0xaba>
 800acea:	f7fc fa1d 	bl	8007128 <HAL_RCC_GetPCLK1Freq>
 800acee:	63f8      	str	r0, [r7, #60]	@ 0x3c
 800acf0:	e033      	b.n	800ad5a <UART_SetConfig+0xac6>
 800acf2:	f7fc fa2f 	bl	8007154 <HAL_RCC_GetPCLK2Freq>
 800acf6:	63f8      	str	r0, [r7, #60]	@ 0x3c
 800acf8:	e02f      	b.n	800ad5a <UART_SetConfig+0xac6>
 800acfa:	f107 0324 	add.w	r3, r7, #36	@ 0x24
 800acfe:	4618      	mov	r0, r3
 800ad00:	f7fe f8ea 	bl	8008ed8 <HAL_RCCEx_GetPLL2ClockFreq>
 800ad04:	6abb      	ldr	r3, [r7, #40]	@ 0x28
 800ad06:	63fb      	str	r3, [r7, #60]	@ 0x3c
 800ad08:	e027      	b.n	800ad5a <UART_SetConfig+0xac6>
 800ad0a:	f107 0318 	add.w	r3, r7, #24
 800ad0e:	4618      	mov	r0, r3
 800ad10:	f7fe fa36 	bl	8009180 <HAL_RCCEx_GetPLL3ClockFreq>
 800ad14:	69fb      	ldr	r3, [r7, #28]
 800ad16:	63fb      	str	r3, [r7, #60]	@ 0x3c
 800ad18:	e01f      	b.n	800ad5a <UART_SetConfig+0xac6>
 800ad1a:	4b69      	ldr	r3, [pc, #420]	@ (800aec0 <UART_SetConfig+0xc2c>)
 800ad1c:	681b      	ldr	r3, [r3, #0]
 800ad1e:	f003 0320 	and.w	r3, r3, #32
 800ad22:	2b00      	cmp	r3, #0
 800ad24:	d009      	beq.n	800ad3a <UART_SetConfig+0xaa6>
 800ad26:	4b66      	ldr	r3, [pc, #408]	@ (800aec0 <UART_SetConfig+0xc2c>)
 800ad28:	681b      	ldr	r3, [r3, #0]
 800ad2a:	08db      	lsrs	r3, r3, #3
 800ad2c:	f003 0303 	and.w	r3, r3, #3
 800ad30:	4a64      	ldr	r2, [pc, #400]	@ (800aec4 <UART_SetConfig+0xc30>)
 800ad32:	fa22 f303 	lsr.w	r3, r2, r3
 800ad36:	63fb      	str	r3, [r7, #60]	@ 0x3c
 800ad38:	e00f      	b.n	800ad5a <UART_SetConfig+0xac6>
 800ad3a:	4b62      	ldr	r3, [pc, #392]	@ (800aec4 <UART_SetConfig+0xc30>)
 800ad3c:	63fb      	str	r3, [r7, #60]	@ 0x3c
 800ad3e:	e00c      	b.n	800ad5a <UART_SetConfig+0xac6>
 800ad40:	4b61      	ldr	r3, [pc, #388]	@ (800aec8 <UART_SetConfig+0xc34>)
 800ad42:	63fb      	str	r3, [r7, #60]	@ 0x3c
 800ad44:	e009      	b.n	800ad5a <UART_SetConfig+0xac6>
 800ad46:	f44f 4300 	mov.w	r3, #32768	@ 0x8000
 800ad4a:	63fb      	str	r3, [r7, #60]	@ 0x3c
 800ad4c:	e005      	b.n	800ad5a <UART_SetConfig+0xac6>
 800ad4e:	2300      	movs	r3, #0
 800ad50:	63fb      	str	r3, [r7, #60]	@ 0x3c
 800ad52:	2301      	movs	r3, #1
 800ad54:	f887 3042 	strb.w	r3, [r7, #66]	@ 0x42
 800ad58:	bf00      	nop
 800ad5a:	6bfb      	ldr	r3, [r7, #60]	@ 0x3c
 800ad5c:	2b00      	cmp	r3, #0
 800ad5e:	f000 80ea 	beq.w	800af36 <UART_SetConfig+0xca2>
 800ad62:	697b      	ldr	r3, [r7, #20]
 800ad64:	6a5b      	ldr	r3, [r3, #36]	@ 0x24
 800ad66:	4a55      	ldr	r2, [pc, #340]	@ (800aebc <UART_SetConfig+0xc28>)
 800ad68:	f832 3013 	ldrh.w	r3, [r2, r3, lsl #1]
 800ad6c:	461a      	mov	r2, r3
 800ad6e:	6bfb      	ldr	r3, [r7, #60]	@ 0x3c
 800ad70:	fbb3 f3f2 	udiv	r3, r3, r2
 800ad74:	005a      	lsls	r2, r3, #1
 800ad76:	697b      	ldr	r3, [r7, #20]
 800ad78:	685b      	ldr	r3, [r3, #4]
 800ad7a:	085b      	lsrs	r3, r3, #1
 800ad7c:	441a      	add	r2, r3
 800ad7e:	697b      	ldr	r3, [r7, #20]
 800ad80:	685b      	ldr	r3, [r3, #4]
 800ad82:	fbb2 f3f3 	udiv	r3, r2, r3
 800ad86:	63bb      	str	r3, [r7, #56]	@ 0x38
 800ad88:	6bbb      	ldr	r3, [r7, #56]	@ 0x38
 800ad8a:	2b0f      	cmp	r3, #15
 800ad8c:	d916      	bls.n	800adbc <UART_SetConfig+0xb28>
 800ad8e:	6bbb      	ldr	r3, [r7, #56]	@ 0x38
 800ad90:	f5b3 3f80 	cmp.w	r3, #65536	@ 0x10000
 800ad94:	d212      	bcs.n	800adbc <UART_SetConfig+0xb28>
 800ad96:	6bbb      	ldr	r3, [r7, #56]	@ 0x38
 800ad98:	b29b      	uxth	r3, r3
 800ad9a:	f023 030f 	bic.w	r3, r3, #15
 800ad9e:	86fb      	strh	r3, [r7, #54]	@ 0x36
 800ada0:	6bbb      	ldr	r3, [r7, #56]	@ 0x38
 800ada2:	085b      	lsrs	r3, r3, #1
 800ada4:	b29b      	uxth	r3, r3
 800ada6:	f003 0307 	and.w	r3, r3, #7
 800adaa:	b29a      	uxth	r2, r3
 800adac:	8efb      	ldrh	r3, [r7, #54]	@ 0x36
 800adae:	4313      	orrs	r3, r2
 800adb0:	86fb      	strh	r3, [r7, #54]	@ 0x36
 800adb2:	697b      	ldr	r3, [r7, #20]
 800adb4:	681b      	ldr	r3, [r3, #0]
 800adb6:	8efa      	ldrh	r2, [r7, #54]	@ 0x36
 800adb8:	60da      	str	r2, [r3, #12]
 800adba:	e0bc      	b.n	800af36 <UART_SetConfig+0xca2>
 800adbc:	2301      	movs	r3, #1
 800adbe:	f887 3042 	strb.w	r3, [r7, #66]	@ 0x42
 800adc2:	e0b8      	b.n	800af36 <UART_SetConfig+0xca2>
 800adc4:	f897 3043 	ldrb.w	r3, [r7, #67]	@ 0x43
 800adc8:	2b20      	cmp	r3, #32
 800adca:	dc4b      	bgt.n	800ae64 <UART_SetConfig+0xbd0>
 800adcc:	2b00      	cmp	r3, #0
 800adce:	f2c0 8087 	blt.w	800aee0 <UART_SetConfig+0xc4c>
 800add2:	2b20      	cmp	r3, #32
 800add4:	f200 8084 	bhi.w	800aee0 <UART_SetConfig+0xc4c>
 800add8:	a201      	add	r2, pc, #4	@ (adr r2, 800ade0 <UART_SetConfig+0xb4c>)
 800adda:	f852 f023 	ldr.w	pc, [r2, r3, lsl #2]
 800adde:	bf00      	nop
 800ade0:	0800ae6b 	.word	0x0800ae6b
 800ade4:	0800ae73 	.word	0x0800ae73
 800ade8:	0800aee1 	.word	0x0800aee1
 800adec:	0800aee1 	.word	0x0800aee1
 800adf0:	0800ae7b 	.word	0x0800ae7b
 800adf4:	0800aee1 	.word	0x0800aee1
 800adf8:	0800aee1 	.word	0x0800aee1
 800adfc:	0800aee1 	.word	0x0800aee1
 800ae00:	0800ae8b 	.word	0x0800ae8b
 800ae04:	0800aee1 	.word	0x0800aee1
 800ae08:	0800aee1 	.word	0x0800aee1
 800ae0c:	0800aee1 	.word	0x0800aee1
 800ae10:	0800aee1 	.word	0x0800aee1
 800ae14:	0800aee1 	.word	0x0800aee1
 800ae18:	0800aee1 	.word	0x0800aee1
 800ae1c:	0800aee1 	.word	0x0800aee1
 800ae20:	0800ae9b 	.word	0x0800ae9b
 800ae24:	0800aee1 	.word	0x0800aee1
 800ae28:	0800aee1 	.word	0x0800aee1
 800ae2c:	0800aee1 	.word	0x0800aee1
 800ae30:	0800aee1 	.word	0x0800aee1
 800ae34:	0800aee1 	.word	0x0800aee1
 800ae38:	0800aee1 	.word	0x0800aee1
 800ae3c:	0800aee1 	.word	0x0800aee1
 800ae40:	0800aee1 	.word	0x0800aee1
 800ae44:	0800aee1 	.word	0x0800aee1
 800ae48:	0800aee1 	.word	0x0800aee1
 800ae4c:	0800aee1 	.word	0x0800aee1
 800ae50:	0800aee1 	.word	0x0800aee1
 800ae54:	0800aee1 	.word	0x0800aee1
 800ae58:	0800aee1 	.word	0x0800aee1
 800ae5c:	0800aee1 	.word	0x0800aee1
 800ae60:	0800aed3 	.word	0x0800aed3
 800ae64:	2b40      	cmp	r3, #64	@ 0x40
 800ae66:	d037      	beq.n	800aed8 <UART_SetConfig+0xc44>
 800ae68:	e03a      	b.n	800aee0 <UART_SetConfig+0xc4c>
 800ae6a:	f7fc f95d 	bl	8007128 <HAL_RCC_GetPCLK1Freq>
 800ae6e:	63f8      	str	r0, [r7, #60]	@ 0x3c
 800ae70:	e03c      	b.n	800aeec <UART_SetConfig+0xc58>
 800ae72:	f7fc f96f 	bl	8007154 <HAL_RCC_GetPCLK2Freq>
 800ae76:	63f8      	str	r0, [r7, #60]	@ 0x3c
 800ae78:	e038      	b.n	800aeec <UART_SetConfig+0xc58>
 800ae7a:	f107 0324 	add.w	r3, r7, #36	@ 0x24
 800ae7e:	4618      	mov	r0, r3
 800ae80:	f7fe f82a 	bl	8008ed8 <HAL_RCCEx_GetPLL2ClockFreq>
 800ae84:	6abb      	ldr	r3, [r7, #40]	@ 0x28
 800ae86:	63fb      	str	r3, [r7, #60]	@ 0x3c
 800ae88:	e030      	b.n	800aeec <UART_SetConfig+0xc58>
 800ae8a:	f107 0318 	add.w	r3, r7, #24
 800ae8e:	4618      	mov	r0, r3
 800ae90:	f7fe f976 	bl	8009180 <HAL_RCCEx_GetPLL3ClockFreq>
 800ae94:	69fb      	ldr	r3, [r7, #28]
 800ae96:	63fb      	str	r3, [r7, #60]	@ 0x3c
 800ae98:	e028      	b.n	800aeec <UART_SetConfig+0xc58>
 800ae9a:	4b09      	ldr	r3, [pc, #36]	@ (800aec0 <UART_SetConfig+0xc2c>)
 800ae9c:	681b      	ldr	r3, [r3, #0]
 800ae9e:	f003 0320 	and.w	r3, r3, #32
 800aea2:	2b00      	cmp	r3, #0
 800aea4:	d012      	beq.n	800aecc <UART_SetConfig+0xc38>
 800aea6:	4b06      	ldr	r3, [pc, #24]	@ (800aec0 <UART_SetConfig+0xc2c>)
 800aea8:	681b      	ldr	r3, [r3, #0]
 800aeaa:	08db      	lsrs	r3, r3, #3
 800aeac:	f003 0303 	and.w	r3, r3, #3
 800aeb0:	4a04      	ldr	r2, [pc, #16]	@ (800aec4 <UART_SetConfig+0xc30>)
 800aeb2:	fa22 f303 	lsr.w	r3, r2, r3
 800aeb6:	63fb      	str	r3, [r7, #60]	@ 0x3c
 800aeb8:	e018      	b.n	800aeec <UART_SetConfig+0xc58>
 800aeba:	bf00      	nop
 800aebc:	0800b6f8 	.word	0x0800b6f8
 800aec0:	58024400 	.word	0x58024400
 800aec4:	03d09000 	.word	0x03d09000
 800aec8:	003d0900 	.word	0x003d0900
 800aecc:	4b24      	ldr	r3, [pc, #144]	@ (800af60 <UART_SetConfig+0xccc>)
 800aece:	63fb      	str	r3, [r7, #60]	@ 0x3c
 800aed0:	e00c      	b.n	800aeec <UART_SetConfig+0xc58>
 800aed2:	4b24      	ldr	r3, [pc, #144]	@ (800af64 <UART_SetConfig+0xcd0>)
 800aed4:	63fb      	str	r3, [r7, #60]	@ 0x3c
 800aed6:	e009      	b.n	800aeec <UART_SetConfig+0xc58>
 800aed8:	f44f 4300 	mov.w	r3, #32768	@ 0x8000
 800aedc:	63fb      	str	r3, [r7, #60]	@ 0x3c
 800aede:	e005      	b.n	800aeec <UART_SetConfig+0xc58>
 800aee0:	2300      	movs	r3, #0
 800aee2:	63fb      	str	r3, [r7, #60]	@ 0x3c
 800aee4:	2301      	movs	r3, #1
 800aee6:	f887 3042 	strb.w	r3, [r7, #66]	@ 0x42
 800aeea:	bf00      	nop
 800aeec:	6bfb      	ldr	r3, [r7, #60]	@ 0x3c
 800aeee:	2b00      	cmp	r3, #0
 800aef0:	d021      	beq.n	800af36 <UART_SetConfig+0xca2>
 800aef2:	697b      	ldr	r3, [r7, #20]
 800aef4:	6a5b      	ldr	r3, [r3, #36]	@ 0x24
 800aef6:	4a1c      	ldr	r2, [pc, #112]	@ (800af68 <UART_SetConfig+0xcd4>)
 800aef8:	f832 3013 	ldrh.w	r3, [r2, r3, lsl #1]
 800aefc:	461a      	mov	r2, r3
 800aefe:	6bfb      	ldr	r3, [r7, #60]	@ 0x3c
 800af00:	fbb3 f2f2 	udiv	r2, r3, r2
 800af04:	697b      	ldr	r3, [r7, #20]
 800af06:	685b      	ldr	r3, [r3, #4]
 800af08:	085b      	lsrs	r3, r3, #1
 800af0a:	441a      	add	r2, r3
 800af0c:	697b      	ldr	r3, [r7, #20]
 800af0e:	685b      	ldr	r3, [r3, #4]
 800af10:	fbb2 f3f3 	udiv	r3, r2, r3
 800af14:	63bb      	str	r3, [r7, #56]	@ 0x38
 800af16:	6bbb      	ldr	r3, [r7, #56]	@ 0x38
 800af18:	2b0f      	cmp	r3, #15
 800af1a:	d909      	bls.n	800af30 <UART_SetConfig+0xc9c>
 800af1c:	6bbb      	ldr	r3, [r7, #56]	@ 0x38
 800af1e:	f5b3 3f80 	cmp.w	r3, #65536	@ 0x10000
 800af22:	d205      	bcs.n	800af30 <UART_SetConfig+0xc9c>
 800af24:	6bbb      	ldr	r3, [r7, #56]	@ 0x38
 800af26:	b29a      	uxth	r2, r3
 800af28:	697b      	ldr	r3, [r7, #20]
 800af2a:	681b      	ldr	r3, [r3, #0]
 800af2c:	60da      	str	r2, [r3, #12]
 800af2e:	e002      	b.n	800af36 <UART_SetConfig+0xca2>
 800af30:	2301      	movs	r3, #1
 800af32:	f887 3042 	strb.w	r3, [r7, #66]	@ 0x42
 800af36:	697b      	ldr	r3, [r7, #20]
 800af38:	2201      	movs	r2, #1
 800af3a:	f8a3 206a 	strh.w	r2, [r3, #106]	@ 0x6a
 800af3e:	697b      	ldr	r3, [r7, #20]
 800af40:	2201      	movs	r2, #1
 800af42:	f8a3 2068 	strh.w	r2, [r3, #104]	@ 0x68
 800af46:	697b      	ldr	r3, [r7, #20]
 800af48:	2200      	movs	r2, #0
 800af4a:	675a      	str	r2, [r3, #116]	@ 0x74
 800af4c:	697b      	ldr	r3, [r7, #20]
 800af4e:	2200      	movs	r2, #0
 800af50:	679a      	str	r2, [r3, #120]	@ 0x78
 800af52:	f897 3042 	ldrb.w	r3, [r7, #66]	@ 0x42
 800af56:	4618      	mov	r0, r3
 800af58:	3748      	adds	r7, #72	@ 0x48
 800af5a:	46bd      	mov	sp, r7
 800af5c:	e8bd 8fb0 	ldmia.w	sp!, {r4, r5, r7, r8, r9, sl, fp, pc}
 800af60:	03d09000 	.word	0x03d09000
 800af64:	003d0900 	.word	0x003d0900
 800af68:	0800b6f8 	.word	0x0800b6f8

0800af6c <UART_AdvFeatureConfig>:
 800af6c:	b480      	push	{r7}
 800af6e:	b083      	sub	sp, #12
 800af70:	af00      	add	r7, sp, #0
 800af72:	6078      	str	r0, [r7, #4]
 800af74:	687b      	ldr	r3, [r7, #4]
 800af76:	6a9b      	ldr	r3, [r3, #40]	@ 0x28
 800af78:	f003 0308 	and.w	r3, r3, #8
 800af7c:	2b00      	cmp	r3, #0
 800af7e:	d00a      	beq.n	800af96 <UART_AdvFeatureConfig+0x2a>
 800af80:	687b      	ldr	r3, [r7, #4]
 800af82:	681b      	ldr	r3, [r3, #0]
 800af84:	685b      	ldr	r3, [r3, #4]
 800af86:	f423 4100 	bic.w	r1, r3, #32768	@ 0x8000
 800af8a:	687b      	ldr	r3, [r7, #4]
 800af8c:	6b9a      	ldr	r2, [r3, #56]	@ 0x38
 800af8e:	687b      	ldr	r3, [r7, #4]
 800af90:	681b      	ldr	r3, [r3, #0]
 800af92:	430a      	orrs	r2, r1
 800af94:	605a      	str	r2, [r3, #4]
 800af96:	687b      	ldr	r3, [r7, #4]
 800af98:	6a9b      	ldr	r3, [r3, #40]	@ 0x28
 800af9a:	f003 0301 	and.w	r3, r3, #1
 800af9e:	2b00      	cmp	r3, #0
 800afa0:	d00a      	beq.n	800afb8 <UART_AdvFeatureConfig+0x4c>
 800afa2:	687b      	ldr	r3, [r7, #4]
 800afa4:	681b      	ldr	r3, [r3, #0]
 800afa6:	685b      	ldr	r3, [r3, #4]
 800afa8:	f423 3100 	bic.w	r1, r3, #131072	@ 0x20000
 800afac:	687b      	ldr	r3, [r7, #4]
 800afae:	6ada      	ldr	r2, [r3, #44]	@ 0x2c
 800afb0:	687b      	ldr	r3, [r7, #4]
 800afb2:	681b      	ldr	r3, [r3, #0]
 800afb4:	430a      	orrs	r2, r1
 800afb6:	605a      	str	r2, [r3, #4]
 800afb8:	687b      	ldr	r3, [r7, #4]
 800afba:	6a9b      	ldr	r3, [r3, #40]	@ 0x28
 800afbc:	f003 0302 	and.w	r3, r3, #2
 800afc0:	2b00      	cmp	r3, #0
 800afc2:	d00a      	beq.n	800afda <UART_AdvFeatureConfig+0x6e>
 800afc4:	687b      	ldr	r3, [r7, #4]
 800afc6:	681b      	ldr	r3, [r3, #0]
 800afc8:	685b      	ldr	r3, [r3, #4]
 800afca:	f423 3180 	bic.w	r1, r3, #65536	@ 0x10000
 800afce:	687b      	ldr	r3, [r7, #4]
 800afd0:	6b1a      	ldr	r2, [r3, #48]	@ 0x30
 800afd2:	687b      	ldr	r3, [r7, #4]
 800afd4:	681b      	ldr	r3, [r3, #0]
 800afd6:	430a      	orrs	r2, r1
 800afd8:	605a      	str	r2, [r3, #4]
 800afda:	687b      	ldr	r3, [r7, #4]
 800afdc:	6a9b      	ldr	r3, [r3, #40]	@ 0x28
 800afde:	f003 0304 	and.w	r3, r3, #4
 800afe2:	2b00      	cmp	r3, #0
 800afe4:	d00a      	beq.n	800affc <UART_AdvFeatureConfig+0x90>
 800afe6:	687b      	ldr	r3, [r7, #4]
 800afe8:	681b      	ldr	r3, [r3, #0]
 800afea:	685b      	ldr	r3, [r3, #4]
 800afec:	f423 2180 	bic.w	r1, r3, #262144	@ 0x40000
 800aff0:	687b      	ldr	r3, [r7, #4]
 800aff2:	6b5a      	ldr	r2, [r3, #52]	@ 0x34
 800aff4:	687b      	ldr	r3, [r7, #4]
 800aff6:	681b      	ldr	r3, [r3, #0]
 800aff8:	430a      	orrs	r2, r1
 800affa:	605a      	str	r2, [r3, #4]
 800affc:	687b      	ldr	r3, [r7, #4]
 800affe:	6a9b      	ldr	r3, [r3, #40]	@ 0x28
 800b000:	f003 0310 	and.w	r3, r3, #16
 800b004:	2b00      	cmp	r3, #0
 800b006:	d00a      	beq.n	800b01e <UART_AdvFeatureConfig+0xb2>
 800b008:	687b      	ldr	r3, [r7, #4]
 800b00a:	681b      	ldr	r3, [r3, #0]
 800b00c:	689b      	ldr	r3, [r3, #8]
 800b00e:	f423 5180 	bic.w	r1, r3, #4096	@ 0x1000
 800b012:	687b      	ldr	r3, [r7, #4]
 800b014:	6bda      	ldr	r2, [r3, #60]	@ 0x3c
 800b016:	687b      	ldr	r3, [r7, #4]
 800b018:	681b      	ldr	r3, [r3, #0]
 800b01a:	430a      	orrs	r2, r1
 800b01c:	609a      	str	r2, [r3, #8]
 800b01e:	687b      	ldr	r3, [r7, #4]
 800b020:	6a9b      	ldr	r3, [r3, #40]	@ 0x28
 800b022:	f003 0320 	and.w	r3, r3, #32
 800b026:	2b00      	cmp	r3, #0
 800b028:	d00a      	beq.n	800b040 <UART_AdvFeatureConfig+0xd4>
 800b02a:	687b      	ldr	r3, [r7, #4]
 800b02c:	681b      	ldr	r3, [r3, #0]
 800b02e:	689b      	ldr	r3, [r3, #8]
 800b030:	f423 5100 	bic.w	r1, r3, #8192	@ 0x2000
 800b034:	687b      	ldr	r3, [r7, #4]
 800b036:	6c1a      	ldr	r2, [r3, #64]	@ 0x40
 800b038:	687b      	ldr	r3, [r7, #4]
 800b03a:	681b      	ldr	r3, [r3, #0]
 800b03c:	430a      	orrs	r2, r1
 800b03e:	609a      	str	r2, [r3, #8]
 800b040:	687b      	ldr	r3, [r7, #4]
 800b042:	6a9b      	ldr	r3, [r3, #40]	@ 0x28
 800b044:	f003 0340 	and.w	r3, r3, #64	@ 0x40
 800b048:	2b00      	cmp	r3, #0
 800b04a:	d01a      	beq.n	800b082 <UART_AdvFeatureConfig+0x116>
 800b04c:	687b      	ldr	r3, [r7, #4]
 800b04e:	681b      	ldr	r3, [r3, #0]
 800b050:	685b      	ldr	r3, [r3, #4]
 800b052:	f423 1180 	bic.w	r1, r3, #1048576	@ 0x100000
 800b056:	687b      	ldr	r3, [r7, #4]
 800b058:	6c5a      	ldr	r2, [r3, #68]	@ 0x44
 800b05a:	687b      	ldr	r3, [r7, #4]
 800b05c:	681b      	ldr	r3, [r3, #0]
 800b05e:	430a      	orrs	r2, r1
 800b060:	605a      	str	r2, [r3, #4]
 800b062:	687b      	ldr	r3, [r7, #4]
 800b064:	6c5b      	ldr	r3, [r3, #68]	@ 0x44
 800b066:	f5b3 1f80 	cmp.w	r3, #1048576	@ 0x100000
 800b06a:	d10a      	bne.n	800b082 <UART_AdvFeatureConfig+0x116>
 800b06c:	687b      	ldr	r3, [r7, #4]
 800b06e:	681b      	ldr	r3, [r3, #0]
 800b070:	685b      	ldr	r3, [r3, #4]
 800b072:	f423 01c0 	bic.w	r1, r3, #6291456	@ 0x600000
 800b076:	687b      	ldr	r3, [r7, #4]
 800b078:	6c9a      	ldr	r2, [r3, #72]	@ 0x48
 800b07a:	687b      	ldr	r3, [r7, #4]
 800b07c:	681b      	ldr	r3, [r3, #0]
 800b07e:	430a      	orrs	r2, r1
 800b080:	605a      	str	r2, [r3, #4]
 800b082:	687b      	ldr	r3, [r7, #4]
 800b084:	6a9b      	ldr	r3, [r3, #40]	@ 0x28
 800b086:	f003 0380 	and.w	r3, r3, #128	@ 0x80
 800b08a:	2b00      	cmp	r3, #0
 800b08c:	d00a      	beq.n	800b0a4 <UART_AdvFeatureConfig+0x138>
 800b08e:	687b      	ldr	r3, [r7, #4]
 800b090:	681b      	ldr	r3, [r3, #0]
 800b092:	685b      	ldr	r3, [r3, #4]
 800b094:	f423 2100 	bic.w	r1, r3, #524288	@ 0x80000
 800b098:	687b      	ldr	r3, [r7, #4]
 800b09a:	6cda      	ldr	r2, [r3, #76]	@ 0x4c
 800b09c:	687b      	ldr	r3, [r7, #4]
 800b09e:	681b      	ldr	r3, [r3, #0]
 800b0a0:	430a      	orrs	r2, r1
 800b0a2:	605a      	str	r2, [r3, #4]
 800b0a4:	bf00      	nop
 800b0a6:	370c      	adds	r7, #12
 800b0a8:	46bd      	mov	sp, r7
 800b0aa:	f85d 7b04 	ldr.w	r7, [sp], #4
 800b0ae:	4770      	bx	lr

0800b0b0 <UART_CheckIdleState>:
 800b0b0:	b580      	push	{r7, lr}
 800b0b2:	b098      	sub	sp, #96	@ 0x60
 800b0b4:	af02      	add	r7, sp, #8
 800b0b6:	6078      	str	r0, [r7, #4]
 800b0b8:	687b      	ldr	r3, [r7, #4]
 800b0ba:	2200      	movs	r2, #0
 800b0bc:	f8c3 2090 	str.w	r2, [r3, #144]	@ 0x90
 800b0c0:	f7f6 f8aa 	bl	8001218 <HAL_GetTick>
 800b0c4:	6578      	str	r0, [r7, #84]	@ 0x54
 800b0c6:	687b      	ldr	r3, [r7, #4]
 800b0c8:	681b      	ldr	r3, [r3, #0]
 800b0ca:	681b      	ldr	r3, [r3, #0]
 800b0cc:	f003 0308 	and.w	r3, r3, #8
 800b0d0:	2b08      	cmp	r3, #8
 800b0d2:	d12f      	bne.n	800b134 <UART_CheckIdleState+0x84>
 800b0d4:	f06f 437e 	mvn.w	r3, #4261412864	@ 0xfe000000
 800b0d8:	9300      	str	r3, [sp, #0]
 800b0da:	6d7b      	ldr	r3, [r7, #84]	@ 0x54
 800b0dc:	2200      	movs	r2, #0
 800b0de:	f44f 1100 	mov.w	r1, #2097152	@ 0x200000
 800b0e2:	6878      	ldr	r0, [r7, #4]
 800b0e4:	f000 f88e 	bl	800b204 <UART_WaitOnFlagUntilTimeout>
 800b0e8:	4603      	mov	r3, r0
 800b0ea:	2b00      	cmp	r3, #0
 800b0ec:	d022      	beq.n	800b134 <UART_CheckIdleState+0x84>
 800b0ee:	687b      	ldr	r3, [r7, #4]
 800b0f0:	681b      	ldr	r3, [r3, #0]
 800b0f2:	63bb      	str	r3, [r7, #56]	@ 0x38
 800b0f4:	6bbb      	ldr	r3, [r7, #56]	@ 0x38
 800b0f6:	e853 3f00 	ldrex	r3, [r3]
 800b0fa:	637b      	str	r3, [r7, #52]	@ 0x34
 800b0fc:	6b7b      	ldr	r3, [r7, #52]	@ 0x34
 800b0fe:	f023 0380 	bic.w	r3, r3, #128	@ 0x80
 800b102:	653b      	str	r3, [r7, #80]	@ 0x50
 800b104:	687b      	ldr	r3, [r7, #4]
 800b106:	681b      	ldr	r3, [r3, #0]
 800b108:	461a      	mov	r2, r3
 800b10a:	6d3b      	ldr	r3, [r7, #80]	@ 0x50
 800b10c:	647b      	str	r3, [r7, #68]	@ 0x44
 800b10e:	643a      	str	r2, [r7, #64]	@ 0x40
 800b110:	6c39      	ldr	r1, [r7, #64]	@ 0x40
 800b112:	6c7a      	ldr	r2, [r7, #68]	@ 0x44
 800b114:	e841 2300 	strex	r3, r2, [r1]
 800b118:	63fb      	str	r3, [r7, #60]	@ 0x3c
 800b11a:	6bfb      	ldr	r3, [r7, #60]	@ 0x3c
 800b11c:	2b00      	cmp	r3, #0
 800b11e:	d1e6      	bne.n	800b0ee <UART_CheckIdleState+0x3e>
 800b120:	687b      	ldr	r3, [r7, #4]
 800b122:	2220      	movs	r2, #32
 800b124:	f8c3 2088 	str.w	r2, [r3, #136]	@ 0x88
 800b128:	687b      	ldr	r3, [r7, #4]
 800b12a:	2200      	movs	r2, #0
 800b12c:	f883 2084 	strb.w	r2, [r3, #132]	@ 0x84
 800b130:	2303      	movs	r3, #3
 800b132:	e063      	b.n	800b1fc <UART_CheckIdleState+0x14c>
 800b134:	687b      	ldr	r3, [r7, #4]
 800b136:	681b      	ldr	r3, [r3, #0]
 800b138:	681b      	ldr	r3, [r3, #0]
 800b13a:	f003 0304 	and.w	r3, r3, #4
 800b13e:	2b04      	cmp	r3, #4
 800b140:	d149      	bne.n	800b1d6 <UART_CheckIdleState+0x126>
 800b142:	f06f 437e 	mvn.w	r3, #4261412864	@ 0xfe000000
 800b146:	9300      	str	r3, [sp, #0]
 800b148:	6d7b      	ldr	r3, [r7, #84]	@ 0x54
 800b14a:	2200      	movs	r2, #0
 800b14c:	f44f 0180 	mov.w	r1, #4194304	@ 0x400000
 800b150:	6878      	ldr	r0, [r7, #4]
 800b152:	f000 f857 	bl	800b204 <UART_WaitOnFlagUntilTimeout>
 800b156:	4603      	mov	r3, r0
 800b158:	2b00      	cmp	r3, #0
 800b15a:	d03c      	beq.n	800b1d6 <UART_CheckIdleState+0x126>
 800b15c:	687b      	ldr	r3, [r7, #4]
 800b15e:	681b      	ldr	r3, [r3, #0]
 800b160:	627b      	str	r3, [r7, #36]	@ 0x24
 800b162:	6a7b      	ldr	r3, [r7, #36]	@ 0x24
 800b164:	e853 3f00 	ldrex	r3, [r3]
 800b168:	623b      	str	r3, [r7, #32]
 800b16a:	6a3b      	ldr	r3, [r7, #32]
 800b16c:	f423 7390 	bic.w	r3, r3, #288	@ 0x120
 800b170:	64fb      	str	r3, [r7, #76]	@ 0x4c
 800b172:	687b      	ldr	r3, [r7, #4]
 800b174:	681b      	ldr	r3, [r3, #0]
 800b176:	461a      	mov	r2, r3
 800b178:	6cfb      	ldr	r3, [r7, #76]	@ 0x4c
 800b17a:	633b      	str	r3, [r7, #48]	@ 0x30
 800b17c:	62fa      	str	r2, [r7, #44]	@ 0x2c
 800b17e:	6af9      	ldr	r1, [r7, #44]	@ 0x2c
 800b180:	6b3a      	ldr	r2, [r7, #48]	@ 0x30
 800b182:	e841 2300 	strex	r3, r2, [r1]
 800b186:	62bb      	str	r3, [r7, #40]	@ 0x28
 800b188:	6abb      	ldr	r3, [r7, #40]	@ 0x28
 800b18a:	2b00      	cmp	r3, #0
 800b18c:	d1e6      	bne.n	800b15c <UART_CheckIdleState+0xac>
 800b18e:	687b      	ldr	r3, [r7, #4]
 800b190:	681b      	ldr	r3, [r3, #0]
 800b192:	3308      	adds	r3, #8
 800b194:	613b      	str	r3, [r7, #16]
 800b196:	693b      	ldr	r3, [r7, #16]
 800b198:	e853 3f00 	ldrex	r3, [r3]
 800b19c:	60fb      	str	r3, [r7, #12]
 800b19e:	68fb      	ldr	r3, [r7, #12]
 800b1a0:	f023 0301 	bic.w	r3, r3, #1
 800b1a4:	64bb      	str	r3, [r7, #72]	@ 0x48
 800b1a6:	687b      	ldr	r3, [r7, #4]
 800b1a8:	681b      	ldr	r3, [r3, #0]
 800b1aa:	3308      	adds	r3, #8
 800b1ac:	6cba      	ldr	r2, [r7, #72]	@ 0x48
 800b1ae:	61fa      	str	r2, [r7, #28]
 800b1b0:	61bb      	str	r3, [r7, #24]
 800b1b2:	69b9      	ldr	r1, [r7, #24]
 800b1b4:	69fa      	ldr	r2, [r7, #28]
 800b1b6:	e841 2300 	strex	r3, r2, [r1]
 800b1ba:	617b      	str	r3, [r7, #20]
 800b1bc:	697b      	ldr	r3, [r7, #20]
 800b1be:	2b00      	cmp	r3, #0
 800b1c0:	d1e5      	bne.n	800b18e <UART_CheckIdleState+0xde>
 800b1c2:	687b      	ldr	r3, [r7, #4]
 800b1c4:	2220      	movs	r2, #32
 800b1c6:	f8c3 208c 	str.w	r2, [r3, #140]	@ 0x8c
 800b1ca:	687b      	ldr	r3, [r7, #4]
 800b1cc:	2200      	movs	r2, #0
 800b1ce:	f883 2084 	strb.w	r2, [r3, #132]	@ 0x84
 800b1d2:	2303      	movs	r3, #3
 800b1d4:	e012      	b.n	800b1fc <UART_CheckIdleState+0x14c>
 800b1d6:	687b      	ldr	r3, [r7, #4]
 800b1d8:	2220      	movs	r2, #32
 800b1da:	f8c3 2088 	str.w	r2, [r3, #136]	@ 0x88
 800b1de:	687b      	ldr	r3, [r7, #4]
 800b1e0:	2220      	movs	r2, #32
 800b1e2:	f8c3 208c 	str.w	r2, [r3, #140]	@ 0x8c
 800b1e6:	687b      	ldr	r3, [r7, #4]
 800b1e8:	2200      	movs	r2, #0
 800b1ea:	66da      	str	r2, [r3, #108]	@ 0x6c
 800b1ec:	687b      	ldr	r3, [r7, #4]
 800b1ee:	2200      	movs	r2, #0
 800b1f0:	671a      	str	r2, [r3, #112]	@ 0x70
 800b1f2:	687b      	ldr	r3, [r7, #4]
 800b1f4:	2200      	movs	r2, #0
 800b1f6:	f883 2084 	strb.w	r2, [r3, #132]	@ 0x84
 800b1fa:	2300      	movs	r3, #0
 800b1fc:	4618      	mov	r0, r3
 800b1fe:	3758      	adds	r7, #88	@ 0x58
 800b200:	46bd      	mov	sp, r7
 800b202:	bd80      	pop	{r7, pc}

0800b204 <UART_WaitOnFlagUntilTimeout>:
 800b204:	b580      	push	{r7, lr}
 800b206:	b084      	sub	sp, #16
 800b208:	af00      	add	r7, sp, #0
 800b20a:	60f8      	str	r0, [r7, #12]
 800b20c:	60b9      	str	r1, [r7, #8]
 800b20e:	603b      	str	r3, [r7, #0]
 800b210:	4613      	mov	r3, r2
 800b212:	71fb      	strb	r3, [r7, #7]
 800b214:	e04f      	b.n	800b2b6 <UART_WaitOnFlagUntilTimeout+0xb2>
 800b216:	69bb      	ldr	r3, [r7, #24]
 800b218:	f1b3 3fff 	cmp.w	r3, #4294967295
 800b21c:	d04b      	beq.n	800b2b6 <UART_WaitOnFlagUntilTimeout+0xb2>
 800b21e:	f7f5 fffb 	bl	8001218 <HAL_GetTick>
 800b222:	4602      	mov	r2, r0
 800b224:	683b      	ldr	r3, [r7, #0]
 800b226:	1ad3      	subs	r3, r2, r3
 800b228:	69ba      	ldr	r2, [r7, #24]
 800b22a:	429a      	cmp	r2, r3
 800b22c:	d302      	bcc.n	800b234 <UART_WaitOnFlagUntilTimeout+0x30>
 800b22e:	69bb      	ldr	r3, [r7, #24]
 800b230:	2b00      	cmp	r3, #0
 800b232:	d101      	bne.n	800b238 <UART_WaitOnFlagUntilTimeout+0x34>
 800b234:	2303      	movs	r3, #3
 800b236:	e04e      	b.n	800b2d6 <UART_WaitOnFlagUntilTimeout+0xd2>
 800b238:	68fb      	ldr	r3, [r7, #12]
 800b23a:	681b      	ldr	r3, [r3, #0]
 800b23c:	681b      	ldr	r3, [r3, #0]
 800b23e:	f003 0304 	and.w	r3, r3, #4
 800b242:	2b00      	cmp	r3, #0
 800b244:	d037      	beq.n	800b2b6 <UART_WaitOnFlagUntilTimeout+0xb2>
 800b246:	68bb      	ldr	r3, [r7, #8]
 800b248:	2b80      	cmp	r3, #128	@ 0x80
 800b24a:	d034      	beq.n	800b2b6 <UART_WaitOnFlagUntilTimeout+0xb2>
 800b24c:	68bb      	ldr	r3, [r7, #8]
 800b24e:	2b40      	cmp	r3, #64	@ 0x40
 800b250:	d031      	beq.n	800b2b6 <UART_WaitOnFlagUntilTimeout+0xb2>
 800b252:	68fb      	ldr	r3, [r7, #12]
 800b254:	681b      	ldr	r3, [r3, #0]
 800b256:	69db      	ldr	r3, [r3, #28]
 800b258:	f003 0308 	and.w	r3, r3, #8
 800b25c:	2b08      	cmp	r3, #8
 800b25e:	d110      	bne.n	800b282 <UART_WaitOnFlagUntilTimeout+0x7e>
 800b260:	68fb      	ldr	r3, [r7, #12]
 800b262:	681b      	ldr	r3, [r3, #0]
 800b264:	2208      	movs	r2, #8
 800b266:	621a      	str	r2, [r3, #32]
 800b268:	68f8      	ldr	r0, [r7, #12]
 800b26a:	f000 f839 	bl	800b2e0 <UART_EndRxTransfer>
 800b26e:	68fb      	ldr	r3, [r7, #12]
 800b270:	2208      	movs	r2, #8
 800b272:	f8c3 2090 	str.w	r2, [r3, #144]	@ 0x90
 800b276:	68fb      	ldr	r3, [r7, #12]
 800b278:	2200      	movs	r2, #0
 800b27a:	f883 2084 	strb.w	r2, [r3, #132]	@ 0x84
 800b27e:	2301      	movs	r3, #1
 800b280:	e029      	b.n	800b2d6 <UART_WaitOnFlagUntilTimeout+0xd2>
 800b282:	68fb      	ldr	r3, [r7, #12]
 800b284:	681b      	ldr	r3, [r3, #0]
 800b286:	69db      	ldr	r3, [r3, #28]
 800b288:	f403 6300 	and.w	r3, r3, #2048	@ 0x800
 800b28c:	f5b3 6f00 	cmp.w	r3, #2048	@ 0x800
 800b290:	d111      	bne.n	800b2b6 <UART_WaitOnFlagUntilTimeout+0xb2>
 800b292:	68fb      	ldr	r3, [r7, #12]
 800b294:	681b      	ldr	r3, [r3, #0]
 800b296:	f44f 6200 	mov.w	r2, #2048	@ 0x800
 800b29a:	621a      	str	r2, [r3, #32]
 800b29c:	68f8      	ldr	r0, [r7, #12]
 800b29e:	f000 f81f 	bl	800b2e0 <UART_EndRxTransfer>
 800b2a2:	68fb      	ldr	r3, [r7, #12]
 800b2a4:	2220      	movs	r2, #32
 800b2a6:	f8c3 2090 	str.w	r2, [r3, #144]	@ 0x90
 800b2aa:	68fb      	ldr	r3, [r7, #12]
 800b2ac:	2200      	movs	r2, #0
 800b2ae:	f883 2084 	strb.w	r2, [r3, #132]	@ 0x84
 800b2b2:	2303      	movs	r3, #3
 800b2b4:	e00f      	b.n	800b2d6 <UART_WaitOnFlagUntilTimeout+0xd2>
 800b2b6:	68fb      	ldr	r3, [r7, #12]
 800b2b8:	681b      	ldr	r3, [r3, #0]
 800b2ba:	69da      	ldr	r2, [r3, #28]
 800b2bc:	68bb      	ldr	r3, [r7, #8]
 800b2be:	4013      	ands	r3, r2
 800b2c0:	68ba      	ldr	r2, [r7, #8]
 800b2c2:	429a      	cmp	r2, r3
 800b2c4:	bf0c      	ite	eq
 800b2c6:	2301      	moveq	r3, #1
 800b2c8:	2300      	movne	r3, #0
 800b2ca:	b2db      	uxtb	r3, r3
 800b2cc:	461a      	mov	r2, r3
 800b2ce:	79fb      	ldrb	r3, [r7, #7]
 800b2d0:	429a      	cmp	r2, r3
 800b2d2:	d0a0      	beq.n	800b216 <UART_WaitOnFlagUntilTimeout+0x12>
 800b2d4:	2300      	movs	r3, #0
 800b2d6:	4618      	mov	r0, r3
 800b2d8:	3710      	adds	r7, #16
 800b2da:	46bd      	mov	sp, r7
 800b2dc:	bd80      	pop	{r7, pc}
	...

0800b2e0 <UART_EndRxTransfer>:
 800b2e0:	b480      	push	{r7}
 800b2e2:	b095      	sub	sp, #84	@ 0x54
 800b2e4:	af00      	add	r7, sp, #0
 800b2e6:	6078      	str	r0, [r7, #4]
 800b2e8:	687b      	ldr	r3, [r7, #4]
 800b2ea:	681b      	ldr	r3, [r3, #0]
 800b2ec:	637b      	str	r3, [r7, #52]	@ 0x34
 800b2ee:	6b7b      	ldr	r3, [r7, #52]	@ 0x34
 800b2f0:	e853 3f00 	ldrex	r3, [r3]
 800b2f4:	633b      	str	r3, [r7, #48]	@ 0x30
 800b2f6:	6b3b      	ldr	r3, [r7, #48]	@ 0x30
 800b2f8:	f423 7390 	bic.w	r3, r3, #288	@ 0x120
 800b2fc:	64fb      	str	r3, [r7, #76]	@ 0x4c
 800b2fe:	687b      	ldr	r3, [r7, #4]
 800b300:	681b      	ldr	r3, [r3, #0]
 800b302:	461a      	mov	r2, r3
 800b304:	6cfb      	ldr	r3, [r7, #76]	@ 0x4c
 800b306:	643b      	str	r3, [r7, #64]	@ 0x40
 800b308:	63fa      	str	r2, [r7, #60]	@ 0x3c
 800b30a:	6bf9      	ldr	r1, [r7, #60]	@ 0x3c
 800b30c:	6c3a      	ldr	r2, [r7, #64]	@ 0x40
 800b30e:	e841 2300 	strex	r3, r2, [r1]
 800b312:	63bb      	str	r3, [r7, #56]	@ 0x38
 800b314:	6bbb      	ldr	r3, [r7, #56]	@ 0x38
 800b316:	2b00      	cmp	r3, #0
 800b318:	d1e6      	bne.n	800b2e8 <UART_EndRxTransfer+0x8>
 800b31a:	687b      	ldr	r3, [r7, #4]
 800b31c:	681b      	ldr	r3, [r3, #0]
 800b31e:	3308      	adds	r3, #8
 800b320:	623b      	str	r3, [r7, #32]
 800b322:	6a3b      	ldr	r3, [r7, #32]
 800b324:	e853 3f00 	ldrex	r3, [r3]
 800b328:	61fb      	str	r3, [r7, #28]
 800b32a:	69fa      	ldr	r2, [r7, #28]
 800b32c:	4b1e      	ldr	r3, [pc, #120]	@ (800b3a8 <UART_EndRxTransfer+0xc8>)
 800b32e:	4013      	ands	r3, r2
 800b330:	64bb      	str	r3, [r7, #72]	@ 0x48
 800b332:	687b      	ldr	r3, [r7, #4]
 800b334:	681b      	ldr	r3, [r3, #0]
 800b336:	3308      	adds	r3, #8
 800b338:	6cba      	ldr	r2, [r7, #72]	@ 0x48
 800b33a:	62fa      	str	r2, [r7, #44]	@ 0x2c
 800b33c:	62bb      	str	r3, [r7, #40]	@ 0x28
 800b33e:	6ab9      	ldr	r1, [r7, #40]	@ 0x28
 800b340:	6afa      	ldr	r2, [r7, #44]	@ 0x2c
 800b342:	e841 2300 	strex	r3, r2, [r1]
 800b346:	627b      	str	r3, [r7, #36]	@ 0x24
 800b348:	6a7b      	ldr	r3, [r7, #36]	@ 0x24
 800b34a:	2b00      	cmp	r3, #0
 800b34c:	d1e5      	bne.n	800b31a <UART_EndRxTransfer+0x3a>
 800b34e:	687b      	ldr	r3, [r7, #4]
 800b350:	6edb      	ldr	r3, [r3, #108]	@ 0x6c
 800b352:	2b01      	cmp	r3, #1
 800b354:	d118      	bne.n	800b388 <UART_EndRxTransfer+0xa8>
 800b356:	687b      	ldr	r3, [r7, #4]
 800b358:	681b      	ldr	r3, [r3, #0]
 800b35a:	60fb      	str	r3, [r7, #12]
 800b35c:	68fb      	ldr	r3, [r7, #12]
 800b35e:	e853 3f00 	ldrex	r3, [r3]
 800b362:	60bb      	str	r3, [r7, #8]
 800b364:	68bb      	ldr	r3, [r7, #8]
 800b366:	f023 0310 	bic.w	r3, r3, #16
 800b36a:	647b      	str	r3, [r7, #68]	@ 0x44
 800b36c:	687b      	ldr	r3, [r7, #4]
 800b36e:	681b      	ldr	r3, [r3, #0]
 800b370:	461a      	mov	r2, r3
 800b372:	6c7b      	ldr	r3, [r7, #68]	@ 0x44
 800b374:	61bb      	str	r3, [r7, #24]
 800b376:	617a      	str	r2, [r7, #20]
 800b378:	6979      	ldr	r1, [r7, #20]
 800b37a:	69ba      	ldr	r2, [r7, #24]
 800b37c:	e841 2300 	strex	r3, r2, [r1]
 800b380:	613b      	str	r3, [r7, #16]
 800b382:	693b      	ldr	r3, [r7, #16]
 800b384:	2b00      	cmp	r3, #0
 800b386:	d1e6      	bne.n	800b356 <UART_EndRxTransfer+0x76>
 800b388:	687b      	ldr	r3, [r7, #4]
 800b38a:	2220      	movs	r2, #32
 800b38c:	f8c3 208c 	str.w	r2, [r3, #140]	@ 0x8c
 800b390:	687b      	ldr	r3, [r7, #4]
 800b392:	2200      	movs	r2, #0
 800b394:	66da      	str	r2, [r3, #108]	@ 0x6c
 800b396:	687b      	ldr	r3, [r7, #4]
 800b398:	2200      	movs	r2, #0
 800b39a:	675a      	str	r2, [r3, #116]	@ 0x74
 800b39c:	bf00      	nop
 800b39e:	3754      	adds	r7, #84	@ 0x54
 800b3a0:	46bd      	mov	sp, r7
 800b3a2:	f85d 7b04 	ldr.w	r7, [sp], #4
 800b3a6:	4770      	bx	lr
 800b3a8:	effffffe 	.word	0xeffffffe

0800b3ac <UART_DMAAbortOnError>:
 800b3ac:	b580      	push	{r7, lr}
 800b3ae:	b084      	sub	sp, #16
 800b3b0:	af00      	add	r7, sp, #0
 800b3b2:	6078      	str	r0, [r7, #4]
 800b3b4:	687b      	ldr	r3, [r7, #4]
 800b3b6:	6b9b      	ldr	r3, [r3, #56]	@ 0x38
 800b3b8:	60fb      	str	r3, [r7, #12]
 800b3ba:	68fb      	ldr	r3, [r7, #12]
 800b3bc:	2200      	movs	r2, #0
 800b3be:	f8a3 205e 	strh.w	r2, [r3, #94]	@ 0x5e
 800b3c2:	68fb      	ldr	r3, [r7, #12]
 800b3c4:	2200      	movs	r2, #0
 800b3c6:	f8a3 2056 	strh.w	r2, [r3, #86]	@ 0x56
 800b3ca:	68f8      	ldr	r0, [r7, #12]
 800b3cc:	f7fe ff4c 	bl	800a268 <HAL_UART_ErrorCallback>
 800b3d0:	bf00      	nop
 800b3d2:	3710      	adds	r7, #16
 800b3d4:	46bd      	mov	sp, r7
 800b3d6:	bd80      	pop	{r7, pc}

0800b3d8 <UART_EndTransmit_IT>:
 800b3d8:	b580      	push	{r7, lr}
 800b3da:	b088      	sub	sp, #32
 800b3dc:	af00      	add	r7, sp, #0
 800b3de:	6078      	str	r0, [r7, #4]
 800b3e0:	687b      	ldr	r3, [r7, #4]
 800b3e2:	681b      	ldr	r3, [r3, #0]
 800b3e4:	60fb      	str	r3, [r7, #12]
 800b3e6:	68fb      	ldr	r3, [r7, #12]
 800b3e8:	e853 3f00 	ldrex	r3, [r3]
 800b3ec:	60bb      	str	r3, [r7, #8]
 800b3ee:	68bb      	ldr	r3, [r7, #8]
 800b3f0:	f023 0340 	bic.w	r3, r3, #64	@ 0x40
 800b3f4:	61fb      	str	r3, [r7, #28]
 800b3f6:	687b      	ldr	r3, [r7, #4]
 800b3f8:	681b      	ldr	r3, [r3, #0]
 800b3fa:	461a      	mov	r2, r3
 800b3fc:	69fb      	ldr	r3, [r7, #28]
 800b3fe:	61bb      	str	r3, [r7, #24]
 800b400:	617a      	str	r2, [r7, #20]
 800b402:	6979      	ldr	r1, [r7, #20]
 800b404:	69ba      	ldr	r2, [r7, #24]
 800b406:	e841 2300 	strex	r3, r2, [r1]
 800b40a:	613b      	str	r3, [r7, #16]
 800b40c:	693b      	ldr	r3, [r7, #16]
 800b40e:	2b00      	cmp	r3, #0
 800b410:	d1e6      	bne.n	800b3e0 <UART_EndTransmit_IT+0x8>
 800b412:	687b      	ldr	r3, [r7, #4]
 800b414:	2220      	movs	r2, #32
 800b416:	f8c3 2088 	str.w	r2, [r3, #136]	@ 0x88
 800b41a:	687b      	ldr	r3, [r7, #4]
 800b41c:	2200      	movs	r2, #0
 800b41e:	679a      	str	r2, [r3, #120]	@ 0x78
 800b420:	6878      	ldr	r0, [r7, #4]
 800b422:	f7fe ff17 	bl	800a254 <HAL_UART_TxCpltCallback>
 800b426:	bf00      	nop
 800b428:	3720      	adds	r7, #32
 800b42a:	46bd      	mov	sp, r7
 800b42c:	bd80      	pop	{r7, pc}

0800b42e <HAL_UARTEx_WakeupCallback>:
 800b42e:	b480      	push	{r7}
 800b430:	b083      	sub	sp, #12
 800b432:	af00      	add	r7, sp, #0
 800b434:	6078      	str	r0, [r7, #4]
 800b436:	bf00      	nop
 800b438:	370c      	adds	r7, #12
 800b43a:	46bd      	mov	sp, r7
 800b43c:	f85d 7b04 	ldr.w	r7, [sp], #4
 800b440:	4770      	bx	lr

0800b442 <HAL_UARTEx_RxFifoFullCallback>:
 800b442:	b480      	push	{r7}
 800b444:	b083      	sub	sp, #12
 800b446:	af00      	add	r7, sp, #0
 800b448:	6078      	str	r0, [r7, #4]
 800b44a:	bf00      	nop
 800b44c:	370c      	adds	r7, #12
 800b44e:	46bd      	mov	sp, r7
 800b450:	f85d 7b04 	ldr.w	r7, [sp], #4
 800b454:	4770      	bx	lr

0800b456 <HAL_UARTEx_TxFifoEmptyCallback>:
 800b456:	b480      	push	{r7}
 800b458:	b083      	sub	sp, #12
 800b45a:	af00      	add	r7, sp, #0
 800b45c:	6078      	str	r0, [r7, #4]
 800b45e:	bf00      	nop
 800b460:	370c      	adds	r7, #12
 800b462:	46bd      	mov	sp, r7
 800b464:	f85d 7b04 	ldr.w	r7, [sp], #4
 800b468:	4770      	bx	lr

0800b46a <HAL_UARTEx_DisableFifoMode>:
 800b46a:	b480      	push	{r7}
 800b46c:	b085      	sub	sp, #20
 800b46e:	af00      	add	r7, sp, #0
 800b470:	6078      	str	r0, [r7, #4]
 800b472:	687b      	ldr	r3, [r7, #4]
 800b474:	f893 3084 	ldrb.w	r3, [r3, #132]	@ 0x84
 800b478:	2b01      	cmp	r3, #1
 800b47a:	d101      	bne.n	800b480 <HAL_UARTEx_DisableFifoMode+0x16>
 800b47c:	2302      	movs	r3, #2
 800b47e:	e027      	b.n	800b4d0 <HAL_UARTEx_DisableFifoMode+0x66>
 800b480:	687b      	ldr	r3, [r7, #4]
 800b482:	2201      	movs	r2, #1
 800b484:	f883 2084 	strb.w	r2, [r3, #132]	@ 0x84
 800b488:	687b      	ldr	r3, [r7, #4]
 800b48a:	2224      	movs	r2, #36	@ 0x24
 800b48c:	f8c3 2088 	str.w	r2, [r3, #136]	@ 0x88
 800b490:	687b      	ldr	r3, [r7, #4]
 800b492:	681b      	ldr	r3, [r3, #0]
 800b494:	681b      	ldr	r3, [r3, #0]
 800b496:	60fb      	str	r3, [r7, #12]
 800b498:	687b      	ldr	r3, [r7, #4]
 800b49a:	681b      	ldr	r3, [r3, #0]
 800b49c:	681a      	ldr	r2, [r3, #0]
 800b49e:	687b      	ldr	r3, [r7, #4]
 800b4a0:	681b      	ldr	r3, [r3, #0]
 800b4a2:	f022 0201 	bic.w	r2, r2, #1
 800b4a6:	601a      	str	r2, [r3, #0]
 800b4a8:	68fb      	ldr	r3, [r7, #12]
 800b4aa:	f023 5300 	bic.w	r3, r3, #536870912	@ 0x20000000
 800b4ae:	60fb      	str	r3, [r7, #12]
 800b4b0:	687b      	ldr	r3, [r7, #4]
 800b4b2:	2200      	movs	r2, #0
 800b4b4:	665a      	str	r2, [r3, #100]	@ 0x64
 800b4b6:	687b      	ldr	r3, [r7, #4]
 800b4b8:	681b      	ldr	r3, [r3, #0]
 800b4ba:	68fa      	ldr	r2, [r7, #12]
 800b4bc:	601a      	str	r2, [r3, #0]
 800b4be:	687b      	ldr	r3, [r7, #4]
 800b4c0:	2220      	movs	r2, #32
 800b4c2:	f8c3 2088 	str.w	r2, [r3, #136]	@ 0x88
 800b4c6:	687b      	ldr	r3, [r7, #4]
 800b4c8:	2200      	movs	r2, #0
 800b4ca:	f883 2084 	strb.w	r2, [r3, #132]	@ 0x84
 800b4ce:	2300      	movs	r3, #0
 800b4d0:	4618      	mov	r0, r3
 800b4d2:	3714      	adds	r7, #20
 800b4d4:	46bd      	mov	sp, r7
 800b4d6:	f85d 7b04 	ldr.w	r7, [sp], #4
 800b4da:	4770      	bx	lr

0800b4dc <HAL_UARTEx_SetTxFifoThreshold>:
 800b4dc:	b580      	push	{r7, lr}
 800b4de:	b084      	sub	sp, #16
 800b4e0:	af00      	add	r7, sp, #0
 800b4e2:	6078      	str	r0, [r7, #4]
 800b4e4:	6039      	str	r1, [r7, #0]
 800b4e6:	687b      	ldr	r3, [r7, #4]
 800b4e8:	f893 3084 	ldrb.w	r3, [r3, #132]	@ 0x84
 800b4ec:	2b01      	cmp	r3, #1
 800b4ee:	d101      	bne.n	800b4f4 <HAL_UARTEx_SetTxFifoThreshold+0x18>
 800b4f0:	2302      	movs	r3, #2
 800b4f2:	e02d      	b.n	800b550 <HAL_UARTEx_SetTxFifoThreshold+0x74>
 800b4f4:	687b      	ldr	r3, [r7, #4]
 800b4f6:	2201      	movs	r2, #1
 800b4f8:	f883 2084 	strb.w	r2, [r3, #132]	@ 0x84
 800b4fc:	687b      	ldr	r3, [r7, #4]
 800b4fe:	2224      	movs	r2, #36	@ 0x24
 800b500:	f8c3 2088 	str.w	r2, [r3, #136]	@ 0x88
 800b504:	687b      	ldr	r3, [r7, #4]
 800b506:	681b      	ldr	r3, [r3, #0]
 800b508:	681b      	ldr	r3, [r3, #0]
 800b50a:	60fb      	str	r3, [r7, #12]
 800b50c:	687b      	ldr	r3, [r7, #4]
 800b50e:	681b      	ldr	r3, [r3, #0]
 800b510:	681a      	ldr	r2, [r3, #0]
 800b512:	687b      	ldr	r3, [r7, #4]
 800b514:	681b      	ldr	r3, [r3, #0]
 800b516:	f022 0201 	bic.w	r2, r2, #1
 800b51a:	601a      	str	r2, [r3, #0]
 800b51c:	687b      	ldr	r3, [r7, #4]
 800b51e:	681b      	ldr	r3, [r3, #0]
 800b520:	689b      	ldr	r3, [r3, #8]
 800b522:	f023 4160 	bic.w	r1, r3, #3758096384	@ 0xe0000000
 800b526:	687b      	ldr	r3, [r7, #4]
 800b528:	681b      	ldr	r3, [r3, #0]
 800b52a:	683a      	ldr	r2, [r7, #0]
 800b52c:	430a      	orrs	r2, r1
 800b52e:	609a      	str	r2, [r3, #8]
 800b530:	6878      	ldr	r0, [r7, #4]
 800b532:	f000 f84f 	bl	800b5d4 <UARTEx_SetNbDataToProcess>
 800b536:	687b      	ldr	r3, [r7, #4]
 800b538:	681b      	ldr	r3, [r3, #0]
 800b53a:	68fa      	ldr	r2, [r7, #12]
 800b53c:	601a      	str	r2, [r3, #0]
 800b53e:	687b      	ldr	r3, [r7, #4]
 800b540:	2220      	movs	r2, #32
 800b542:	f8c3 2088 	str.w	r2, [r3, #136]	@ 0x88
 800b546:	687b      	ldr	r3, [r7, #4]
 800b548:	2200      	movs	r2, #0
 800b54a:	f883 2084 	strb.w	r2, [r3, #132]	@ 0x84
 800b54e:	2300      	movs	r3, #0
 800b550:	4618      	mov	r0, r3
 800b552:	3710      	adds	r7, #16
 800b554:	46bd      	mov	sp, r7
 800b556:	bd80      	pop	{r7, pc}

0800b558 <HAL_UARTEx_SetRxFifoThreshold>:
 800b558:	b580      	push	{r7, lr}
 800b55a:	b084      	sub	sp, #16
 800b55c:	af00      	add	r7, sp, #0
 800b55e:	6078      	str	r0, [r7, #4]
 800b560:	6039      	str	r1, [r7, #0]
 800b562:	687b      	ldr	r3, [r7, #4]
 800b564:	f893 3084 	ldrb.w	r3, [r3, #132]	@ 0x84
 800b568:	2b01      	cmp	r3, #1
 800b56a:	d101      	bne.n	800b570 <HAL_UARTEx_SetRxFifoThreshold+0x18>
 800b56c:	2302      	movs	r3, #2
 800b56e:	e02d      	b.n	800b5cc <HAL_UARTEx_SetRxFifoThreshold+0x74>
 800b570:	687b      	ldr	r3, [r7, #4]
 800b572:	2201      	movs	r2, #1
 800b574:	f883 2084 	strb.w	r2, [r3, #132]	@ 0x84
 800b578:	687b      	ldr	r3, [r7, #4]
 800b57a:	2224      	movs	r2, #36	@ 0x24
 800b57c:	f8c3 2088 	str.w	r2, [r3, #136]	@ 0x88
 800b580:	687b      	ldr	r3, [r7, #4]
 800b582:	681b      	ldr	r3, [r3, #0]
 800b584:	681b      	ldr	r3, [r3, #0]
 800b586:	60fb      	str	r3, [r7, #12]
 800b588:	687b      	ldr	r3, [r7, #4]
 800b58a:	681b      	ldr	r3, [r3, #0]
 800b58c:	681a      	ldr	r2, [r3, #0]
 800b58e:	687b      	ldr	r3, [r7, #4]
 800b590:	681b      	ldr	r3, [r3, #0]
 800b592:	f022 0201 	bic.w	r2, r2, #1
 800b596:	601a      	str	r2, [r3, #0]
 800b598:	687b      	ldr	r3, [r7, #4]
 800b59a:	681b      	ldr	r3, [r3, #0]
 800b59c:	689b      	ldr	r3, [r3, #8]
 800b59e:	f023 6160 	bic.w	r1, r3, #234881024	@ 0xe000000
 800b5a2:	687b      	ldr	r3, [r7, #4]
 800b5a4:	681b      	ldr	r3, [r3, #0]
 800b5a6:	683a      	ldr	r2, [r7, #0]
 800b5a8:	430a      	orrs	r2, r1
 800b5aa:	609a      	str	r2, [r3, #8]
 800b5ac:	6878      	ldr	r0, [r7, #4]
 800b5ae:	f000 f811 	bl	800b5d4 <UARTEx_SetNbDataToProcess>
 800b5b2:	687b      	ldr	r3, [r7, #4]
 800b5b4:	681b      	ldr	r3, [r3, #0]
 800b5b6:	68fa      	ldr	r2, [r7, #12]
 800b5b8:	601a      	str	r2, [r3, #0]
 800b5ba:	687b      	ldr	r3, [r7, #4]
 800b5bc:	2220      	movs	r2, #32
 800b5be:	f8c3 2088 	str.w	r2, [r3, #136]	@ 0x88
 800b5c2:	687b      	ldr	r3, [r7, #4]
 800b5c4:	2200      	movs	r2, #0
 800b5c6:	f883 2084 	strb.w	r2, [r3, #132]	@ 0x84
 800b5ca:	2300      	movs	r3, #0
 800b5cc:	4618      	mov	r0, r3
 800b5ce:	3710      	adds	r7, #16
 800b5d0:	46bd      	mov	sp, r7
 800b5d2:	bd80      	pop	{r7, pc}

0800b5d4 <UARTEx_SetNbDataToProcess>:
 800b5d4:	b480      	push	{r7}
 800b5d6:	b085      	sub	sp, #20
 800b5d8:	af00      	add	r7, sp, #0
 800b5da:	6078      	str	r0, [r7, #4]
 800b5dc:	687b      	ldr	r3, [r7, #4]
 800b5de:	6e5b      	ldr	r3, [r3, #100]	@ 0x64
 800b5e0:	2b00      	cmp	r3, #0
 800b5e2:	d108      	bne.n	800b5f6 <UARTEx_SetNbDataToProcess+0x22>
 800b5e4:	687b      	ldr	r3, [r7, #4]
 800b5e6:	2201      	movs	r2, #1
 800b5e8:	f8a3 206a 	strh.w	r2, [r3, #106]	@ 0x6a
 800b5ec:	687b      	ldr	r3, [r7, #4]
 800b5ee:	2201      	movs	r2, #1
 800b5f0:	f8a3 2068 	strh.w	r2, [r3, #104]	@ 0x68
 800b5f4:	e031      	b.n	800b65a <UARTEx_SetNbDataToProcess+0x86>
 800b5f6:	2310      	movs	r3, #16
 800b5f8:	73fb      	strb	r3, [r7, #15]
 800b5fa:	2310      	movs	r3, #16
 800b5fc:	73bb      	strb	r3, [r7, #14]
 800b5fe:	687b      	ldr	r3, [r7, #4]
 800b600:	681b      	ldr	r3, [r3, #0]
 800b602:	689b      	ldr	r3, [r3, #8]
 800b604:	0e5b      	lsrs	r3, r3, #25
 800b606:	b2db      	uxtb	r3, r3
 800b608:	f003 0307 	and.w	r3, r3, #7
 800b60c:	737b      	strb	r3, [r7, #13]
 800b60e:	687b      	ldr	r3, [r7, #4]
 800b610:	681b      	ldr	r3, [r3, #0]
 800b612:	689b      	ldr	r3, [r3, #8]
 800b614:	0f5b      	lsrs	r3, r3, #29
 800b616:	b2db      	uxtb	r3, r3
 800b618:	f003 0307 	and.w	r3, r3, #7
 800b61c:	733b      	strb	r3, [r7, #12]
 800b61e:	7bbb      	ldrb	r3, [r7, #14]
 800b620:	7b3a      	ldrb	r2, [r7, #12]
 800b622:	4911      	ldr	r1, [pc, #68]	@ (800b668 <UARTEx_SetNbDataToProcess+0x94>)
 800b624:	5c8a      	ldrb	r2, [r1, r2]
 800b626:	fb02 f303 	mul.w	r3, r2, r3
 800b62a:	7b3a      	ldrb	r2, [r7, #12]
 800b62c:	490f      	ldr	r1, [pc, #60]	@ (800b66c <UARTEx_SetNbDataToProcess+0x98>)
 800b62e:	5c8a      	ldrb	r2, [r1, r2]
 800b630:	fb93 f3f2 	sdiv	r3, r3, r2
 800b634:	b29a      	uxth	r2, r3
 800b636:	687b      	ldr	r3, [r7, #4]
 800b638:	f8a3 206a 	strh.w	r2, [r3, #106]	@ 0x6a
 800b63c:	7bfb      	ldrb	r3, [r7, #15]
 800b63e:	7b7a      	ldrb	r2, [r7, #13]
 800b640:	4909      	ldr	r1, [pc, #36]	@ (800b668 <UARTEx_SetNbDataToProcess+0x94>)
 800b642:	5c8a      	ldrb	r2, [r1, r2]
 800b644:	fb02 f303 	mul.w	r3, r2, r3
 800b648:	7b7a      	ldrb	r2, [r7, #13]
 800b64a:	4908      	ldr	r1, [pc, #32]	@ (800b66c <UARTEx_SetNbDataToProcess+0x98>)
 800b64c:	5c8a      	ldrb	r2, [r1, r2]
 800b64e:	fb93 f3f2 	sdiv	r3, r3, r2
 800b652:	b29a      	uxth	r2, r3
 800b654:	687b      	ldr	r3, [r7, #4]
 800b656:	f8a3 2068 	strh.w	r2, [r3, #104]	@ 0x68
 800b65a:	bf00      	nop
 800b65c:	3714      	adds	r7, #20
 800b65e:	46bd      	mov	sp, r7
 800b660:	f85d 7b04 	ldr.w	r7, [sp], #4
 800b664:	4770      	bx	lr
 800b666:	bf00      	nop
 800b668:	0800b710 	.word	0x0800b710
 800b66c:	0800b718 	.word	0x0800b718

0800b670 <memset>:
 800b670:	4402      	add	r2, r0
 800b672:	4603      	mov	r3, r0
 800b674:	4293      	cmp	r3, r2
 800b676:	d100      	bne.n	800b67a <memset+0xa>
 800b678:	4770      	bx	lr
 800b67a:	f803 1b01 	strb.w	r1, [r3], #1
 800b67e:	e7f9      	b.n	800b674 <memset+0x4>

0800b680 <__libc_init_array>:
 800b680:	b570      	push	{r4, r5, r6, lr}
 800b682:	4d0d      	ldr	r5, [pc, #52]	@ (800b6b8 <__libc_init_array+0x38>)
 800b684:	4c0d      	ldr	r4, [pc, #52]	@ (800b6bc <__libc_init_array+0x3c>)
 800b686:	1b64      	subs	r4, r4, r5
 800b688:	10a4      	asrs	r4, r4, #2
 800b68a:	2600      	movs	r6, #0
 800b68c:	42a6      	cmp	r6, r4
 800b68e:	d109      	bne.n	800b6a4 <__libc_init_array+0x24>
 800b690:	4d0b      	ldr	r5, [pc, #44]	@ (800b6c0 <__libc_init_array+0x40>)
 800b692:	4c0c      	ldr	r4, [pc, #48]	@ (800b6c4 <__libc_init_array+0x44>)
 800b694:	f000 f818 	bl	800b6c8 <_init>
 800b698:	1b64      	subs	r4, r4, r5
 800b69a:	10a4      	asrs	r4, r4, #2
 800b69c:	2600      	movs	r6, #0
 800b69e:	42a6      	cmp	r6, r4
 800b6a0:	d105      	bne.n	800b6ae <__libc_init_array+0x2e>
 800b6a2:	bd70      	pop	{r4, r5, r6, pc}
 800b6a4:	f855 3b04 	ldr.w	r3, [r5], #4
 800b6a8:	4798      	blx	r3
 800b6aa:	3601      	adds	r6, #1
 800b6ac:	e7ee      	b.n	800b68c <__libc_init_array+0xc>
 800b6ae:	f855 3b04 	ldr.w	r3, [r5], #4
 800b6b2:	4798      	blx	r3
 800b6b4:	3601      	adds	r6, #1
 800b6b6:	e7f2      	b.n	800b69e <__libc_init_array+0x1e>
 800b6b8:	0800b728 	.word	0x0800b728
 800b6bc:	0800b728 	.word	0x0800b728
 800b6c0:	0800b728 	.word	0x0800b728
 800b6c4:	0800b72c 	.word	0x0800b72c

0800b6c8 <_init>:
 800b6c8:	b5f8      	push	{r3, r4, r5, r6, r7, lr}
 800b6ca:	bf00      	nop
 800b6cc:	bcf8      	pop	{r3, r4, r5, r6, r7}
 800b6ce:	bc08      	pop	{r3}
 800b6d0:	469e      	mov	lr, r3
 800b6d2:	4770      	bx	lr

0800b6d4 <_fini>:
 800b6d4:	b5f8      	push	{r3, r4, r5, r6, r7, lr}
 800b6d6:	bf00      	nop
 800b6d8:	bcf8      	pop	{r3, r4, r5, r6, r7}
 800b6da:	bc08      	pop	{r3}
 800b6dc:	469e      	mov	lr, r3
 800b6de:	4770      	bx	lr
